PRU Assembler Unix v2.1.2 Wed Sep  7 12:11:05 2016

Tools Copyright (c) 2012-2015 Texas Instruments Incorporated
mcp3202.asm                                                          PAGE    1

       1;******************************************************************************
       2;* PRU C/C++ Codegen                                              Unix v2.1.2 *
       3;* Date/Time created: Wed Sep  7 12:11:05 2016                                *
       4;******************************************************************************
       5        .compiler_opts --abi=eabi --diag_wrap=off --endian=little --hll_source=on --object_format=elf 
       6
       7$C$DW$CU        .dwtag  DW_TAG_compile_unit
       8        .dwattr $C$DW$CU, DW_AT_name("../mcp3202.c")
       9        .dwattr $C$DW$CU, DW_AT_producer("TI PRU C/C++ Codegen Unix v2.1.2 Copyright (c) 2012-2015 Tex
      10        .dwattr $C$DW$CU, DW_AT_TI_version(0x01)
      11        .dwattr $C$DW$CU, DW_AT_comp_dir("/home/bwilcutt/workspace/onyxx-drivers/PRU_workspace/PRU_SPI
      12        .global __PRU_CREG_DDR
      13        .global __PRU_CREG_PRU_INTC
      14        .global __PRU_CREG_PRU_CFG
      15        .global __PRU_CREG_PRU_SHAREDMEM
      16
      17$C$DW$1 .dwtag  DW_TAG_subprogram, DW_AT_name("__halt")
      18        .dwattr $C$DW$1, DW_AT_TI_symbol_name("__halt")
      19        .dwattr $C$DW$1, DW_AT_declaration
      20        .dwattr $C$DW$1, DW_AT_external
      21
      22$C$DW$2 .dwtag  DW_TAG_subprogram, DW_AT_name("__delay_cycles")
      23        .dwattr $C$DW$2, DW_AT_TI_symbol_name("__delay_cycles")
      24        .dwattr $C$DW$2, DW_AT_declaration
      25        .dwattr $C$DW$2, DW_AT_external
      26$C$DW$3 .dwtag  DW_TAG_formal_parameter
      27        .dwattr $C$DW$3, DW_AT_type(*$C$DW$T$11)
      28        .dwendtag $C$DW$2
      29
      30
      31$C$DW$4 .dwtag  DW_TAG_subprogram, DW_AT_name("Is_RxDataReady")
      32        .dwattr $C$DW$4, DW_AT_TI_symbol_name("Is_RxDataReady")
      33        .dwattr $C$DW$4, DW_AT_type(*$C$DW$T$82)
      34        .dwattr $C$DW$4, DW_AT_declaration
      35        .dwattr $C$DW$4, DW_AT_external
      36        .dwattr $C$DW$4, DW_AT_decl_file("../spiAPI.h")
      37        .dwattr $C$DW$4, DW_AT_decl_line(0x329)
      38        .dwattr $C$DW$4, DW_AT_decl_column(0x11)
      39$C$DW$5 .dwtag  DW_TAG_formal_parameter
      40        .dwattr $C$DW$5, DW_AT_type(*$C$DW$T$82)
      41$C$DW$6 .dwtag  DW_TAG_formal_parameter
      42        .dwattr $C$DW$6, DW_AT_type(*$C$DW$T$82)
      43        .dwendtag $C$DW$4
      44
      45
      46$C$DW$7 .dwtag  DW_TAG_subprogram, DW_AT_name("SPI_ChannelSet")
      47        .dwattr $C$DW$7, DW_AT_TI_symbol_name("SPI_ChannelSet")
      48        .dwattr $C$DW$7, DW_AT_declaration
      49        .dwattr $C$DW$7, DW_AT_external
      50        .dwattr $C$DW$7, DW_AT_decl_file("../spiAPI.h")
      51        .dwattr $C$DW$7, DW_AT_decl_line(0x32c)
      52        .dwattr $C$DW$7, DW_AT_decl_column(0x0e)
      53$C$DW$8 .dwtag  DW_TAG_formal_parameter
      54        .dwattr $C$DW$8, DW_AT_type(*$C$DW$T$82)
      55$C$DW$9 .dwtag  DW_TAG_formal_parameter
PRU Assembler Unix v2.1.2 Wed Sep  7 12:11:05 2016

Tools Copyright (c) 2012-2015 Texas Instruments Incorporated
mcp3202.asm                                                          PAGE    2

      56        .dwattr $C$DW$9, DW_AT_type(*$C$DW$T$82)
      57$C$DW$10        .dwtag  DW_TAG_formal_parameter
      58        .dwattr $C$DW$10, DW_AT_type(*$C$DW$T$82)
      59        .dwendtag $C$DW$7
      60
      61
      62$C$DW$11        .dwtag  DW_TAG_subprogram, DW_AT_name("SPI_ClkConfig")
      63        .dwattr $C$DW$11, DW_AT_TI_symbol_name("SPI_ClkConfig")
      64        .dwattr $C$DW$11, DW_AT_declaration
      65        .dwattr $C$DW$11, DW_AT_external
      66        .dwattr $C$DW$11, DW_AT_decl_file("../spiAPI.h")
      67        .dwattr $C$DW$11, DW_AT_decl_line(0x32f)
      68        .dwattr $C$DW$11, DW_AT_decl_column(0x0e)
      69$C$DW$12        .dwtag  DW_TAG_formal_parameter
      70        .dwattr $C$DW$12, DW_AT_type(*$C$DW$T$82)
      71$C$DW$13        .dwtag  DW_TAG_formal_parameter
      72        .dwattr $C$DW$13, DW_AT_type(*$C$DW$T$82)
      73$C$DW$14        .dwtag  DW_TAG_formal_parameter
      74        .dwattr $C$DW$14, DW_AT_type(*$C$DW$T$82)
      75$C$DW$15        .dwtag  DW_TAG_formal_parameter
      76        .dwattr $C$DW$15, DW_AT_type(*$C$DW$T$82)
      77$C$DW$16        .dwtag  DW_TAG_formal_parameter
      78        .dwattr $C$DW$16, DW_AT_type(*$C$DW$T$82)
      79        .dwendtag $C$DW$11
      80
      81
      82$C$DW$17        .dwtag  DW_TAG_subprogram, DW_AT_name("SPI_CSPolaritySet")
      83        .dwattr $C$DW$17, DW_AT_TI_symbol_name("SPI_CSPolaritySet")
      84        .dwattr $C$DW$17, DW_AT_declaration
      85        .dwattr $C$DW$17, DW_AT_external
      86        .dwattr $C$DW$17, DW_AT_decl_file("../spiAPI.h")
      87        .dwattr $C$DW$17, DW_AT_decl_line(0x335)
      88        .dwattr $C$DW$17, DW_AT_decl_column(0x0e)
      89$C$DW$18        .dwtag  DW_TAG_formal_parameter
      90        .dwattr $C$DW$18, DW_AT_type(*$C$DW$T$82)
      91$C$DW$19        .dwtag  DW_TAG_formal_parameter
      92        .dwattr $C$DW$19, DW_AT_type(*$C$DW$T$82)
      93$C$DW$20        .dwtag  DW_TAG_formal_parameter
      94        .dwattr $C$DW$20, DW_AT_type(*$C$DW$T$82)
      95        .dwendtag $C$DW$17
      96
      97
      98$C$DW$21        .dwtag  DW_TAG_subprogram, DW_AT_name("SPI_CSSet")
      99        .dwattr $C$DW$21, DW_AT_TI_symbol_name("SPI_CSSet")
     100        .dwattr $C$DW$21, DW_AT_declaration
     101        .dwattr $C$DW$21, DW_AT_external
     102        .dwattr $C$DW$21, DW_AT_decl_file("../spiAPI.h")
     103        .dwattr $C$DW$21, DW_AT_decl_line(0x337)
     104        .dwattr $C$DW$21, DW_AT_decl_column(0x0e)
     105$C$DW$22        .dwtag  DW_TAG_formal_parameter
     106        .dwattr $C$DW$22, DW_AT_type(*$C$DW$T$82)
     107$C$DW$23        .dwtag  DW_TAG_formal_parameter
     108        .dwattr $C$DW$23, DW_AT_type(*$C$DW$T$82)
     109        .dwendtag $C$DW$21
     110
PRU Assembler Unix v2.1.2 Wed Sep  7 12:11:05 2016

Tools Copyright (c) 2012-2015 Texas Instruments Incorporated
mcp3202.asm                                                          PAGE    3

     111
     112$C$DW$24        .dwtag  DW_TAG_subprogram, DW_AT_name("SPI_DataPinDirection")
     113        .dwattr $C$DW$24, DW_AT_TI_symbol_name("SPI_DataPinDirection")
     114        .dwattr $C$DW$24, DW_AT_declaration
     115        .dwattr $C$DW$24, DW_AT_external
     116        .dwattr $C$DW$24, DW_AT_decl_file("../spiAPI.h")
     117        .dwattr $C$DW$24, DW_AT_decl_line(0x339)
     118        .dwattr $C$DW$24, DW_AT_decl_column(0x0e)
     119$C$DW$25        .dwtag  DW_TAG_formal_parameter
     120        .dwattr $C$DW$25, DW_AT_type(*$C$DW$T$82)
     121$C$DW$26        .dwtag  DW_TAG_formal_parameter
     122        .dwattr $C$DW$26, DW_AT_type(*$C$DW$T$82)
     123        .dwendtag $C$DW$24
     124
     125
     126$C$DW$27        .dwtag  DW_TAG_subprogram, DW_AT_name("SPI_MasterModeEnable")
     127        .dwattr $C$DW$27, DW_AT_TI_symbol_name("SPI_MasterModeEnable")
     128        .dwattr $C$DW$27, DW_AT_declaration
     129        .dwattr $C$DW$27, DW_AT_external
     130        .dwattr $C$DW$27, DW_AT_decl_file("../spiAPI.h")
     131        .dwattr $C$DW$27, DW_AT_decl_line(0x343)
     132        .dwattr $C$DW$27, DW_AT_decl_column(0x0e)
     133$C$DW$28        .dwtag  DW_TAG_formal_parameter
     134        .dwattr $C$DW$28, DW_AT_type(*$C$DW$T$82)
     135        .dwendtag $C$DW$27
     136
     137
     138$C$DW$29        .dwtag  DW_TAG_subprogram, DW_AT_name("SPI_MasterModeSet")
     139        .dwattr $C$DW$29, DW_AT_TI_symbol_name("SPI_MasterModeSet")
     140        .dwattr $C$DW$29, DW_AT_type(*$C$DW$T$82)
     141        .dwattr $C$DW$29, DW_AT_declaration
     142        .dwattr $C$DW$29, DW_AT_external
     143        .dwattr $C$DW$29, DW_AT_decl_file("../spiAPI.h")
     144        .dwattr $C$DW$29, DW_AT_decl_line(0x344)
     145        .dwattr $C$DW$29, DW_AT_decl_column(0x11)
     146$C$DW$30        .dwtag  DW_TAG_formal_parameter
     147        .dwattr $C$DW$30, DW_AT_type(*$C$DW$T$82)
     148$C$DW$31        .dwtag  DW_TAG_formal_parameter
     149        .dwattr $C$DW$31, DW_AT_type(*$C$DW$T$82)
     150$C$DW$32        .dwtag  DW_TAG_formal_parameter
     151        .dwattr $C$DW$32, DW_AT_type(*$C$DW$T$82)
     152$C$DW$33        .dwtag  DW_TAG_formal_parameter
     153        .dwattr $C$DW$33, DW_AT_type(*$C$DW$T$82)
     154$C$DW$34        .dwtag  DW_TAG_formal_parameter
     155        .dwattr $C$DW$34, DW_AT_type(*$C$DW$T$82)
     156        .dwendtag $C$DW$29
     157
     158
     159$C$DW$35        .dwtag  DW_TAG_subprogram, DW_AT_name("SPI_ReceiveData")
     160        .dwattr $C$DW$35, DW_AT_TI_symbol_name("SPI_ReceiveData")
     161        .dwattr $C$DW$35, DW_AT_type(*$C$DW$T$82)
     162        .dwattr $C$DW$35, DW_AT_declaration
     163        .dwattr $C$DW$35, DW_AT_external
     164        .dwattr $C$DW$35, DW_AT_decl_file("../spiAPI.h")
     165        .dwattr $C$DW$35, DW_AT_decl_line(0x346)
PRU Assembler Unix v2.1.2 Wed Sep  7 12:11:05 2016

Tools Copyright (c) 2012-2015 Texas Instruments Incorporated
mcp3202.asm                                                          PAGE    4

     166        .dwattr $C$DW$35, DW_AT_decl_column(0x11)
     167$C$DW$36        .dwtag  DW_TAG_formal_parameter
     168        .dwattr $C$DW$36, DW_AT_type(*$C$DW$T$82)
     169$C$DW$37        .dwtag  DW_TAG_formal_parameter
     170        .dwattr $C$DW$37, DW_AT_type(*$C$DW$T$82)
     171        .dwendtag $C$DW$35
     172
     173
     174$C$DW$38        .dwtag  DW_TAG_subprogram, DW_AT_name("SPI_Reset")
     175        .dwattr $C$DW$38, DW_AT_TI_symbol_name("SPI_Reset")
     176        .dwattr $C$DW$38, DW_AT_declaration
     177        .dwattr $C$DW$38, DW_AT_external
     178        .dwattr $C$DW$38, DW_AT_decl_file("../spiAPI.h")
     179        .dwattr $C$DW$38, DW_AT_decl_line(0x347)
     180        .dwattr $C$DW$38, DW_AT_decl_column(0x0e)
     181$C$DW$39        .dwtag  DW_TAG_formal_parameter
     182        .dwattr $C$DW$39, DW_AT_type(*$C$DW$T$82)
     183        .dwendtag $C$DW$38
     184
     185
     186$C$DW$40        .dwtag  DW_TAG_subprogram, DW_AT_name("SPI_RxFIFODisable")
     187        .dwattr $C$DW$40, DW_AT_TI_symbol_name("SPI_RxFIFODisable")
     188        .dwattr $C$DW$40, DW_AT_declaration
     189        .dwattr $C$DW$40, DW_AT_external
     190        .dwattr $C$DW$40, DW_AT_decl_file("../spiAPI.h")
     191        .dwattr $C$DW$40, DW_AT_decl_line(0x349)
     192        .dwattr $C$DW$40, DW_AT_decl_column(0x0e)
     193$C$DW$41        .dwtag  DW_TAG_formal_parameter
     194        .dwattr $C$DW$41, DW_AT_type(*$C$DW$T$82)
     195$C$DW$42        .dwtag  DW_TAG_formal_parameter
     196        .dwattr $C$DW$42, DW_AT_type(*$C$DW$T$82)
     197        .dwendtag $C$DW$40
     198
     199
     200$C$DW$43        .dwtag  DW_TAG_subprogram, DW_AT_name("SPI_StartBitDisable")
     201        .dwattr $C$DW$43, DW_AT_TI_symbol_name("SPI_StartBitDisable")
     202        .dwattr $C$DW$43, DW_AT_declaration
     203        .dwattr $C$DW$43, DW_AT_external
     204        .dwattr $C$DW$43, DW_AT_decl_file("../spiAPI.h")
     205        .dwattr $C$DW$43, DW_AT_decl_line(0x34e)
     206        .dwattr $C$DW$43, DW_AT_decl_column(0x0e)
     207$C$DW$44        .dwtag  DW_TAG_formal_parameter
     208        .dwattr $C$DW$44, DW_AT_type(*$C$DW$T$82)
     209$C$DW$45        .dwtag  DW_TAG_formal_parameter
     210        .dwattr $C$DW$45, DW_AT_type(*$C$DW$T$82)
     211        .dwendtag $C$DW$43
     212
     213
     214$C$DW$46        .dwtag  DW_TAG_subprogram, DW_AT_name("SPI_StartBitEnable")
     215        .dwattr $C$DW$46, DW_AT_TI_symbol_name("SPI_StartBitEnable")
     216        .dwattr $C$DW$46, DW_AT_declaration
     217        .dwattr $C$DW$46, DW_AT_external
     218        .dwattr $C$DW$46, DW_AT_decl_file("../spiAPI.h")
     219        .dwattr $C$DW$46, DW_AT_decl_line(0x34f)
     220        .dwattr $C$DW$46, DW_AT_decl_column(0x0e)
PRU Assembler Unix v2.1.2 Wed Sep  7 12:11:05 2016

Tools Copyright (c) 2012-2015 Texas Instruments Incorporated
mcp3202.asm                                                          PAGE    5

     221$C$DW$47        .dwtag  DW_TAG_formal_parameter
     222        .dwattr $C$DW$47, DW_AT_type(*$C$DW$T$82)
     223$C$DW$48        .dwtag  DW_TAG_formal_parameter
     224        .dwattr $C$DW$48, DW_AT_type(*$C$DW$T$82)
     225        .dwendtag $C$DW$46
     226
     227
     228$C$DW$49        .dwtag  DW_TAG_subprogram, DW_AT_name("SPI_StartBitPolaritySet")
     229        .dwattr $C$DW$49, DW_AT_TI_symbol_name("SPI_StartBitPolaritySet")
     230        .dwattr $C$DW$49, DW_AT_declaration
     231        .dwattr $C$DW$49, DW_AT_external
     232        .dwattr $C$DW$49, DW_AT_decl_file("../spiAPI.h")
     233        .dwattr $C$DW$49, DW_AT_decl_line(0x350)
     234        .dwattr $C$DW$49, DW_AT_decl_column(0x0e)
     235$C$DW$50        .dwtag  DW_TAG_formal_parameter
     236        .dwattr $C$DW$50, DW_AT_type(*$C$DW$T$82)
     237$C$DW$51        .dwtag  DW_TAG_formal_parameter
     238        .dwattr $C$DW$51, DW_AT_type(*$C$DW$T$82)
     239$C$DW$52        .dwtag  DW_TAG_formal_parameter
     240        .dwattr $C$DW$52, DW_AT_type(*$C$DW$T$82)
     241        .dwendtag $C$DW$49
     242
     243
     244$C$DW$53        .dwtag  DW_TAG_subprogram, DW_AT_name("SPI_TransmitData")
     245        .dwattr $C$DW$53, DW_AT_TI_symbol_name("SPI_TransmitData")
     246        .dwattr $C$DW$53, DW_AT_declaration
     247        .dwattr $C$DW$53, DW_AT_external
     248        .dwattr $C$DW$53, DW_AT_decl_file("../spiAPI.h")
     249        .dwattr $C$DW$53, DW_AT_decl_line(0x352)
     250        .dwattr $C$DW$53, DW_AT_decl_column(0x0e)
     251$C$DW$54        .dwtag  DW_TAG_formal_parameter
     252        .dwattr $C$DW$54, DW_AT_type(*$C$DW$T$82)
     253$C$DW$55        .dwtag  DW_TAG_formal_parameter
     254        .dwattr $C$DW$55, DW_AT_type(*$C$DW$T$82)
     255$C$DW$56        .dwtag  DW_TAG_formal_parameter
     256        .dwattr $C$DW$56, DW_AT_type(*$C$DW$T$82)
     257        .dwendtag $C$DW$53
     258
     259
     260$C$DW$57        .dwtag  DW_TAG_subprogram, DW_AT_name("SPI_TxFIFODisable")
     261        .dwattr $C$DW$57, DW_AT_TI_symbol_name("SPI_TxFIFODisable")
     262        .dwattr $C$DW$57, DW_AT_declaration
     263        .dwattr $C$DW$57, DW_AT_external
     264        .dwattr $C$DW$57, DW_AT_decl_file("../spiAPI.h")
     265        .dwattr $C$DW$57, DW_AT_decl_line(0x355)
     266        .dwattr $C$DW$57, DW_AT_decl_column(0x0e)
     267$C$DW$58        .dwtag  DW_TAG_formal_parameter
     268        .dwattr $C$DW$58, DW_AT_type(*$C$DW$T$82)
     269$C$DW$59        .dwtag  DW_TAG_formal_parameter
     270        .dwattr $C$DW$59, DW_AT_type(*$C$DW$T$82)
     271        .dwendtag $C$DW$57
     272
     273
     274$C$DW$60        .dwtag  DW_TAG_subprogram, DW_AT_name("SPI_WordCountSet")
     275        .dwattr $C$DW$60, DW_AT_TI_symbol_name("SPI_WordCountSet")
PRU Assembler Unix v2.1.2 Wed Sep  7 12:11:05 2016

Tools Copyright (c) 2012-2015 Texas Instruments Incorporated
mcp3202.asm                                                          PAGE    6

     276        .dwattr $C$DW$60, DW_AT_declaration
     277        .dwattr $C$DW$60, DW_AT_external
     278        .dwattr $C$DW$60, DW_AT_decl_file("../spiAPI.h")
     279        .dwattr $C$DW$60, DW_AT_decl_line(0x356)
     280        .dwattr $C$DW$60, DW_AT_decl_column(0x0e)
     281$C$DW$61        .dwtag  DW_TAG_formal_parameter
     282        .dwattr $C$DW$61, DW_AT_type(*$C$DW$T$82)
     283$C$DW$62        .dwtag  DW_TAG_formal_parameter
     284        .dwattr $C$DW$62, DW_AT_type(*$C$DW$T$9)
     285        .dwendtag $C$DW$60
     286
     287
     288$C$DW$63        .dwtag  DW_TAG_subprogram, DW_AT_name("SPI_WordLengthSet")
     289        .dwattr $C$DW$63, DW_AT_TI_symbol_name("SPI_WordLengthSet")
     290        .dwattr $C$DW$63, DW_AT_declaration
     291        .dwattr $C$DW$63, DW_AT_external
     292        .dwattr $C$DW$63, DW_AT_decl_file("../spiAPI.h")
     293        .dwattr $C$DW$63, DW_AT_decl_line(0x357)
     294        .dwattr $C$DW$63, DW_AT_decl_column(0x0e)
     295$C$DW$64        .dwtag  DW_TAG_formal_parameter
     296        .dwattr $C$DW$64, DW_AT_type(*$C$DW$T$82)
     297$C$DW$65        .dwtag  DW_TAG_formal_parameter
     298        .dwattr $C$DW$65, DW_AT_type(*$C$DW$T$82)
     299$C$DW$66        .dwtag  DW_TAG_formal_parameter
     300        .dwattr $C$DW$66, DW_AT_type(*$C$DW$T$82)
     301        .dwendtag $C$DW$63
     302
     303        .global ||pru_intc_map||
     304        .common ||pru_intc_map||,0,1
     305$C$DW$67        .dwtag  DW_TAG_variable, DW_AT_name("pru_intc_map")
     306        .dwattr $C$DW$67, DW_AT_TI_symbol_name("pru_intc_map")
     307        .dwattr $C$DW$67, DW_AT_location[DW_OP_addr ||pru_intc_map||]
     308        .dwattr $C$DW$67, DW_AT_type(*$C$DW$T$522)
     309        .dwattr $C$DW$67, DW_AT_external
     310        .dwattr $C$DW$67, DW_AT_decl_file("../resource_table.h")
     311        .dwattr $C$DW$67, DW_AT_decl_line(0x45)
     312        .dwattr $C$DW$67, DW_AT_decl_column(0x0f)
     313        .global ||pru_remoteproc_ResourceTable||
     314 00000000                         .sect   ".resource_table:retain", RW
     315        .retain
     316        .align  1
     317        .elfsym ||pru_remoteproc_ResourceTable||,SYM_SIZE(52)
     318 00000000                 ||pru_remoteproc_ResourceTable||:
     319 00000000 00000000000001          .bits   1,32                    ; pru_remoteproc_ResourceTable.base.ver @ 0
     320 00000004 00000000000000          .bits   0,32                    ; pru_remoteproc_ResourceTable.base.num @ 32
     321 00000008 00000000000000          .bits   0,32                    ; pru_remoteproc_ResourceTable.base.reserved[0] @ 64
     322 0000000c 00000000000000          .bits   0,32                    ; pru_remoteproc_ResourceTable.base.reserved[1] @ 96
     323 00000010 00000000000000          .bits   0,32                    ; pru_remoteproc_ResourceTable.offset[0] @ 128
     324 00000014                         .space  32
     325
     326$C$DW$68        .dwtag  DW_TAG_variable, DW_AT_name("pru_remoteproc_ResourceTable")
     327        .dwattr $C$DW$68, DW_AT_TI_symbol_name("pru_remoteproc_ResourceTable")
     328        .dwattr $C$DW$68, DW_AT_location[DW_OP_addr ||pru_remoteproc_ResourceTable||]
     329        .dwattr $C$DW$68, DW_AT_type(*$C$DW$T$477)
     330        .dwattr $C$DW$68, DW_AT_external
PRU Assembler Unix v2.1.2 Wed Sep  7 12:11:05 2016

Tools Copyright (c) 2012-2015 Texas Instruments Incorporated
mcp3202.asm                                                          PAGE    7

     331        .dwattr $C$DW$68, DW_AT_decl_file("../resource_table.h")
     332        .dwattr $C$DW$68, DW_AT_decl_line(0x52)
     333        .dwattr $C$DW$68, DW_AT_decl_column(0x1a)
     334        .weak   ||CT_DDR||
     335 00000000                 ||CT_DDR||:     .usect  ".creg.DDR.noload.near",4,1
     336$C$DW$69        .dwtag  DW_TAG_variable, DW_AT_name("CT_DDR")
     337        .dwattr $C$DW$69, DW_AT_TI_symbol_name("CT_DDR")
     338        .dwattr $C$DW$69, DW_AT_location[DW_OP_addr ||CT_DDR||]
     339        .dwattr $C$DW$69, DW_AT_type(*$C$DW$T$183)
     340        .dwattr $C$DW$69, DW_AT_external
     341        .dwattr $C$DW$69, DW_AT_decl_file("../mcp3202.c")
     342        .dwattr $C$DW$69, DW_AT_decl_line(0x48)
     343        .dwattr $C$DW$69, DW_AT_decl_column(0x19)
     344        .weak   ||CT_INTC||
     345 00000000                 ||CT_INTC||:    .usect  ".creg.PRU_INTC.noload.far",5380,1
     346$C$DW$70        .dwtag  DW_TAG_variable, DW_AT_name("CT_INTC")
     347        .dwattr $C$DW$70, DW_AT_TI_symbol_name("CT_INTC")
     348        .dwattr $C$DW$70, DW_AT_location[DW_OP_addr ||CT_INTC||]
     349        .dwattr $C$DW$70, DW_AT_type(*$C$DW$T$480)
     350        .dwattr $C$DW$70, DW_AT_external
     351        .dwattr $C$DW$70, DW_AT_decl_file("../mcp3202.c")
     352        .dwattr $C$DW$70, DW_AT_decl_line(0x49)
     353        .dwattr $C$DW$70, DW_AT_decl_column(0x18)
     354        .weak   ||CT_CFG||
     355 00000000                 ||CT_CFG||:     .usect  ".creg.PRU_CFG.noload.far",68,1
     356$C$DW$71        .dwtag  DW_TAG_variable, DW_AT_name("CT_CFG")
     357        .dwattr $C$DW$71, DW_AT_TI_symbol_name("CT_CFG")
     358        .dwattr $C$DW$71, DW_AT_location[DW_OP_addr ||CT_CFG||]
     359        .dwattr $C$DW$71, DW_AT_type(*$C$DW$T$482)
     360        .dwattr $C$DW$71, DW_AT_external
     361        .dwattr $C$DW$71, DW_AT_decl_file("../mcp3202.c")
     362        .dwattr $C$DW$71, DW_AT_decl_line(0x4a)
     363        .dwattr $C$DW$71, DW_AT_decl_column(0x17)
     364        .global ||perCfg||
     365 00000000                         .data
     366        .align  1
     367        .elfsym ||perCfg||,SYM_SIZE(4)
     368 00000000                 ||perCfg||:
     369 00000000 00000044E00000          .bits   1155530752,32                   ; perCfg @ 0
     370
     371$C$DW$72        .dwtag  DW_TAG_variable, DW_AT_name("perCfg")
     372        .dwattr $C$DW$72, DW_AT_TI_symbol_name("perCfg")
     373        .dwattr $C$DW$72, DW_AT_location[DW_OP_addr ||perCfg||]
     374        .dwattr $C$DW$72, DW_AT_type(*$C$DW$T$485)
     375        .dwattr $C$DW$72, DW_AT_external
     376        .dwattr $C$DW$72, DW_AT_decl_file("../mcp3202.c")
     377        .dwattr $C$DW$72, DW_AT_decl_line(0x4b)
     378        .dwattr $C$DW$72, DW_AT_decl_column(0x16)
     379        .global ||ctrlData||
     380 00000000                 ||ctrlData||:   .usect  ".creg.PRU_SHAREDMEM.near",1070,1
     381$C$DW$73        .dwtag  DW_TAG_variable, DW_AT_name("ctrlData")
     382        .dwattr $C$DW$73, DW_AT_TI_symbol_name("ctrlData")
     383        .dwattr $C$DW$73, DW_AT_location[DW_OP_addr ||ctrlData||]
     384        .dwattr $C$DW$73, DW_AT_type(*$C$DW$T$490)
     385        .dwattr $C$DW$73, DW_AT_external
PRU Assembler Unix v2.1.2 Wed Sep  7 12:11:05 2016

Tools Copyright (c) 2012-2015 Texas Instruments Incorporated
mcp3202.asm                                                          PAGE    8

     386        .dwattr $C$DW$73, DW_AT_decl_file("../mcp3202.c")
     387        .dwattr $C$DW$73, DW_AT_decl_line(0x4d)
     388        .dwattr $C$DW$73, DW_AT_decl_column(0x24)
     389;       /opt/ti/ccsv6/tools/compiler/ti-cgt-pru_2.1.2/bin/acpiapru -@/tmp/25451UOYDYT 
     390 00000000                         .sect   ".text:main"
     391        .clink
     392        .global ||main||
     393
     394$C$DW$74        .dwtag  DW_TAG_subprogram, DW_AT_name("main")
     395        .dwattr $C$DW$74, DW_AT_low_pc(||main||)
     396        .dwattr $C$DW$74, DW_AT_high_pc(0x00)
     397        .dwattr $C$DW$74, DW_AT_TI_symbol_name("main")
     398        .dwattr $C$DW$74, DW_AT_external
     399        .dwattr $C$DW$74, DW_AT_type(*$C$DW$T$10)
     400        .dwattr $C$DW$74, DW_AT_TI_begin_file("../mcp3202.c")
     401        .dwattr $C$DW$74, DW_AT_TI_begin_line(0x58)
     402        .dwattr $C$DW$74, DW_AT_TI_begin_column(0x05)
     403        .dwattr $C$DW$74, DW_AT_decl_file("../mcp3202.c")
     404        .dwattr $C$DW$74, DW_AT_decl_line(0x58)
     405        .dwattr $C$DW$74, DW_AT_decl_column(0x05)
     406        .dwattr $C$DW$74, DW_AT_TI_max_frame_size(0x06)
     407        .dwpsn  file "../mcp3202.c",line 89,column 1,is_stmt,address ||main||,isa 0
     408
     409        .dwfde $C$DW$CIE, ||main||
     410
     411;***************************************************************
     412;* FNAME: main                          FR SIZE:   6           *
     413;*                                                             *
     414;* FUNCTION ENVIRONMENT                                        *
     415;*                                                             *
     416;* FUNCTION PROPERTIES                                         *
     417;*                            4 Auto,  2 SOE     *
     418;***************************************************************
     419
     420 00000000                 ||main||:
     421;* --------------------------------------------------------------------------*
     422        .dwcfi  cfa_offset, 0
     423 00000000 0000000506E2E2          SUB       r2, r2, 0x06          ; [ALU_PRU] 
     424        .dwcfi  cfa_offset, 6
     425 00000004 000000E10402C3          SBBO      &r3.b2, r2, 4, 2      ; [ALU_PRU] 
     426        .dwcfi  save_reg_to_mem, 14, -2
     427        .dwcfi  save_reg_to_mem, 15, -1
     428$C$DW$75        .dwtag  DW_TAG_variable, DW_AT_name("ch1")
     429        .dwattr $C$DW$75, DW_AT_TI_symbol_name("ch1")
     430        .dwattr $C$DW$75, DW_AT_type(*$C$DW$T$167)
     431        .dwattr $C$DW$75, DW_AT_location[DW_OP_breg8 0]
     432 00000008 00000010000000          NOP                             ; [ALU_PRU] 
     433$C$DW$76        .dwtag  DW_TAG_variable, DW_AT_name("ch2")
     434        .dwattr $C$DW$76, DW_AT_TI_symbol_name("ch2")
     435        .dwattr $C$DW$76, DW_AT_type(*$C$DW$T$167)
     436        .dwattr $C$DW$76, DW_AT_location[DW_OP_breg8 2]
     437 0000000c 00000010000000          NOP                             ; [ALU_PRU] 
     438        .dwpsn  file "../mcp3202.c",line 90,column 15,is_stmt,isa 0
     439 00000010 00000024000080          LDI       r0.w0, 0x00           ; [ALU_PRU] |90| 
     440 00000014 000000E1000280          SBBO      &r0.w0, r2, 0, 2      ; [ALU_PRU] |90| ch1
PRU Assembler Unix v2.1.2 Wed Sep  7 12:11:05 2016

Tools Copyright (c) 2012-2015 Texas Instruments Incorporated
mcp3202.asm                                                          PAGE    9

     441        .dwpsn  file "../mcp3202.c",line 91,column 15,is_stmt,isa 0
     442 00000018 000000E1020280          SBBO      &r0.w0, r2, 2, 2      ; [ALU_PRU] |91| ch2
     443        .dwpsn  file "../mcp3202.c",line 97,column 2,is_stmt,isa 0
     444 0000001c 000480240000C0!         LDI32     r0, ||CT_CFG||+4      ; [ALU_PRU] |97| CT_CFG
         00000023 00000021004024 
     445 00000024 000000F1002081          LBBO      &r1, r0, 0, 4         ; [ALU_PRU] |97| 
     446 00000028 0000001D04E1E1          CLR       r1, r1, 0x00000004    ; [ALU_PRU] |97| 
     447 0000002c 000000E1002081          SBBO      &r1, r0, 0, 4         ; [ALU_PRU] |97| 
     448        .dwpsn  file "../mcp3202.c",line 101,column 2,is_stmt,isa 0
     449 00000030 00008124FFFFC1          LDI32     r1, 0xffff0000        ; [ALU_PRU] |101| 
         00000037 00000000004024 
     450 00000038 202880240002C0          LDI32     r0, 0x00022028        ; [ALU_PRU] |101| 
         0000003f 00000000004024 
     451 00000040 000000F100208E          LBBO      &r14, r0, 0, 4        ; [ALU_PRU] |101| 
     452 00000044 00000010E1EEE1          AND       r1, r14, r1           ; [ALU_PRU] |101| 
     453 00000048 0000001F08E1E1          SET       r1, r1, 0x00000008    ; [ALU_PRU] |101| 
     454 0000004c 000000E1002081          SBBO      &r1, r0, 0, 4         ; [ALU_PRU] |101| 
     455        .dwpsn  file "../mcp3202.c",line 105,column 5,is_stmt,isa 0
     456$C$DW$77        .dwtag  DW_TAG_TI_branch
     457        .dwattr $C$DW$77, DW_AT_low_pc(0x00)
     458        .dwattr $C$DW$77, DW_AT_name("init_data")
     459        .dwattr $C$DW$77, DW_AT_TI_call
     460 00000050 000000230000C3!         JAL       r3.w2, ||init_data||  ; [ALU_PRU] |105| init_data
     461        .dwpsn  file "../mcp3202.c",line 109,column 2,is_stmt,isa 0
     462$C$DW$78        .dwtag  DW_TAG_TI_branch
     463        .dwattr $C$DW$78, DW_AT_low_pc(0x00)
     464        .dwattr $C$DW$78, DW_AT_name("init_spi")
     465        .dwattr $C$DW$78, DW_AT_TI_call
     466 00000054 000000230000C3!         JAL       r3.w2, ||init_spi||   ; [ALU_PRU] |109| init_spi
     467        .dwpsn  file "../mcp3202.c",line 111,column 2,is_stmt,isa 0
     468 00000058 FFEE8124D0C0C1          LDI32     r1, 0xd0c0ffee        ; [ALU_PRU] |111| 
         0000005f 00000000004024 
     469 00000060 000080240000C0!         LDI32     r0, ||ctrlData||      ; [ALU_PRU] |111| ctrlData
         00000067 00000021004024 
     470 00000068 000000E1000001          SBBO      &r1.b0, r0, 0, 1      ; [ALU_PRU] |111| 
     471 0000006c 0000000B08E1EE          LSR       r14, r1, 0x08         ; [ALU_PRU] |111| 
     472 00000070 000000E101000E          SBBO      &r14.b0, r0, 1, 1     ; [ALU_PRU] |111| 
     473 00000074 0000000B10E1EE          LSR       r14, r1, 0x10         ; [ALU_PRU] |111| 
     474 00000078 000000E102000E          SBBO      &r14.b0, r0, 2, 1     ; [ALU_PRU] |111| 
     475 0000007c 0000000B18E1E1          LSR       r1, r1, 0x18          ; [ALU_PRU] |111| 
     476 00000080 000000E1030001          SBBO      &r1.b0, r0, 3, 1      ; [ALU_PRU] |111| 
     477        .dwpsn  file "../mcp3202.c",line 113,column 9,is_stmt,isa 0
     478;* --------------------------------------------------------------------------*
     479;*   BEGIN LOOP ||$C$L1||
     480;*
     481;*   Loop source line                : 113
     482;*   Loop closing brace source line  : 136
     483;*   Known Minimum Trip Count        : 1
     484;*   Known Maximum Trip Count        : 4294967295
     485;*   Known Max Trip Count Factor     : 1
     486;* --------------------------------------------------------------------------*
     487 00000084                 ||$C$L1||:    
     488        .dwpsn  file "../mcp3202.c",line 115,column 3,is_stmt,isa 0
     489 00000084 000480240000C0!         LDI32     r0, ||ctrlData||+4    ; [ALU_PRU] |115| ctrlData
         0000008b 00000021004024 
PRU Assembler Unix v2.1.2 Wed Sep  7 12:11:05 2016

Tools Copyright (c) 2012-2015 Texas Instruments Incorporated
mcp3202.asm                                                          PAGE   10

     490 0000008c 000000F1010001          LBBO      &r1.b0, r0, 1, 1      ; [ALU_PRU] |115| 
     491 00000090 000000090801E1          LSL       r1, r1.b0, 0x08       ; [ALU_PRU] |115| 
     492 00000094 000000F1000000          LBBO      &r0.b0, r0, 0, 1      ; [ALU_PRU] |115| 
     493 00000098 00000012E100E0          OR        r0, r0.b0, r1         ; [ALU_PRU] |115| 
     494 0000009c 000000570080FA          QBEQ      ||$C$L1||, r0.w0, 0x00 ; [ALU_PRU] |115| 
     495;* --------------------------------------------------------------------------*
     496        .dwpsn  file "../mcp3202.c",line 117,column 4,is_stmt,isa 0
     497 000000a0 000E80240000C0!         LDI32     r0, ||ctrlData||+14   ; [ALU_PRU] |117| ctrlData
         000000a7 00000021004024 
     498 000000a8 000000F1010001          LBBO      &r1.b0, r0, 1, 1      ; [ALU_PRU] |117| 
     499 000000ac 000000090801E1          LSL       r1, r1.b0, 0x08       ; [ALU_PRU] |117| 
     500 000000b0 000000F1000000          LBBO      &r0.b0, r0, 0, 1      ; [ALU_PRU] |117| 
     501 000000b4 00000012E100E0          OR        r0, r0.b0, r1         ; [ALU_PRU] |117| 
     502 000000b8 0000006901800A          QBNE      ||$C$L2||, r0.w0, 0x01 ; [ALU_PRU] |117| 
     503;* --------------------------------------------------------------------------*
     504        .dwpsn  file "../mcp3202.c",line 122,column 5,is_stmt,isa 0
     505 000000bc 0000002400008E          LDI       r14.w0, 0x0000        ; [ALU_PRU] |122| 
     506 000000c0 000E80240000C0!         LDI32     r0, ||ctrlData||+14   ; [ALU_PRU] |122| ctrlData
         000000c7 00000021004024 
     507 000000c8 000000108E8EE1          MOV       r1, r14.w0            ; [ALU_PRU] |122| 
     508 000000cc 000000E1000001          SBBO      &r1.b0, r0, 0, 1      ; [ALU_PRU] |122| 
     509 000000d0 0000000B088EE1          LSR       r1, r14.w0, 0x08      ; [ALU_PRU] |122| 
     510 000000d4 000000E1010001          SBBO      &r1.b0, r0, 1, 1      ; [ALU_PRU] |122| 
     511        .dwpsn  file "../mcp3202.c",line 126,column 5,is_stmt,isa 0
     512$C$DW$79        .dwtag  DW_TAG_TI_branch
     513        .dwattr $C$DW$79, DW_AT_low_pc(0x00)
     514        .dwattr $C$DW$79, DW_AT_name("init_spi")
     515        .dwattr $C$DW$79, DW_AT_TI_call
     516 000000d8 000000230000C3!         JAL       r3.w2, ||init_spi||   ; [ALU_PRU] |126| init_spi
     517        .dwpsn  file "../mcp3202.c",line 127,column 4,is_stmt,isa 0
     518 000000dc 00000021000000!         JMP       ||$C$L1||             ; [ALU_PRU] |127| 
     519;* --------------------------------------------------------------------------*
     520 000000e0                 ||$C$L2||:    
     521        .dwpsn  file "../mcp3202.c",line 130,column 5,is_stmt,isa 0
     522 000000e0 000680240000C0!         LDI32     r0, ||ctrlData||+6    ; [ALU_PRU] |130| ctrlData
         000000e7 00000021004024 
     523 000000e8 000000F1010001          LBBO      &r1.b0, r0, 1, 1      ; [ALU_PRU] |130| 
     524 000000ec 000000090801E1          LSL       r1, r1.b0, 0x08       ; [ALU_PRU] |130| 
     525 000000f0 000000F1000000          LBBO      &r0.b0, r0, 0, 1      ; [ALU_PRU] |130| 
     526 000000f4 00000012E100EE          OR        r14, r0.b0, r1        ; [ALU_PRU] |130| 
     527$C$DW$80        .dwtag  DW_TAG_TI_branch
     528        .dwattr $C$DW$80, DW_AT_low_pc(0x00)
     529        .dwattr $C$DW$80, DW_AT_name("get_value")
     530        .dwattr $C$DW$80, DW_AT_TI_call
     531 000000f8 000000230000C3!         JAL       r3.w2, ||get_value||  ; [ALU_PRU] |130| get_value
     532 000000fc 000000E100028E          SBBO      &r14.w0, r2, 0, 2     ; [ALU_PRU] |130| ch1
     533        .dwpsn  file "../mcp3202.c",line 131,column 5,is_stmt,isa 0
     534 00000100 000880240000C0!         LDI32     r0, ||ctrlData||+8    ; [ALU_PRU] |131| ctrlData
         00000107 00000021004024 
     535 00000108 000000F1010001          LBBO      &r1.b0, r0, 1, 1      ; [ALU_PRU] |131| 
     536 0000010c 000000090801E1          LSL       r1, r1.b0, 0x08       ; [ALU_PRU] |131| 
     537 00000110 000000F1000000          LBBO      &r0.b0, r0, 0, 1      ; [ALU_PRU] |131| 
     538 00000114 00000012E100EE          OR        r14, r0.b0, r1        ; [ALU_PRU] |131| 
     539$C$DW$81        .dwtag  DW_TAG_TI_branch
     540        .dwattr $C$DW$81, DW_AT_low_pc(0x00)
PRU Assembler Unix v2.1.2 Wed Sep  7 12:11:05 2016

Tools Copyright (c) 2012-2015 Texas Instruments Incorporated
mcp3202.asm                                                          PAGE   11

     541        .dwattr $C$DW$81, DW_AT_name("get_value")
     542        .dwattr $C$DW$81, DW_AT_TI_call
     543 00000118 000000230000C3!         JAL       r3.w2, ||get_value||  ; [ALU_PRU] |131| get_value
     544 0000011c 000000E102028E          SBBO      &r14.w0, r2, 2, 2     ; [ALU_PRU] |131| ch2
     545        .dwpsn  file "../mcp3202.c",line 133,column 5,is_stmt,isa 0
     546 00000120 000000F100028E          LBBO      &r14.w0, r2, 0, 2     ; [ALU_PRU] |133| ch1
     547 00000124 000000F10202CE          LBBO      &r14.w2, r2, 2, 2     ; [ALU_PRU] |133| ch2
     548$C$DW$82        .dwtag  DW_TAG_TI_branch
     549        .dwattr $C$DW$82, DW_AT_low_pc(0x00)
     550        .dwattr $C$DW$82, DW_AT_name("sampleAverage")
     551        .dwattr $C$DW$82, DW_AT_TI_call
     552 00000128 000000230000C3!         JAL       r3.w2, ||sampleAverage|| ; [ALU_PRU] |133| sampleAverage
     553        .dwpsn  file "../mcp3202.c",line 113,column 9,is_stmt,isa 0
     554 0000012c 00000021000000!         JMP       ||$C$L1||             ; [ALU_PRU] |113| 
     555;* --------------------------------------------------------------------------*
     556        .dwattr $C$DW$74, DW_AT_TI_end_file("../mcp3202.c")
     557        .dwattr $C$DW$74, DW_AT_TI_end_line(0x8f)
     558        .dwattr $C$DW$74, DW_AT_TI_end_column(0x01)
     559        .dwendentry
     560        .dwendtag $C$DW$74
     561
     562 00000000                         .sect   ".text:get_value"
     563        .clink
     564        .global ||get_value||
     565
     566$C$DW$83        .dwtag  DW_TAG_subprogram, DW_AT_name("get_value")
     567        .dwattr $C$DW$83, DW_AT_low_pc(||get_value||)
     568        .dwattr $C$DW$83, DW_AT_high_pc(0x00)
     569        .dwattr $C$DW$83, DW_AT_TI_symbol_name("get_value")
     570        .dwattr $C$DW$83, DW_AT_external
     571        .dwattr $C$DW$83, DW_AT_type(*$C$DW$T$167)
     572        .dwattr $C$DW$83, DW_AT_TI_begin_file("../mcp3202.c")
     573        .dwattr $C$DW$83, DW_AT_TI_begin_line(0x9d)
     574        .dwattr $C$DW$83, DW_AT_TI_begin_column(0x0a)
     575        .dwattr $C$DW$83, DW_AT_decl_file("../mcp3202.c")
     576        .dwattr $C$DW$83, DW_AT_decl_line(0x9d)
     577        .dwattr $C$DW$83, DW_AT_decl_column(0x0a)
     578        .dwattr $C$DW$83, DW_AT_TI_max_frame_size(0x15)
     579        .dwpsn  file "../mcp3202.c",line 158,column 1,is_stmt,address ||get_value||,isa 0
     580
     581        .dwfde $C$DW$CIE, ||get_value||
     582$C$DW$84        .dwtag  DW_TAG_formal_parameter, DW_AT_name("mosiout")
     583        .dwattr $C$DW$84, DW_AT_TI_symbol_name("mosiout")
     584        .dwattr $C$DW$84, DW_AT_type(*$C$DW$T$470)
     585        .dwattr $C$DW$84, DW_AT_location[DW_OP_regx 0x38]
     586
     587;***************************************************************
     588;* FNAME: get_value                     FR SIZE:  21           *
     589;*                                                             *
     590;* FUNCTION ENVIRONMENT                                        *
     591;*                                                             *
     592;* FUNCTION PROPERTIES                                         *
     593;*                           15 Auto,  6 SOE     *
     594;***************************************************************
     595
PRU Assembler Unix v2.1.2 Wed Sep  7 12:11:05 2016

Tools Copyright (c) 2012-2015 Texas Instruments Incorporated
mcp3202.asm                                                          PAGE   12

     596 00000000                 ||get_value||:
     597;* --------------------------------------------------------------------------*
     598        .dwcfi  cfa_offset, 0
     599 00000000 0000000515E2E2          SUB       r2, r2, 0x15          ; [ALU_PRU] 
     600        .dwcfi  cfa_offset, 21
     601 00000004 000000E10F42C3          SBBO      &r3.b2, r2, 15, 6     ; [ALU_PRU] 
     602        .dwcfi  save_reg_to_mem, 14, -6
     603        .dwcfi  save_reg_to_mem, 15, -5
     604        .dwcfi  save_reg_to_mem, 16, -4
     605        .dwcfi  save_reg_to_mem, 17, -3
     606        .dwcfi  save_reg_to_mem, 18, -2
     607        .dwcfi  save_reg_to_mem, 19, -1
     608$C$DW$85        .dwtag  DW_TAG_variable, DW_AT_name("mosiout")
     609        .dwattr $C$DW$85, DW_AT_TI_symbol_name("mosiout")
     610        .dwattr $C$DW$85, DW_AT_type(*$C$DW$T$470)
     611        .dwattr $C$DW$85, DW_AT_location[DW_OP_breg8 0]
     612 00000008 00000010000000          NOP                             ; [ALU_PRU] 
     613$C$DW$86        .dwtag  DW_TAG_variable, DW_AT_name("outVal")
     614        .dwattr $C$DW$86, DW_AT_TI_symbol_name("outVal")
     615        .dwattr $C$DW$86, DW_AT_type(*$C$DW$T$82)
     616        .dwattr $C$DW$86, DW_AT_location[DW_OP_breg8 1]
     617 0000000c 00000010000000          NOP                             ; [ALU_PRU] 
     618$C$DW$87        .dwtag  DW_TAG_variable, DW_AT_name("inVal")
     619        .dwattr $C$DW$87, DW_AT_TI_symbol_name("inVal")
     620        .dwattr $C$DW$87, DW_AT_type(*$C$DW$T$82)
     621        .dwattr $C$DW$87, DW_AT_location[DW_OP_breg8 5]
     622 00000010 00000010000000          NOP                             ; [ALU_PRU] 
     623$C$DW$88        .dwtag  DW_TAG_variable, DW_AT_name("spiReg")
     624        .dwattr $C$DW$88, DW_AT_TI_symbol_name("spiReg")
     625        .dwattr $C$DW$88, DW_AT_type(*$C$DW$T$82)
     626        .dwattr $C$DW$88, DW_AT_location[DW_OP_breg8 9]
     627 00000014 00000010000000          NOP                             ; [ALU_PRU] 
     628$C$DW$89        .dwtag  DW_TAG_variable, DW_AT_name("retVal")
     629        .dwattr $C$DW$89, DW_AT_TI_symbol_name("retVal")
     630        .dwattr $C$DW$89, DW_AT_type(*$C$DW$T$167)
     631        .dwattr $C$DW$89, DW_AT_location[DW_OP_breg8 13]
     632 00000018 00000010000000          NOP                             ; [ALU_PRU] 
     633 0000001c 000000E100020E          SBBO      &r14.b0, r2, 0, 1     ; [ALU_PRU] |158| mosiout
     634        .dwpsn  file "../mcp3202.c",line 159,column 18,is_stmt,isa 0
     635 00000020 000000240000E0          LDI       r0, 0x0000            ; [ALU_PRU] |159| 
     636 00000024 000000E1012280          SBBO      &r0, r2, 1, 4         ; [ALU_PRU] |159| outVal
     637        .dwpsn  file "../mcp3202.c",line 160,column 17,is_stmt,isa 0
     638 00000028 000000E1052280          SBBO      &r0, r2, 5, 4         ; [ALU_PRU] |160| inVal
     639        .dwpsn  file "../mcp3202.c",line 161,column 18,is_stmt,isa 0
     640 0000002c 000000E1092280          SBBO      &r0, r2, 9, 4         ; [ALU_PRU] |161| spiReg
     641        .dwpsn  file "../mcp3202.c",line 162,column 18,is_stmt,isa 0
     642 00000030 00000024000080          LDI       r0.w0, 0x00           ; [ALU_PRU] |162| 
     643 00000034 000000E10D0280          SBBO      &r0.w0, r2, 13, 2     ; [ALU_PRU] |162| retVal
     644        .dwpsn  file "../mcp3202.c",line 164,column 2,is_stmt,isa 0
     645 00000038 001880240000C0!         LDI32     r0, ||ctrlData||+24   ; [ALU_PRU] |164| ctrlData
         0000003f 00000021004024 
     646 00000040 000000F1010001          LBBO      &r1.b0, r0, 1, 1      ; [ALU_PRU] |164| 
     647 00000044 000000090801E1          LSL       r1, r1.b0, 0x08       ; [ALU_PRU] |164| 
     648 00000048 000000F1000000          LBBO      &r0.b0, r0, 0, 1      ; [ALU_PRU] |164| 
     649 0000004c 00000012E100E0          OR        r0, r0.b0, r1         ; [ALU_PRU] |164| 
PRU Assembler Unix v2.1.2 Wed Sep  7 12:11:05 2016

Tools Copyright (c) 2012-2015 Texas Instruments Incorporated
mcp3202.asm                                                          PAGE   13

     650 00000050 00000069008004          QBNE      ||$C$L3||, r0.w0, 0x00 ; [ALU_PRU] |164| 
     651;* --------------------------------------------------------------------------*
     652 00000054 000080244803C0          LDI32     r0, 0x48030000        ; [ALU_PRU] |164| 
         0000005b 00000000004024 
     653 0000005c 00000021000000!         JMP       ||$C$L4||             ; [ALU_PRU] |164| 
     654;* --------------------------------------------------------------------------*
     655 00000060                 ||$C$L3||:    
     656 00000060 00008024481AC0          LDI32     r0, 0x481a0000        ; [ALU_PRU] |164| 
         00000067 00000000004024 
     657;* --------------------------------------------------------------------------*
     658 00000068                 ||$C$L4||:    
     659 00000068 000000E1092280          SBBO      &r0, r2, 9, 4         ; [ALU_PRU] |164| spiReg
     660        .dwpsn  file "../mcp3202.c",line 169,column 2,is_stmt,isa 0
     661 0000006c 001A80240000C0!         LDI32     r0, ||ctrlData||+26   ; [ALU_PRU] |169| ctrlData
         00000073 00000021004024 
     662 00000074 000000240001EF          LDI       r15, 0x0001           ; [ALU_PRU] |169| 
     663 00000078 000000F109228E          LBBO      &r14, r2, 9, 4        ; [ALU_PRU] |169| spiReg
     664 0000007c 000000F1010001          LBBO      &r1.b0, r0, 1, 1      ; [ALU_PRU] |169| 
     665 00000080 000000090801E1          LSL       r1, r1.b0, 0x08       ; [ALU_PRU] |169| 
     666 00000084 000000F1000000          LBBO      &r0.b0, r0, 0, 1      ; [ALU_PRU] |169| 
     667 00000088 00000012E100E0          OR        r0, r0.b0, r1         ; [ALU_PRU] |169| 
     668 0000008c 000000108080F0          MOV       r16, r0.w0            ; [ALU_PRU] |169| 
     669$C$DW$90        .dwtag  DW_TAG_TI_branch
     670        .dwattr $C$DW$90, DW_AT_low_pc(0x00)
     671        .dwattr $C$DW$90, DW_AT_name("SPI_ChannelSet")
     672        .dwattr $C$DW$90, DW_AT_TI_call
     673 00000090 000000230000C3!         JAL       r3.w2, ||SPI_ChannelSet|| ; [ALU_PRU] |169| SPI_ChannelSet
     674        .dwpsn  file "../mcp3202.c",line 173,column 2,is_stmt,isa 0
     675 00000094 000000F1000200          LBBO      &r0.b0, r2, 0, 1      ; [ALU_PRU] |173| mosiout
     676 00000098 000000100000E0          MOV       r0, r0.b0             ; [ALU_PRU] |173| 
     677 0000009c 000000E1012280          SBBO      &r0, r2, 1, 4         ; [ALU_PRU] |173| outVal
     678        .dwpsn  file "../mcp3202.c",line 174,column 2,is_stmt,isa 0
     679 000000a0 000A80240000C0!         LDI32     r0, ||ctrlData||+10   ; [ALU_PRU] |174| ctrlData
         000000a7 00000021004024 
     680 000000a8 000000F1010001          LBBO      &r1.b0, r0, 1, 1      ; [ALU_PRU] |174| 
     681 000000ac 000000090801E1          LSL       r1, r1.b0, 0x08       ; [ALU_PRU] |174| 
     682 000000b0 000000F1000000          LBBO      &r0.b0, r0, 0, 1      ; [ALU_PRU] |174| 
     683 000000b4 00000012E100E0          OR        r0, r0.b0, r1         ; [ALU_PRU] |174| 
     684 000000b8 0000000D200000          RSB       r0.b0, r0.b0, 0x20    ; [ALU_PRU] |174| 
     685 000000bc 000000100000E0          MOV       r0, r0.b0             ; [ALU_PRU] |174| 
     686 000000c0 000000C907E002          QBBC      ||$C$L5||, r0, 0x07   ; [ALU_PRU] |174| 
     687;* --------------------------------------------------------------------------*
     688 000000c4 0000002EFF0120          FILL      &r0.b1, 3             ; [ALU_PRU] |174| 
     689;* --------------------------------------------------------------------------*
     690 000000c8                 ||$C$L5||:    
     691 000000c8 000000F1012281          LBBO      &r1, r2, 1, 4         ; [ALU_PRU] |174| outVal
     692 000000cc 00000008E0E1E0          LSL       r0, r1, r0            ; [ALU_PRU] |174| 
     693 000000d0 000000E1012280          SBBO      &r0, r2, 1, 4         ; [ALU_PRU] |174| outVal
     694        .dwpsn  file "../mcp3202.c",line 176,column 2,is_stmt,isa 0
     695 000000d4 000000F109228E          LBBO      &r14, r2, 9, 4        ; [ALU_PRU] |176| spiReg
     696 000000d8 000000F101228F          LBBO      &r15, r2, 1, 4        ; [ALU_PRU] |176| outVal
     697 000000dc 001A80240000C0!         LDI32     r0, ||ctrlData||+26   ; [ALU_PRU] |176| ctrlData
         000000e3 00000021004024 
     698 000000e4 000000F1010001          LBBO      &r1.b0, r0, 1, 1      ; [ALU_PRU] |176| 
     699 000000e8 000000090801E1          LSL       r1, r1.b0, 0x08       ; [ALU_PRU] |176| 
PRU Assembler Unix v2.1.2 Wed Sep  7 12:11:05 2016

Tools Copyright (c) 2012-2015 Texas Instruments Incorporated
mcp3202.asm                                                          PAGE   14

     700 000000ec 000000F1000000          LBBO      &r0.b0, r0, 0, 1      ; [ALU_PRU] |176| 
     701 000000f0 00000012E100E0          OR        r0, r0.b0, r1         ; [ALU_PRU] |176| 
     702 000000f4 000000108080F0          MOV       r16, r0.w0            ; [ALU_PRU] |176| 
     703$C$DW$91        .dwtag  DW_TAG_TI_branch
     704        .dwattr $C$DW$91, DW_AT_low_pc(0x00)
     705        .dwattr $C$DW$91, DW_AT_name("SPI_TransmitData")
     706        .dwattr $C$DW$91, DW_AT_TI_call
     707 000000f8 000000230000C3!         JAL       r3.w2, ||SPI_TransmitData|| ; [ALU_PRU] |176| SPI_TransmitData
     708        .dwpsn  file "../mcp3202.c",line 178,column 2,is_stmt,isa 0
     709 000000fc 001A84240000C4!         LDI32     r4, ||ctrlData||+26   ; [ALU_PRU] |178| ctrlData
         00000103 00000021004024 
     710;* --------------------------------------------------------------------------*
     711;*   BEGIN LOOP ||$C$L6||
     712;*
     713;*   Loop source line                : 178
     714;*   Loop closing brace source line  : 178
     715;*   Known Minimum Trip Count        : 1
     716;*   Known Maximum Trip Count        : 4294967295
     717;*   Known Max Trip Count Factor     : 1
     718;* --------------------------------------------------------------------------*
     719 00000104                 ||$C$L6||:    
     720        .dwpsn  file "../mcp3202.c",line 178,column 9,is_stmt,isa 0
     721 00000104 000000F1010400          LBBO      &r0.b0, r4, 1, 1      ; [ALU_PRU] |178| 
     722 00000108 000000F1000401          LBBO      &r1.b0, r4, 0, 1      ; [ALU_PRU] |178| 
     723 0000010c 000000F109228E          LBBO      &r14, r2, 9, 4        ; [ALU_PRU] |178| spiReg
     724 00000110 000000090800E0          LSL       r0, r0.b0, 0x08       ; [ALU_PRU] |178| 
     725 00000114 00000012E001E0          OR        r0, r1.b0, r0         ; [ALU_PRU] |178| 
     726 00000118 000000108080EF          MOV       r15, r0.w0            ; [ALU_PRU] |178| 
     727$C$DW$92        .dwtag  DW_TAG_TI_branch
     728        .dwattr $C$DW$92, DW_AT_low_pc(0x00)
     729        .dwattr $C$DW$92, DW_AT_name("Is_RxDataReady")
     730        .dwattr $C$DW$92, DW_AT_TI_call
     731 0000011c 000000230000C3!         JAL       r3.w2, ||Is_RxDataReady|| ; [ALU_PRU] |178| Is_RxDataReady
     732 00000120 0000005700EEF9          QBEQ      ||$C$L6||, r14, 0x00  ; [ALU_PRU] |178| 
     733;* --------------------------------------------------------------------------*
     734        .dwpsn  file "../mcp3202.c",line 180,column 2,is_stmt,isa 0
     735 00000124 001A80240000C0!         LDI32     r0, ||ctrlData||+26   ; [ALU_PRU] |180| ctrlData
         0000012b 00000021004024 
     736 0000012c 000000F109228E          LBBO      &r14, r2, 9, 4        ; [ALU_PRU] |180| spiReg
     737 00000130 000000F1010001          LBBO      &r1.b0, r0, 1, 1      ; [ALU_PRU] |180| 
     738 00000134 000000090801E1          LSL       r1, r1.b0, 0x08       ; [ALU_PRU] |180| 
     739 00000138 000000F1000000          LBBO      &r0.b0, r0, 0, 1      ; [ALU_PRU] |180| 
     740 0000013c 00000012E100E0          OR        r0, r0.b0, r1         ; [ALU_PRU] |180| 
     741 00000140 000000108080EF          MOV       r15, r0.w0            ; [ALU_PRU] |180| 
     742$C$DW$93        .dwtag  DW_TAG_TI_branch
     743        .dwattr $C$DW$93, DW_AT_low_pc(0x00)
     744        .dwattr $C$DW$93, DW_AT_name("SPI_ReceiveData")
     745        .dwattr $C$DW$93, DW_AT_TI_call
     746 00000144 000000230000C3!         JAL       r3.w2, ||SPI_ReceiveData|| ; [ALU_PRU] |180| SPI_ReceiveData
     747 00000148 000000E105228E          SBBO      &r14, r2, 5, 4        ; [ALU_PRU] |180| inVal
     748        .dwpsn  file "../mcp3202.c",line 184,column 2,is_stmt,isa 0
     749 0000014c 000000F1052280          LBBO      &r0, r2, 5, 4         ; [ALU_PRU] |184| inVal
     750 00000150 0000000905E0E0          LSL       r0, r0, 0x05          ; [ALU_PRU] |184| 
     751 00000154 000000E1052280          SBBO      &r0, r2, 5, 4         ; [ALU_PRU] |184| inVal
     752        .dwpsn  file "../mcp3202.c",line 185,column 2,is_stmt,isa 0
PRU Assembler Unix v2.1.2 Wed Sep  7 12:11:05 2016

Tools Copyright (c) 2012-2015 Texas Instruments Incorporated
mcp3202.asm                                                          PAGE   15

     753 00000158 0000000B13E0E0          LSR       r0, r0, 0x13          ; [ALU_PRU] |185| 
     754 0000015c 000000E1052280          SBBO      &r0, r2, 5, 4         ; [ALU_PRU] |185| inVal
     755        .dwpsn  file "../mcp3202.c",line 187,column 2,is_stmt,isa 0
     756 00000160 000000F1050280          LBBO      &r0.w0, r2, 5, 2      ; [ALU_PRU] |187| inVal
     757 00000164 000000E10D0280          SBBO      &r0.w0, r2, 13, 2     ; [ALU_PRU] |187| retVal
     758        .dwpsn  file "../mcp3202.c",line 191,column 2,is_stmt,isa 0
     759 00000168 001A80240000C0!         LDI32     r0, ||ctrlData||+26   ; [ALU_PRU] |191| ctrlData
         0000016f 00000021004024 
     760 00000170 0000002EFF818F          ZERO      &r15, 4               ; [ALU_PRU] |191| 
     761 00000174 000000F109228E          LBBO      &r14, r2, 9, 4        ; [ALU_PRU] |191| spiReg
     762 00000178 000000F1010001          LBBO      &r1.b0, r0, 1, 1      ; [ALU_PRU] |191| 
     763 0000017c 000000090801E1          LSL       r1, r1.b0, 0x08       ; [ALU_PRU] |191| 
     764 00000180 000000F1000000          LBBO      &r0.b0, r0, 0, 1      ; [ALU_PRU] |191| 
     765 00000184 00000012E100E0          OR        r0, r0.b0, r1         ; [ALU_PRU] |191| 
     766 00000188 000000108080F0          MOV       r16, r0.w0            ; [ALU_PRU] |191| 
     767$C$DW$94        .dwtag  DW_TAG_TI_branch
     768        .dwattr $C$DW$94, DW_AT_low_pc(0x00)
     769        .dwattr $C$DW$94, DW_AT_name("SPI_ChannelSet")
     770        .dwattr $C$DW$94, DW_AT_TI_call
     771 0000018c 000000230000C3!         JAL       r3.w2, ||SPI_ChannelSet|| ; [ALU_PRU] |191| SPI_ChannelSet
     772        .dwpsn  file "../mcp3202.c",line 193,column 2,is_stmt,isa 0
     773 00000190 000000F10D028E          LBBO      &r14.w0, r2, 13, 2    ; [ALU_PRU] |193| retVal
     774        .dwpsn  file "../mcp3202.c",line 194,column 1,is_stmt,isa 0
     775 00000194 000000F10F42C3          LBBO      &r3.b2, r2, 15, 6     ; [ALU_PRU] 
     776        .dwcfi  restore_reg, 14
     777        .dwcfi  restore_reg, 15
     778        .dwcfi  restore_reg, 16
     779        .dwcfi  restore_reg, 17
     780        .dwcfi  restore_reg, 18
     781        .dwcfi  restore_reg, 19
     782 00000198 0000000115E2E2          ADD       r2, r2, 0x15          ; [ALU_PRU] 
     783        .dwcfi  cfa_offset, 0
     784$C$DW$95        .dwtag  DW_TAG_TI_branch
     785        .dwattr $C$DW$95, DW_AT_low_pc(0x00)
     786        .dwattr $C$DW$95, DW_AT_TI_return
     787 0000019c 00000020C30000          JMP       r3.w2                 ; [ALU_PRU] 
     788        .dwattr $C$DW$83, DW_AT_TI_end_file("../mcp3202.c")
     789        .dwattr $C$DW$83, DW_AT_TI_end_line(0xc2)
     790        .dwattr $C$DW$83, DW_AT_TI_end_column(0x01)
     791        .dwendentry
     792        .dwendtag $C$DW$83
     793
     794 00000000                         .sect   ".text:init_spi"
     795        .clink
     796        .global ||init_spi||
     797
     798$C$DW$96        .dwtag  DW_TAG_subprogram, DW_AT_name("init_spi")
     799        .dwattr $C$DW$96, DW_AT_low_pc(||init_spi||)
     800        .dwattr $C$DW$96, DW_AT_high_pc(0x00)
     801        .dwattr $C$DW$96, DW_AT_TI_symbol_name("init_spi")
     802        .dwattr $C$DW$96, DW_AT_external
     803        .dwattr $C$DW$96, DW_AT_TI_begin_file("../mcp3202.c")
     804        .dwattr $C$DW$96, DW_AT_TI_begin_line(0xce)
     805        .dwattr $C$DW$96, DW_AT_TI_begin_column(0x06)
     806        .dwattr $C$DW$96, DW_AT_decl_file("../mcp3202.c")
PRU Assembler Unix v2.1.2 Wed Sep  7 12:11:05 2016

Tools Copyright (c) 2012-2015 Texas Instruments Incorporated
mcp3202.asm                                                          PAGE   16

     807        .dwattr $C$DW$96, DW_AT_decl_line(0xce)
     808        .dwattr $C$DW$96, DW_AT_decl_column(0x06)
     809        .dwattr $C$DW$96, DW_AT_TI_max_frame_size(0x0a)
     810        .dwpsn  file "../mcp3202.c",line 207,column 1,is_stmt,address ||init_spi||,isa 0
     811
     812        .dwfde $C$DW$CIE, ||init_spi||
     813
     814;***************************************************************
     815;* FNAME: init_spi                      FR SIZE:  10           *
     816;*                                                             *
     817;* FUNCTION ENVIRONMENT                                        *
     818;*                                                             *
     819;* FUNCTION PROPERTIES                                         *
     820;*                            8 Auto,  2 SOE     *
     821;***************************************************************
     822
     823 00000000                 ||init_spi||:
     824;* --------------------------------------------------------------------------*
     825        .dwcfi  cfa_offset, 0
     826 00000000 000000050AE2E2          SUB       r2, r2, 0x0a          ; [ALU_PRU] 
     827        .dwcfi  cfa_offset, 10
     828 00000004 000000E10802C3          SBBO      &r3.b2, r2, 8, 2      ; [ALU_PRU] 
     829        .dwcfi  save_reg_to_mem, 14, -2
     830        .dwcfi  save_reg_to_mem, 15, -1
     831$C$DW$97        .dwtag  DW_TAG_variable, DW_AT_name("spiReg")
     832        .dwattr $C$DW$97, DW_AT_TI_symbol_name("spiReg")
     833        .dwattr $C$DW$97, DW_AT_type(*$C$DW$T$82)
     834        .dwattr $C$DW$97, DW_AT_location[DW_OP_breg8 0]
     835 00000008 00000010000000          NOP                             ; [ALU_PRU] 
     836$C$DW$98        .dwtag  DW_TAG_variable, DW_AT_name("sampleRate")
     837        .dwattr $C$DW$98, DW_AT_TI_symbol_name("sampleRate")
     838        .dwattr $C$DW$98, DW_AT_type(*$C$DW$T$82)
     839        .dwattr $C$DW$98, DW_AT_location[DW_OP_breg8 4]
     840 0000000c 00000010000000          NOP                             ; [ALU_PRU] 
     841        .dwpsn  file "../mcp3202.c",line 208,column 18,is_stmt,isa 0
     842 00000010 000000240000E0          LDI       r0, 0x0000            ; [ALU_PRU] |208| 
     843 00000014 000000E1002280          SBBO      &r0, r2, 0, 4         ; [ALU_PRU] |208| spiReg
     844        .dwpsn  file "../mcp3202.c",line 209,column 22,is_stmt,isa 0
     845 00000018 000000E1042280          SBBO      &r0, r2, 4, 4         ; [ALU_PRU] |209| sampleRate
     846        .dwpsn  file "../mcp3202.c",line 214,column 2,is_stmt,isa 0
     847 0000001c FFFC8124FFFFC1          LDI32     r1, 0xfffffffc        ; [ALU_PRU] |214| 
         00000023 00000000004024 
     848 00000024 000000240000E0!         LDI       r0, ||perCfg||        ; [ALU_PRU] |214| perCfg
     849 00000028 000000F1002080          LBBO      &r0, r0, 0, 4         ; [ALU_PRU] |214| 
     850 0000002c 0000000150E0E0          ADD       r0, r0, 0x50          ; [ALU_PRU] |214| 
     851 00000030 000000F100208E          LBBO      &r14, r0, 0, 4        ; [ALU_PRU] |214| 
     852 00000034 00000010E1EEE1          AND       r1, r14, r1           ; [ALU_PRU] |214| 
     853 00000038 0000001F01E1E1          SET       r1, r1, 0x00000001    ; [ALU_PRU] |214| 
     854 0000003c 000000E1002081          SBBO      &r1, r0, 0, 4         ; [ALU_PRU] |214| 
     855        .dwpsn  file "../mcp3202.c",line 216,column 2,is_stmt,isa 0
     856 00000040 001880240000C0!         LDI32     r0, ||ctrlData||+24   ; [ALU_PRU] |216| ctrlData
         00000047 00000021004024 
     857 00000048 000000F1010001          LBBO      &r1.b0, r0, 1, 1      ; [ALU_PRU] |216| 
     858 0000004c 000000090801E1          LSL       r1, r1.b0, 0x08       ; [ALU_PRU] |216| 
     859 00000050 000000F1000000          LBBO      &r0.b0, r0, 0, 1      ; [ALU_PRU] |216| 
PRU Assembler Unix v2.1.2 Wed Sep  7 12:11:05 2016

Tools Copyright (c) 2012-2015 Texas Instruments Incorporated
mcp3202.asm                                                          PAGE   17

     860 00000054 00000012E100E0          OR        r0, r0.b0, r1         ; [ALU_PRU] |216| 
     861 00000058 00000069008004          QBNE      ||$C$L7||, r0.w0, 0x00 ; [ALU_PRU] |216| 
     862;* --------------------------------------------------------------------------*
     863 0000005c 000080244803C0          LDI32     r0, 0x48030000        ; [ALU_PRU] |216| 
         00000063 00000000004024 
     864 00000064 00000021000000!         JMP       ||$C$L8||             ; [ALU_PRU] |216| 
     865;* --------------------------------------------------------------------------*
     866 00000068                 ||$C$L7||:    
     867 00000068 00008024481AC0          LDI32     r0, 0x481a0000        ; [ALU_PRU] |216| 
         0000006f 00000000004024 
     868;* --------------------------------------------------------------------------*
     869 00000070                 ||$C$L8||:    
     870 00000070 000000E1002280          SBBO      &r0, r2, 0, 4         ; [ALU_PRU] |216| spiReg
     871        .dwpsn  file "../mcp3202.c",line 220,column 2,is_stmt,isa 0
     872 00000074 000000F100228E          LBBO      &r14, r2, 0, 4        ; [ALU_PRU] |220| spiReg
     873$C$DW$99        .dwtag  DW_TAG_TI_branch
     874        .dwattr $C$DW$99, DW_AT_low_pc(0x00)
     875        .dwattr $C$DW$99, DW_AT_name("SPI_Reset")
     876        .dwattr $C$DW$99, DW_AT_TI_call
     877 00000078 000000230000C3!         JAL       r3.w2, ||SPI_Reset||  ; [ALU_PRU] |220| SPI_Reset
     878        .dwpsn  file "../mcp3202.c",line 221,column 2,is_stmt,isa 0
     879 0000007c 000000240001EF          LDI       r15, 0x0001           ; [ALU_PRU] |221| 
     880 00000080 000000F100228E          LBBO      &r14, r2, 0, 4        ; [ALU_PRU] |221| spiReg
     881$C$DW$100       .dwtag  DW_TAG_TI_branch
     882        .dwattr $C$DW$100, DW_AT_low_pc(0x00)
     883        .dwattr $C$DW$100, DW_AT_name("SPI_CSSet")
     884        .dwattr $C$DW$100, DW_AT_TI_call
     885 00000084 000000230000C3!         JAL       r3.w2, ||SPI_CSSet||  ; [ALU_PRU] |221| SPI_CSSet
     886        .dwpsn  file "../mcp3202.c",line 222,column 2,is_stmt,isa 0
     887 00000088 001A80240000C0!         LDI32     r0, ||ctrlData||+26   ; [ALU_PRU] |222| ctrlData
         0000008f 00000021004024 
     888 00000090 0000002EFF818F          ZERO      &r15, 4               ; [ALU_PRU] |222| 
     889 00000094 0000002EFF8190          ZERO      &r16, 4               ; [ALU_PRU] |222| 
     890 00000098 000091240001D1          LDI32     r17, 0x00010000       ; [ALU_PRU] |222| 
         0000009f 00000000004024 
     891 000000a0 000000F100228E          LBBO      &r14, r2, 0, 4        ; [ALU_PRU] |222| spiReg
     892 000000a4 000000F1010001          LBBO      &r1.b0, r0, 1, 1      ; [ALU_PRU] |222| 
     893 000000a8 000000090801E1          LSL       r1, r1.b0, 0x08       ; [ALU_PRU] |222| 
     894 000000ac 000000F1000000          LBBO      &r0.b0, r0, 0, 1      ; [ALU_PRU] |222| 
     895 000000b0 00000012E100E0          OR        r0, r0.b0, r1         ; [ALU_PRU] |222| 
     896 000000b4 000000108080F2          MOV       r18, r0.w0            ; [ALU_PRU] |222| 
     897$C$DW$101       .dwtag  DW_TAG_TI_branch
     898        .dwattr $C$DW$101, DW_AT_low_pc(0x00)
     899        .dwattr $C$DW$101, DW_AT_name("SPI_MasterModeSet")
     900        .dwattr $C$DW$101, DW_AT_TI_call
     901 000000b8 000000230000C3!         JAL       r3.w2, ||SPI_MasterModeSet|| ; [ALU_PRU] |222| SPI_MasterModeSet
     902        .dwpsn  file "../mcp3202.c",line 223,column 2,is_stmt,isa 0
     903 000000bc 000000F100228E          LBBO      &r14, r2, 0, 4        ; [ALU_PRU] |223| spiReg
     904$C$DW$102       .dwtag  DW_TAG_TI_branch
     905        .dwattr $C$DW$102, DW_AT_low_pc(0x00)
     906        .dwattr $C$DW$102, DW_AT_name("SPI_MasterModeEnable")
     907        .dwattr $C$DW$102, DW_AT_TI_call
     908 000000c0 000000230000C3!         JAL       r3.w2, ||SPI_MasterModeEnable|| ; [ALU_PRU] |223| SPI_MasterModeEnable
     909        .dwpsn  file "../mcp3202.c",line 230,column 2,is_stmt,isa 0
     910 000000c4 001080240000C0!         LDI32     r0, ||ctrlData||+16   ; [ALU_PRU] |230| ctrlData
PRU Assembler Unix v2.1.2 Wed Sep  7 12:11:05 2016

Tools Copyright (c) 2012-2015 Texas Instruments Incorporated
mcp3202.asm                                                          PAGE   18

         000000cb 00000021004024 
     911 000000cc 000000F1010001          LBBO      &r1.b0, r0, 1, 1      ; [ALU_PRU] |230| 
     912 000000d0 000000090801E1          LSL       r1, r1.b0, 0x08       ; [ALU_PRU] |230| 
     913 000000d4 000000F1000000          LBBO      &r0.b0, r0, 0, 1      ; [ALU_PRU] |230| 
     914 000000d8 00000012E100E0          OR        r0, r0.b0, r1         ; [ALU_PRU] |230| 
     915 000000dc 000000090580E0          LSL       r0, r0.w0, 0x05       ; [ALU_PRU] |230| 
     916 000000e0 000000E1042280          SBBO      &r0, r2, 4, 4         ; [ALU_PRU] |230| sampleRate
     917        .dwpsn  file "../mcp3202.c",line 231,column 2,is_stmt,isa 0
     918 000000e4 001A80240000C0!         LDI32     r0, ||ctrlData||+26   ; [ALU_PRU] |231| ctrlData
         000000eb 00000021004024 
     919 000000ec 6C008F2402DCCF          LDI32     r15, 0x02dc6c00       ; [ALU_PRU] |231| 
         000000f3 00000000004024 
     920 000000f4 000000F100228E          LBBO      &r14, r2, 0, 4        ; [ALU_PRU] |231| spiReg
     921 000000f8 000000F1042290          LBBO      &r16, r2, 4, 4        ; [ALU_PRU] |231| sampleRate
     922 000000fc 000000F1010001          LBBO      &r1.b0, r0, 1, 1      ; [ALU_PRU] |231| 
     923 00000100 000000090801E1          LSL       r1, r1.b0, 0x08       ; [ALU_PRU] |231| 
     924 00000104 000000F1000000          LBBO      &r0.b0, r0, 0, 1      ; [ALU_PRU] |231| 
     925 00000108 00000012E100E0          OR        r0, r0.b0, r1         ; [ALU_PRU] |231| 
     926 0000010c 000000108080F1          MOV       r17, r0.w0            ; [ALU_PRU] |231| 
     927 00000110 001E80240000C0!         LDI32     r0, ||ctrlData||+30   ; [ALU_PRU] |231| ctrlData
         00000117 00000021004024 
     928 00000118 000000F1010001          LBBO      &r1.b0, r0, 1, 1      ; [ALU_PRU] |231| 
     929 0000011c 000000090801E1          LSL       r1, r1.b0, 0x08       ; [ALU_PRU] |231| 
     930 00000120 000000F1000000          LBBO      &r0.b0, r0, 0, 1      ; [ALU_PRU] |231| 
     931 00000124 00000012E100E0          OR        r0, r0.b0, r1         ; [ALU_PRU] |231| 
     932 00000128 000000108080F2          MOV       r18, r0.w0            ; [ALU_PRU] |231| 
     933$C$DW$103       .dwtag  DW_TAG_TI_branch
     934        .dwattr $C$DW$103, DW_AT_low_pc(0x00)
     935        .dwattr $C$DW$103, DW_AT_name("SPI_ClkConfig")
     936        .dwattr $C$DW$103, DW_AT_TI_call
     937 0000012c 000000230000C3!         JAL       r3.w2, ||SPI_ClkConfig|| ; [ALU_PRU] |231| SPI_ClkConfig
     938        .dwpsn  file "../mcp3202.c",line 233,column 2,is_stmt,isa 0
     939 00000130 001A80240000C0!         LDI32     r0, ||ctrlData||+26   ; [ALU_PRU] |233| ctrlData
         00000137 00000021004024 
     940 00000138 000000240F80EF          LDI       r15, 0x0f80           ; [ALU_PRU] |233| 
     941 0000013c 000000F100228E          LBBO      &r14, r2, 0, 4        ; [ALU_PRU] |233| spiReg
     942 00000140 000000F1010001          LBBO      &r1.b0, r0, 1, 1      ; [ALU_PRU] |233| 
     943 00000144 000000090801E1          LSL       r1, r1.b0, 0x08       ; [ALU_PRU] |233| 
     944 00000148 000000F1000000          LBBO      &r0.b0, r0, 0, 1      ; [ALU_PRU] |233| 
     945 0000014c 00000012E100E0          OR        r0, r0.b0, r1         ; [ALU_PRU] |233| 
     946 00000150 000000108080F0          MOV       r16, r0.w0            ; [ALU_PRU] |233| 
     947$C$DW$104       .dwtag  DW_TAG_TI_branch
     948        .dwattr $C$DW$104, DW_AT_low_pc(0x00)
     949        .dwattr $C$DW$104, DW_AT_name("SPI_WordLengthSet")
     950        .dwattr $C$DW$104, DW_AT_TI_call
     951 00000154 000000230000C3!         JAL       r3.w2, ||SPI_WordLengthSet|| ; [ALU_PRU] |233| SPI_WordLengthSet
     952        .dwpsn  file "../mcp3202.c",line 234,column 2,is_stmt,isa 0
     953 00000158 0000002400018F          LDI       r15.w0, 0x0001        ; [ALU_PRU] |234| 
     954 0000015c 000000F100228E          LBBO      &r14, r2, 0, 4        ; [ALU_PRU] |234| spiReg
     955$C$DW$105       .dwtag  DW_TAG_TI_branch
     956        .dwattr $C$DW$105, DW_AT_low_pc(0x00)
     957        .dwattr $C$DW$105, DW_AT_name("SPI_WordCountSet")
     958        .dwattr $C$DW$105, DW_AT_TI_call
     959 00000160 000000230000C3!         JAL       r3.w2, ||SPI_WordCountSet|| ; [ALU_PRU] |234| SPI_WordCountSet
     960        .dwpsn  file "../mcp3202.c",line 236,column 2,is_stmt,isa 0
PRU Assembler Unix v2.1.2 Wed Sep  7 12:11:05 2016

Tools Copyright (c) 2012-2015 Texas Instruments Incorporated
mcp3202.asm                                                          PAGE   19

     961 00000164 001A80240000C0!         LDI32     r0, ||ctrlData||+26   ; [ALU_PRU] |236| ctrlData
         0000016b 00000021004024 
     962 0000016c 000000240040EF          LDI       r15, 0x0040           ; [ALU_PRU] |236| 
     963 00000170 000000F100228E          LBBO      &r14, r2, 0, 4        ; [ALU_PRU] |236| spiReg
     964 00000174 000000F1010001          LBBO      &r1.b0, r0, 1, 1      ; [ALU_PRU] |236| 
     965 00000178 000000090801E1          LSL       r1, r1.b0, 0x08       ; [ALU_PRU] |236| 
     966 0000017c 000000F1000000          LBBO      &r0.b0, r0, 0, 1      ; [ALU_PRU] |236| 
     967 00000180 00000012E100E0          OR        r0, r0.b0, r1         ; [ALU_PRU] |236| 
     968 00000184 000000108080F0          MOV       r16, r0.w0            ; [ALU_PRU] |236| 
     969$C$DW$106       .dwtag  DW_TAG_TI_branch
     970        .dwattr $C$DW$106, DW_AT_low_pc(0x00)
     971        .dwattr $C$DW$106, DW_AT_name("SPI_CSPolaritySet")
     972        .dwattr $C$DW$106, DW_AT_TI_call
     973 00000188 000000230000C3!         JAL       r3.w2, ||SPI_CSPolaritySet|| ; [ALU_PRU] |236| SPI_CSPolaritySet
     974        .dwpsn  file "../mcp3202.c",line 238,column 2,is_stmt,isa 0
     975 0000018c 001A80240000C0!         LDI32     r0, ||ctrlData||+26   ; [ALU_PRU] |238| ctrlData
         00000193 00000021004024 
     976 00000194 000000F100228E          LBBO      &r14, r2, 0, 4        ; [ALU_PRU] |238| spiReg
     977 00000198 000000F1010001          LBBO      &r1.b0, r0, 1, 1      ; [ALU_PRU] |238| 
     978 0000019c 000000090801E1          LSL       r1, r1.b0, 0x08       ; [ALU_PRU] |238| 
     979 000001a0 000000F1000000          LBBO      &r0.b0, r0, 0, 1      ; [ALU_PRU] |238| 
     980 000001a4 00000012E100E0          OR        r0, r0.b0, r1         ; [ALU_PRU] |238| 
     981 000001a8 000000108080EF          MOV       r15, r0.w0            ; [ALU_PRU] |238| 
     982$C$DW$107       .dwtag  DW_TAG_TI_branch
     983        .dwattr $C$DW$107, DW_AT_low_pc(0x00)
     984        .dwattr $C$DW$107, DW_AT_name("SPI_TxFIFODisable")
     985        .dwattr $C$DW$107, DW_AT_TI_call
     986 000001ac 000000230000C3!         JAL       r3.w2, ||SPI_TxFIFODisable|| ; [ALU_PRU] |238| SPI_TxFIFODisable
     987        .dwpsn  file "../mcp3202.c",line 239,column 2,is_stmt,isa 0
     988 000001b0 001A80240000C0!         LDI32     r0, ||ctrlData||+26   ; [ALU_PRU] |239| ctrlData
         000001b7 00000021004024 
     989 000001b8 000000F100228E          LBBO      &r14, r2, 0, 4        ; [ALU_PRU] |239| spiReg
     990 000001bc 000000F1010001          LBBO      &r1.b0, r0, 1, 1      ; [ALU_PRU] |239| 
     991 000001c0 000000090801E1          LSL       r1, r1.b0, 0x08       ; [ALU_PRU] |239| 
     992 000001c4 000000F1000000          LBBO      &r0.b0, r0, 0, 1      ; [ALU_PRU] |239| 
     993 000001c8 00000012E100E0          OR        r0, r0.b0, r1         ; [ALU_PRU] |239| 
     994 000001cc 000000108080EF          MOV       r15, r0.w0            ; [ALU_PRU] |239| 
     995$C$DW$108       .dwtag  DW_TAG_TI_branch
     996        .dwattr $C$DW$108, DW_AT_low_pc(0x00)
     997        .dwattr $C$DW$108, DW_AT_name("SPI_RxFIFODisable")
     998        .dwattr $C$DW$108, DW_AT_TI_call
     999 000001d0 000000230000C3!         JAL       r3.w2, ||SPI_RxFIFODisable|| ; [ALU_PRU] |239| SPI_RxFIFODisable
    1000        .dwpsn  file "../mcp3202.c",line 240,column 2,is_stmt,isa 0
    1001 000001d4 000000240100EF          LDI       r15, 0x0100           ; [ALU_PRU] |240| 
    1002 000001d8 000000F100228E          LBBO      &r14, r2, 0, 4        ; [ALU_PRU] |240| spiReg
    1003$C$DW$109       .dwtag  DW_TAG_TI_branch
    1004        .dwattr $C$DW$109, DW_AT_low_pc(0x00)
    1005        .dwattr $C$DW$109, DW_AT_name("SPI_DataPinDirection")
    1006        .dwattr $C$DW$109, DW_AT_TI_call
    1007 000001dc 000000230000C3!         JAL       r3.w2, ||SPI_DataPinDirection|| ; [ALU_PRU] |240| SPI_DataPinDirection
    1008;* --------------------------------------------------------------------------*
    1009        .dwpsn  file "../mcp3202.c",line 242,column 2,is_stmt,isa 0
    1010 000001e0 001C80240000C0!         LDI32     r0, ||ctrlData||+28   ; [ALU_PRU] |242| ctrlData
         000001e7 00000021004024 
    1011 000001e8 000000F1010001          LBBO      &r1.b0, r0, 1, 1      ; [ALU_PRU] |242| 
PRU Assembler Unix v2.1.2 Wed Sep  7 12:11:05 2016

Tools Copyright (c) 2012-2015 Texas Instruments Incorporated
mcp3202.asm                                                          PAGE   20

    1012 000001ec 000000090801E1          LSL       r1, r1.b0, 0x08       ; [ALU_PRU] |242| 
    1013 000001f0 000000F1000000          LBBO      &r0.b0, r0, 0, 1      ; [ALU_PRU] |242| 
    1014 000001f4 00000012E100E0          OR        r0, r0.b0, r1         ; [ALU_PRU] |242| 
    1015 000001f8 00000051008015          QBEQ      ||$C$L9||, r0.w0, 0x00 ; [ALU_PRU] |242| 
    1016;* --------------------------------------------------------------------------*
    1017        .dwpsn  file "../mcp3202.c",line 244,column 3,is_stmt,isa 0
    1018 000001fc 001A80240000C0!         LDI32     r0, ||ctrlData||+26   ; [ALU_PRU] |244| ctrlData
         00000203 00000021004024 
    1019 00000204 000000F100228E          LBBO      &r14, r2, 0, 4        ; [ALU_PRU] |244| spiReg
    1020 00000208 000000F1010001          LBBO      &r1.b0, r0, 1, 1      ; [ALU_PRU] |244| 
    1021 0000020c 000000090801E1          LSL       r1, r1.b0, 0x08       ; [ALU_PRU] |244| 
    1022 00000210 000000F1000000          LBBO      &r0.b0, r0, 0, 1      ; [ALU_PRU] |244| 
    1023 00000214 00000012E100E0          OR        r0, r0.b0, r1         ; [ALU_PRU] |244| 
    1024 00000218 000000108080EF          MOV       r15, r0.w0            ; [ALU_PRU] |244| 
    1025$C$DW$110       .dwtag  DW_TAG_TI_branch
    1026        .dwattr $C$DW$110, DW_AT_low_pc(0x00)
    1027        .dwattr $C$DW$110, DW_AT_name("SPI_StartBitEnable")
    1028        .dwattr $C$DW$110, DW_AT_TI_call
    1029 0000021c 000000230000C3!         JAL       r3.w2, ||SPI_StartBitEnable|| ; [ALU_PRU] |244| SPI_StartBitEnable
    1030        .dwpsn  file "../mcp3202.c",line 245,column 3,is_stmt,isa 0
    1031 00000220 001A80240000C0!         LDI32     r0, ||ctrlData||+26   ; [ALU_PRU] |245| ctrlData
         00000227 00000021004024 
    1032 00000228 0000002EFF818F          ZERO      &r15, 4               ; [ALU_PRU] |245| 
    1033 0000022c 000000F100228E          LBBO      &r14, r2, 0, 4        ; [ALU_PRU] |245| spiReg
    1034 00000230 000000F1010001          LBBO      &r1.b0, r0, 1, 1      ; [ALU_PRU] |245| 
    1035 00000234 000000090801E1          LSL       r1, r1.b0, 0x08       ; [ALU_PRU] |245| 
    1036 00000238 000000F1000000          LBBO      &r0.b0, r0, 0, 1      ; [ALU_PRU] |245| 
    1037 0000023c 00000012E100E0          OR        r0, r0.b0, r1         ; [ALU_PRU] |245| 
    1038 00000240 000000108080F0          MOV       r16, r0.w0            ; [ALU_PRU] |245| 
    1039$C$DW$111       .dwtag  DW_TAG_TI_branch
    1040        .dwattr $C$DW$111, DW_AT_low_pc(0x00)
    1041        .dwattr $C$DW$111, DW_AT_name("SPI_StartBitPolaritySet")
    1042        .dwattr $C$DW$111, DW_AT_TI_call
    1043 00000244 000000230000C3!         JAL       r3.w2, ||SPI_StartBitPolaritySet|| ; [ALU_PRU] |245| SPI_StartBitPolaritySet
    1044        .dwpsn  file "../mcp3202.c",line 246,column 2,is_stmt,isa 0
    1045 00000248 00000021000000!         JMP       ||$C$L10||            ; [ALU_PRU] |246| 
    1046;* --------------------------------------------------------------------------*
    1047 0000024c                 ||$C$L9||:    
    1048        .dwpsn  file "../mcp3202.c",line 247,column 3,is_stmt,isa 0
    1049 0000024c 001A80240000C0!         LDI32     r0, ||ctrlData||+26   ; [ALU_PRU] |247| ctrlData
         00000253 00000021004024 
    1050 00000254 000000F100228E          LBBO      &r14, r2, 0, 4        ; [ALU_PRU] |247| spiReg
    1051 00000258 000000F1010001          LBBO      &r1.b0, r0, 1, 1      ; [ALU_PRU] |247| 
    1052 0000025c 000000090801E1          LSL       r1, r1.b0, 0x08       ; [ALU_PRU] |247| 
    1053 00000260 000000F1000000          LBBO      &r0.b0, r0, 0, 1      ; [ALU_PRU] |247| 
    1054 00000264 00000012E100E0          OR        r0, r0.b0, r1         ; [ALU_PRU] |247| 
    1055 00000268 000000108080EF          MOV       r15, r0.w0            ; [ALU_PRU] |247| 
    1056$C$DW$112       .dwtag  DW_TAG_TI_branch
    1057        .dwattr $C$DW$112, DW_AT_low_pc(0x00)
    1058        .dwattr $C$DW$112, DW_AT_name("SPI_StartBitDisable")
    1059        .dwattr $C$DW$112, DW_AT_TI_call
    1060 0000026c 000000230000C3!         JAL       r3.w2, ||SPI_StartBitDisable|| ; [ALU_PRU] |247| SPI_StartBitDisable
    1061        .dwpsn  file "../mcp3202.c",line 249,column 1,is_stmt,isa 0
    1062;* --------------------------------------------------------------------------*
    1063 00000270                 ||$C$L10||:    
PRU Assembler Unix v2.1.2 Wed Sep  7 12:11:05 2016

Tools Copyright (c) 2012-2015 Texas Instruments Incorporated
mcp3202.asm                                                          PAGE   21

    1064 00000270 000000F10802C3          LBBO      &r3.b2, r2, 8, 2      ; [ALU_PRU] 
    1065        .dwcfi  restore_reg, 14
    1066        .dwcfi  restore_reg, 15
    1067 00000274 000000010AE2E2          ADD       r2, r2, 0x0a          ; [ALU_PRU] 
    1068        .dwcfi  cfa_offset, 0
    1069$C$DW$113       .dwtag  DW_TAG_TI_branch
    1070        .dwattr $C$DW$113, DW_AT_low_pc(0x00)
    1071        .dwattr $C$DW$113, DW_AT_TI_return
    1072 00000278 00000020C30000          JMP       r3.w2                 ; [ALU_PRU] 
    1073        .dwattr $C$DW$96, DW_AT_TI_end_file("../mcp3202.c")
    1074        .dwattr $C$DW$96, DW_AT_TI_end_line(0xf9)
    1075        .dwattr $C$DW$96, DW_AT_TI_end_column(0x01)
    1076        .dwendentry
    1077        .dwendtag $C$DW$96
    1078
    1079 00000000                         .sect   ".text:sampleAverage"
    1080        .clink
    1081        .global ||sampleAverage||
    1082
    1083$C$DW$114       .dwtag  DW_TAG_subprogram, DW_AT_name("sampleAverage")
    1084        .dwattr $C$DW$114, DW_AT_low_pc(||sampleAverage||)
    1085        .dwattr $C$DW$114, DW_AT_high_pc(0x00)
    1086        .dwattr $C$DW$114, DW_AT_TI_symbol_name("sampleAverage")
    1087        .dwattr $C$DW$114, DW_AT_external
    1088        .dwattr $C$DW$114, DW_AT_TI_begin_file("../mcp3202.c")
    1089        .dwattr $C$DW$114, DW_AT_TI_begin_line(0x104)
    1090        .dwattr $C$DW$114, DW_AT_TI_begin_column(0x06)
    1091        .dwattr $C$DW$114, DW_AT_decl_file("../mcp3202.c")
    1092        .dwattr $C$DW$114, DW_AT_decl_line(0x104)
    1093        .dwattr $C$DW$114, DW_AT_decl_column(0x06)
    1094        .dwattr $C$DW$114, DW_AT_TI_max_frame_size(0x04)
    1095        .dwpsn  file "../mcp3202.c",line 261,column 1,is_stmt,address ||sampleAverage||,isa 0
    1096
    1097        .dwfde $C$DW$CIE, ||sampleAverage||
    1098$C$DW$115       .dwtag  DW_TAG_formal_parameter, DW_AT_name("ch1v")
    1099        .dwattr $C$DW$115, DW_AT_TI_symbol_name("ch1v")
    1100        .dwattr $C$DW$115, DW_AT_type(*$C$DW$T$167)
    1101        .dwattr $C$DW$115, DW_AT_location[DW_OP_regx 0x38]
    1102$C$DW$116       .dwtag  DW_TAG_formal_parameter, DW_AT_name("ch2v")
    1103        .dwattr $C$DW$116, DW_AT_TI_symbol_name("ch2v")
    1104        .dwattr $C$DW$116, DW_AT_type(*$C$DW$T$167)
    1105        .dwattr $C$DW$116, DW_AT_location[DW_OP_regx 0x3a]
    1106
    1107;***************************************************************
    1108;* FNAME: sampleAverage                 FR SIZE:   4           *
    1109;*                                                             *
    1110;* FUNCTION ENVIRONMENT                                        *
    1111;*                                                             *
    1112;* FUNCTION PROPERTIES                                         *
    1113;*                            4 Auto,  0 SOE     *
    1114;***************************************************************
    1115
    1116 00000000                 ||sampleAverage||:
    1117;* --------------------------------------------------------------------------*
    1118        .dwcfi  cfa_offset, 0
PRU Assembler Unix v2.1.2 Wed Sep  7 12:11:05 2016

Tools Copyright (c) 2012-2015 Texas Instruments Incorporated
mcp3202.asm                                                          PAGE   22

    1119 00000000 0000000504E2E2          SUB       r2, r2, 0x04          ; [ALU_PRU] 
    1120        .dwcfi  cfa_offset, 4
    1121$C$DW$117       .dwtag  DW_TAG_variable, DW_AT_name("ch1v")
    1122        .dwattr $C$DW$117, DW_AT_TI_symbol_name("ch1v")
    1123        .dwattr $C$DW$117, DW_AT_type(*$C$DW$T$167)
    1124        .dwattr $C$DW$117, DW_AT_location[DW_OP_breg8 0]
    1125 00000004 00000010000000          NOP                             ; [ALU_PRU] 
    1126$C$DW$118       .dwtag  DW_TAG_variable, DW_AT_name("ch2v")
    1127        .dwattr $C$DW$118, DW_AT_TI_symbol_name("ch2v")
    1128        .dwattr $C$DW$118, DW_AT_type(*$C$DW$T$167)
    1129        .dwattr $C$DW$118, DW_AT_location[DW_OP_breg8 2]
    1130 00000008 00000010000000          NOP                             ; [ALU_PRU] 
    1131 0000000c 000000E10202CE          SBBO      &r14.w2, r2, 2, 2     ; [ALU_PRU] |261| ch2v
    1132 00000010 000000E100028E          SBBO      &r14.w0, r2, 0, 2     ; [ALU_PRU] |261| ch1v
    1133        .dwpsn  file "../mcp3202.c",line 264,column 2,is_stmt,isa 0
    1134 00000014 002880240000C0!         LDI32     r0, ||ctrlData||+40   ; [ALU_PRU] |264| ctrlData
         0000001b 00000021004024 
    1135 0000001c 000000F1010001          LBBO      &r1.b0, r0, 1, 1      ; [ALU_PRU] |264| 
    1136 00000020 000000090801E1          LSL       r1, r1.b0, 0x08       ; [ALU_PRU] |264| 
    1137 00000024 000000F1000000          LBBO      &r0.b0, r0, 0, 1      ; [ALU_PRU] |264| 
    1138 00000028 00000012E100E0          OR        r0, r0.b0, r1         ; [ALU_PRU] |264| 
    1139 0000002c 000000F10002C0          LBBO      &r0.w2, r2, 0, 2      ; [ALU_PRU] |264| ch1v
    1140 00000030 00000000C0808E          ADD       r14.w0, r0.w0, r0.w2  ; [ALU_PRU] |264| 
    1141 00000034 002880240000C0!         LDI32     r0, ||ctrlData||+40   ; [ALU_PRU] |264| ctrlData
         0000003b 00000021004024 
    1142 0000003c 000000108E8EE1          MOV       r1, r14.w0            ; [ALU_PRU] |264| 
    1143 00000040 000000E1000001          SBBO      &r1.b0, r0, 0, 1      ; [ALU_PRU] |264| 
    1144 00000044 0000000B088EE1          LSR       r1, r14.w0, 0x08      ; [ALU_PRU] |264| 
    1145 00000048 000000E1010001          SBBO      &r1.b0, r0, 1, 1      ; [ALU_PRU] |264| 
    1146        .dwpsn  file "../mcp3202.c",line 265,column 2,is_stmt,isa 0
    1147 0000004c 002A80240000C0!         LDI32     r0, ||ctrlData||+42   ; [ALU_PRU] |265| ctrlData
         00000053 00000021004024 
    1148 00000054 000000F1010001          LBBO      &r1.b0, r0, 1, 1      ; [ALU_PRU] |265| 
    1149 00000058 000000090801E1          LSL       r1, r1.b0, 0x08       ; [ALU_PRU] |265| 
    1150 0000005c 000000F1000000          LBBO      &r0.b0, r0, 0, 1      ; [ALU_PRU] |265| 
    1151 00000060 00000012E100E0          OR        r0, r0.b0, r1         ; [ALU_PRU] |265| 
    1152 00000064 000000F10202C0          LBBO      &r0.w2, r2, 2, 2      ; [ALU_PRU] |265| ch2v
    1153 00000068 00000000C0808E          ADD       r14.w0, r0.w0, r0.w2  ; [ALU_PRU] |265| 
    1154 0000006c 002A80240000C0!         LDI32     r0, ||ctrlData||+42   ; [ALU_PRU] |265| ctrlData
         00000073 00000021004024 
    1155 00000074 000000108E8EE1          MOV       r1, r14.w0            ; [ALU_PRU] |265| 
    1156 00000078 000000E1000001          SBBO      &r1.b0, r0, 0, 1      ; [ALU_PRU] |265| 
    1157 0000007c 0000000B088EE1          LSR       r1, r14.w0, 0x08      ; [ALU_PRU] |265| 
    1158 00000080 000000E1010001          SBBO      &r1.b0, r0, 1, 1      ; [ALU_PRU] |265| 
    1159        .dwpsn  file "../mcp3202.c",line 266,column 2,is_stmt,isa 0
    1160 00000084 002C80240000C0!         LDI32     r0, ||ctrlData||+44   ; [ALU_PRU] |266| ctrlData
         0000008b 00000021004024 
    1161 0000008c 000000F1010001          LBBO      &r1.b0, r0, 1, 1      ; [ALU_PRU] |266| 
    1162 00000090 000000090801E1          LSL       r1, r1.b0, 0x08       ; [ALU_PRU] |266| 
    1163 00000094 000000F1000000          LBBO      &r0.b0, r0, 0, 1      ; [ALU_PRU] |266| 
    1164 00000098 00000012E100E0          OR        r0, r0.b0, r1         ; [ALU_PRU] |266| 
    1165 0000009c 0000000101808E          ADD       r14.w0, r0.w0, 0x01   ; [ALU_PRU] |266| 
    1166 000000a0 002C80240000C0!         LDI32     r0, ||ctrlData||+44   ; [ALU_PRU] |266| ctrlData
         000000a7 00000021004024 
    1167 000000a8 000000108E8EE1          MOV       r1, r14.w0            ; [ALU_PRU] |266| 
PRU Assembler Unix v2.1.2 Wed Sep  7 12:11:05 2016

Tools Copyright (c) 2012-2015 Texas Instruments Incorporated
mcp3202.asm                                                          PAGE   23

    1168 000000ac 000000E1000001          SBBO      &r1.b0, r0, 0, 1      ; [ALU_PRU] |266| 
    1169 000000b0 0000000B088EE1          LSR       r1, r14.w0, 0x08      ; [ALU_PRU] |266| 
    1170 000000b4 000000E1010001          SBBO      &r1.b0, r0, 1, 1      ; [ALU_PRU] |266| 
    1171        .dwpsn  file "../mcp3202.c",line 268,column 2,is_stmt,isa 0
    1172 000000b8 001280240000C0!         LDI32     r0, ||ctrlData||+18   ; [ALU_PRU] |268| ctrlData
         000000bf 00000021004024 
    1173 000000c0 000000F1010001          LBBO      &r1.b0, r0, 1, 1      ; [ALU_PRU] |268| 
    1174 000000c4 000000090801E1          LSL       r1, r1.b0, 0x08       ; [ALU_PRU] |268| 
    1175 000000c8 000000F1000000          LBBO      &r0.b0, r0, 0, 1      ; [ALU_PRU] |268| 
    1176 000000cc 00000012E100EE          OR        r14, r0.b0, r1        ; [ALU_PRU] |268| 
    1177 000000d0 002C80240000C0!         LDI32     r0, ||ctrlData||+44   ; [ALU_PRU] |268| ctrlData
         000000d7 00000021004024 
    1178 000000d8 000000F1010001          LBBO      &r1.b0, r0, 1, 1      ; [ALU_PRU] |268| 
    1179 000000dc 000000090801E1          LSL       r1, r1.b0, 0x08       ; [ALU_PRU] |268| 
    1180 000000e0 000000F1000000          LBBO      &r0.b0, r0, 0, 1      ; [ALU_PRU] |268| 
    1181 000000e4 00000012E100E0          OR        r0, r0.b0, r1         ; [ALU_PRU] |268| 
    1182 000000e8 00000048808ED6          QBLT      ||$C$L24||, r14.w0, r0.w0 ; [ALU_PRU] |268| 
    1183;* --------------------------------------------------------------------------*
    1184        .dwpsn  file "../mcp3202.c",line 270,column 3,is_stmt,isa 0
    1185 000000ec 0000002400008E          LDI       r14.w0, 0x0000        ; [ALU_PRU] |270| 
    1186 000000f0 002C80240000C0!         LDI32     r0, ||ctrlData||+44   ; [ALU_PRU] |270| ctrlData
         000000f7 00000021004024 
    1187 000000f8 000000108E8EE1          MOV       r1, r14.w0            ; [ALU_PRU] |270| 
    1188 000000fc 000000E1000001          SBBO      &r1.b0, r0, 0, 1      ; [ALU_PRU] |270| 
    1189 00000100 0000000B088EE1          LSR       r1, r14.w0, 0x08      ; [ALU_PRU] |270| 
    1190 00000104 000000E1010001          SBBO      &r1.b0, r0, 1, 1      ; [ALU_PRU] |270| 
    1191        .dwpsn  file "../mcp3202.c",line 275,column 3,is_stmt,isa 0
    1192 00000108 00000021000000!         JMP       ||$C$L12||            ; [ALU_PRU] |275| 
    1193;* --------------------------------------------------------------------------*
    1194 0000010c                 ||$C$L11||:    
    1195        .dwpsn  file "../mcp3202.c",line 275,column 30,is_stmt,isa 0
    1196        .newblock
    1197 0000010c 003180240000C0          LDI32    r0, 49
         00000113 00000000004024 
    1198 00000114 0000000501E0E0  $1:     SUB      r0, r0, 1
    1199 00000118 0000006F00E0FF          QBNE     $1, r0, 0             ; [ALU_PRU] |275| 
    1200;* --------------------------------------------------------------------------*
    1201;*   BEGIN LOOP ||$C$L12||
    1202;* --------------------------------------------------------------------------*
    1203 0000011c                 ||$C$L12||:    
    1204        .dwpsn  file "../mcp3202.c",line 275,column 3,is_stmt,isa 0
    1205 0000011c 002080240000C0!         LDI32     r0, ||ctrlData||+32   ; [ALU_PRU] |275| ctrlData
         00000123 00000021004024 
    1206 00000124 000000F1010001          LBBO      &r1.b0, r0, 1, 1      ; [ALU_PRU] |275| 
    1207 00000128 000000090801E1          LSL       r1, r1.b0, 0x08       ; [ALU_PRU] |275| 
    1208 0000012c 000000F1000000          LBBO      &r0.b0, r0, 0, 1      ; [ALU_PRU] |275| 
    1209 00000130 00000012E100E0          OR        r0, r0.b0, r1         ; [ALU_PRU] |275| 
    1210 00000134 0000006F0080F6          QBNE      ||$C$L11||, r0.w0, 0x00 ; [ALU_PRU] |275| 
    1211;* --------------------------------------------------------------------------*
    1212        .dwpsn  file "../mcp3202.c",line 276,column 3,is_stmt,isa 0
    1213 00000138 0000002400018E          LDI       r14.w0, 0x0001        ; [ALU_PRU] |276| 
    1214 0000013c 002080240000C0!         LDI32     r0, ||ctrlData||+32   ; [ALU_PRU] |276| ctrlData
         00000143 00000021004024 
    1215 00000144 000000108E8EE1          MOV       r1, r14.w0            ; [ALU_PRU] |276| 
    1216 00000148 000000E1000001          SBBO      &r1.b0, r0, 0, 1      ; [ALU_PRU] |276| 
PRU Assembler Unix v2.1.2 Wed Sep  7 12:11:05 2016

Tools Copyright (c) 2012-2015 Texas Instruments Incorporated
mcp3202.asm                                                          PAGE   24

    1217 0000014c 0000000B088EE1          LSR       r1, r14.w0, 0x08      ; [ALU_PRU] |276| 
    1218 00000150 000000E1010001          SBBO      &r1.b0, r0, 1, 1      ; [ALU_PRU] |276| 
    1219        .dwpsn  file "../mcp3202.c",line 278,column 3,is_stmt,isa 0
    1220 00000154 002480240000C0!         LDI32     r0, ||ctrlData||+36   ; [ALU_PRU] |278| ctrlData
         0000015b 00000021004024 
    1221 0000015c 000000F100028E          LBBO      &r14.w0, r2, 0, 2     ; [ALU_PRU] |278| ch1v
    1222 00000160 000000F1010001          LBBO      &r1.b0, r0, 1, 1      ; [ALU_PRU] |278| 
    1223 00000164 000000090801E1          LSL       r1, r1.b0, 0x08       ; [ALU_PRU] |278| 
    1224 00000168 000000F1000000          LBBO      &r0.b0, r0, 0, 1      ; [ALU_PRU] |278| 
    1225 0000016c 00000012E100E0          OR        r0, r0.b0, r1         ; [ALU_PRU] |278| 
    1226 00000170 000000108080E0          MOV       r0, r0.w0             ; [ALU_PRU] |278| 
    1227 00000174 000000C90FE002          QBBC      ||$C$L13||, r0, 0x0f  ; [ALU_PRU] |278| 
    1228;* --------------------------------------------------------------------------*
    1229 00000178 00000024FFFFC0          LDI       r0.w2, 0xffff         ; [ALU_PRU] |278| 
    1230;* --------------------------------------------------------------------------*
    1231 0000017c                 ||$C$L13||:    
    1232 0000017c 0000000902E0E1          LSL       r1, r0, 0x02          ; [ALU_PRU] |278| 
    1233 00000180 002E80240000C0!         LDI32     r0, ||ctrlData||+46   ; [ALU_PRU] |278| ctrlData
         00000187 00000021004024 
    1234 00000188 00000000E0E1E0          ADD       r0, r1, r0            ; [ALU_PRU] |278| 
    1235 0000018c 000000108E8EE1          MOV       r1, r14.w0            ; [ALU_PRU] |278| 
    1236 00000190 000000E1000001          SBBO      &r1.b0, r0, 0, 1      ; [ALU_PRU] |278| 
    1237 00000194 0000000B088EE1          LSR       r1, r14.w0, 0x08      ; [ALU_PRU] |278| 
    1238 00000198 000000E1010001          SBBO      &r1.b0, r0, 1, 1      ; [ALU_PRU] |278| 
    1239        .dwpsn  file "../mcp3202.c",line 279,column 3,is_stmt,isa 0
    1240 0000019c 000000F102028E          LBBO      &r14.w0, r2, 2, 2     ; [ALU_PRU] |279| ch2v
    1241 000001a0 002480240000C0!         LDI32     r0, ||ctrlData||+36   ; [ALU_PRU] |279| ctrlData
         000001a7 00000021004024 
    1242 000001a8 000000F1010001          LBBO      &r1.b0, r0, 1, 1      ; [ALU_PRU] |279| 
    1243 000001ac 000000090801E1          LSL       r1, r1.b0, 0x08       ; [ALU_PRU] |279| 
    1244 000001b0 000000F1000000          LBBO      &r0.b0, r0, 0, 1      ; [ALU_PRU] |279| 
    1245 000001b4 00000012E100E0          OR        r0, r0.b0, r1         ; [ALU_PRU] |279| 
    1246 000001b8 000000108080E0          MOV       r0, r0.w0             ; [ALU_PRU] |279| 
    1247 000001bc 000000C90FE002          QBBC      ||$C$L14||, r0, 0x0f  ; [ALU_PRU] |279| 
    1248;* --------------------------------------------------------------------------*
    1249 000001c0 00000024FFFFC0          LDI       r0.w2, 0xffff         ; [ALU_PRU] |279| 
    1250;* --------------------------------------------------------------------------*
    1251 000001c4                 ||$C$L14||:    
    1252 000001c4 0000000902E0E1          LSL       r1, r0, 0x02          ; [ALU_PRU] |279| 
    1253 000001c8 003080240000C0!         LDI32     r0, ||ctrlData||+48   ; [ALU_PRU] |279| ctrlData
         000001cf 00000021004024 
    1254 000001d0 00000000E0E1E0          ADD       r0, r1, r0            ; [ALU_PRU] |279| 
    1255 000001d4 000000108E8EE1          MOV       r1, r14.w0            ; [ALU_PRU] |279| 
    1256 000001d8 000000E1000001          SBBO      &r1.b0, r0, 0, 1      ; [ALU_PRU] |279| 
    1257 000001dc 0000000B088EE1          LSR       r1, r14.w0, 0x08      ; [ALU_PRU] |279| 
    1258 000001e0 000000E1010001          SBBO      &r1.b0, r0, 1, 1      ; [ALU_PRU] |279| 
    1259        .dwpsn  file "../mcp3202.c",line 281,column 3,is_stmt,isa 0
    1260 000001e4 0000002400008E          LDI       r14.w0, 0x0000        ; [ALU_PRU] |281| 
    1261 000001e8 002880240000C0!         LDI32     r0, ||ctrlData||+40   ; [ALU_PRU] |281| ctrlData
         000001ef 00000021004024 
    1262 000001f0 000000108E8EE1          MOV       r1, r14.w0            ; [ALU_PRU] |281| 
    1263 000001f4 000000E1000001          SBBO      &r1.b0, r0, 0, 1      ; [ALU_PRU] |281| 
    1264 000001f8 0000000B088EE1          LSR       r1, r14.w0, 0x08      ; [ALU_PRU] |281| 
    1265 000001fc 000000E1010001          SBBO      &r1.b0, r0, 1, 1      ; [ALU_PRU] |281| 
    1266        .dwpsn  file "../mcp3202.c",line 282,column 3,is_stmt,isa 0
PRU Assembler Unix v2.1.2 Wed Sep  7 12:11:05 2016

Tools Copyright (c) 2012-2015 Texas Instruments Incorporated
mcp3202.asm                                                          PAGE   25

    1267 00000200 000000108E8EE1          MOV       r1, r14.w0            ; [ALU_PRU] |282| 
    1268 00000204 002A80240000C0!         LDI32     r0, ||ctrlData||+42   ; [ALU_PRU] |282| ctrlData
         0000020b 00000021004024 
    1269 0000020c 000000E1000001          SBBO      &r1.b0, r0, 0, 1      ; [ALU_PRU] |282| 
    1270 00000210 0000000B088EE1          LSR       r1, r14.w0, 0x08      ; [ALU_PRU] |282| 
    1271 00000214 000000E1010001          SBBO      &r1.b0, r0, 1, 1      ; [ALU_PRU] |282| 
    1272        .dwpsn  file "../mcp3202.c",line 286,column 3,is_stmt,isa 0
    1273 00000218 002480240000C0!         LDI32     r0, ||ctrlData||+36   ; [ALU_PRU] |286| ctrlData
         0000021f 00000021004024 
    1274 00000220 000000F1010001          LBBO      &r1.b0, r0, 1, 1      ; [ALU_PRU] |286| 
    1275 00000224 000000090801E1          LSL       r1, r1.b0, 0x08       ; [ALU_PRU] |286| 
    1276 00000228 000000F1000000          LBBO      &r0.b0, r0, 0, 1      ; [ALU_PRU] |286| 
    1277 0000022c 00000012E100E0          OR        r0, r0.b0, r1         ; [ALU_PRU] |286| 
    1278 00000230 002481240000C1!         LDI32     r1, ||ctrlData||+36   ; [ALU_PRU] |286| ctrlData
         00000237 00000021004024 
    1279 00000238 0000000101808E          ADD       r14.w0, r0.w0, 0x01   ; [ALU_PRU] |286| 
    1280 0000023c 000000108E8EE0          MOV       r0, r14.w0            ; [ALU_PRU] |286| 
    1281 00000240 000000E1000100          SBBO      &r0.b0, r1, 0, 1      ; [ALU_PRU] |286| 
    1282 00000244 000000108E8EE0          MOV       r0, r14.w0            ; [ALU_PRU] |286| 
    1283 00000248 000000C90FE002          QBBC      ||$C$L15||, r0, 0x0f  ; [ALU_PRU] |286| 
    1284;* --------------------------------------------------------------------------*
    1285 0000024c 00000024FFFFC0          LDI       r0.w2, 0xffff         ; [ALU_PRU] |286| 
    1286;* --------------------------------------------------------------------------*
    1287 00000250                 ||$C$L15||:    
    1288 00000250 0000000B08E0E0          LSR       r0, r0, 0x08          ; [ALU_PRU] |286| 
    1289 00000254 000000E1010100          SBBO      &r0.b0, r1, 1, 1      ; [ALU_PRU] |286| 
    1290        .dwpsn  file "../mcp3202.c",line 287,column 3,is_stmt,isa 0
    1291 00000258 002280240000C0!         LDI32     r0, ||ctrlData||+34   ; [ALU_PRU] |287| ctrlData
         0000025f 00000021004024 
    1292 00000260 000000F1010001          LBBO      &r1.b0, r0, 1, 1      ; [ALU_PRU] |287| 
    1293 00000264 000000090801E1          LSL       r1, r1.b0, 0x08       ; [ALU_PRU] |287| 
    1294 00000268 000000F1000000          LBBO      &r0.b0, r0, 0, 1      ; [ALU_PRU] |287| 
    1295 0000026c 00000012E100E0          OR        r0, r0.b0, r1         ; [ALU_PRU] |287| 
    1296 00000270 0000000101808E          ADD       r14.w0, r0.w0, 0x01   ; [ALU_PRU] |287| 
    1297 00000274 002281240000C1!         LDI32     r1, ||ctrlData||+34   ; [ALU_PRU] |287| ctrlData
         0000027b 00000021004024 
    1298 0000027c 000000108E8EE0          MOV       r0, r14.w0            ; [ALU_PRU] |287| 
    1299 00000280 000000E1000100          SBBO      &r0.b0, r1, 0, 1      ; [ALU_PRU] |287| 
    1300 00000284 000000108E8EE0          MOV       r0, r14.w0            ; [ALU_PRU] |287| 
    1301 00000288 000000C90FE002          QBBC      ||$C$L16||, r0, 0x0f  ; [ALU_PRU] |287| 
    1302;* --------------------------------------------------------------------------*
    1303 0000028c 00000024FFFFC0          LDI       r0.w2, 0xffff         ; [ALU_PRU] |287| 
    1304;* --------------------------------------------------------------------------*
    1305 00000290                 ||$C$L16||:    
    1306 00000290 0000000B08E0E0          LSR       r0, r0, 0x08          ; [ALU_PRU] |287| 
    1307 00000294 000000E1010100          SBBO      &r0.b0, r1, 1, 1      ; [ALU_PRU] |287| 
    1308        .dwpsn  file "../mcp3202.c",line 289,column 3,is_stmt,isa 0
    1309 00000298 002280240000C0!         LDI32     r0, ||ctrlData||+34   ; [ALU_PRU] |289| ctrlData
         0000029f 00000021004024 
    1310 000002a0 000000F1010001          LBBO      &r1.b0, r0, 1, 1      ; [ALU_PRU] |289| 
    1311 000002a4 000000090801E1          LSL       r1, r1.b0, 0x08       ; [ALU_PRU] |289| 
    1312 000002a8 000000F1000000          LBBO      &r0.b0, r0, 0, 1      ; [ALU_PRU] |289| 
    1313 000002ac 00000012E100E0          OR        r0, r0.b0, r1         ; [ALU_PRU] |289| 
    1314 000002b0 000000108080C0          MOV       r0.w2, r0.w0          ; [ALU_PRU] |289| 
    1315 000002b4 00000015806060          XOR       r0.b3, r0.b3, 0x80    ; [ALU_PRU] |289| 
PRU Assembler Unix v2.1.2 Wed Sep  7 12:11:05 2016

Tools Copyright (c) 2012-2015 Texas Instruments Incorporated
mcp3202.asm                                                          PAGE   26

    1316 000002b8 00000024010080          LDI       r0.w0, 0x0100         ; [ALU_PRU] |289| 
    1317 000002bc 00000015802020          XOR       r0.b1, r0.b1, 0x80    ; [ALU_PRU] |289| 
    1318 000002c0 00000058C0800B          QBLE      ||$C$L18||, r0.w0, r0.w2 ; [ALU_PRU] |289| 
    1319;* --------------------------------------------------------------------------*
    1320        .dwpsn  file "../mcp3202.c",line 290,column 4,is_stmt,isa 0
    1321 000002c4 0000002401008E          LDI       r14.w0, 0x0100        ; [ALU_PRU] |290| 
    1322 000002c8 002281240000C1!         LDI32     r1, ||ctrlData||+34   ; [ALU_PRU] |290| ctrlData
         000002cf 00000021004024 
    1323 000002d0 000000108E8EE0          MOV       r0, r14.w0            ; [ALU_PRU] |290| 
    1324 000002d4 000000E1000100          SBBO      &r0.b0, r1, 0, 1      ; [ALU_PRU] |290| 
    1325 000002d8 000000108E8EE0          MOV       r0, r14.w0            ; [ALU_PRU] |290| 
    1326 000002dc 000000C90FE002          QBBC      ||$C$L17||, r0, 0x0f  ; [ALU_PRU] |290| 
    1327;* --------------------------------------------------------------------------*
    1328 000002e0 00000024FFFFC0          LDI       r0.w2, 0xffff         ; [ALU_PRU] |290| 
    1329;* --------------------------------------------------------------------------*
    1330 000002e4                 ||$C$L17||:    
    1331 000002e4 0000000B08E0E0          LSR       r0, r0, 0x08          ; [ALU_PRU] |290| 
    1332 000002e8 000000E1010100          SBBO      &r0.b0, r1, 1, 1      ; [ALU_PRU] |290| 
    1333;* --------------------------------------------------------------------------*
    1334 000002ec                 ||$C$L18||:    
    1335        .dwpsn  file "../mcp3202.c",line 292,column 3,is_stmt,isa 0
    1336 000002ec 002480240000C0!         LDI32     r0, ||ctrlData||+36   ; [ALU_PRU] |292| ctrlData
         000002f3 00000021004024 
    1337 000002f4 000000F1010001          LBBO      &r1.b0, r0, 1, 1      ; [ALU_PRU] |292| 
    1338 000002f8 000000090801E1          LSL       r1, r1.b0, 0x08       ; [ALU_PRU] |292| 
    1339 000002fc 000000F1000000          LBBO      &r0.b0, r0, 0, 1      ; [ALU_PRU] |292| 
    1340 00000300 00000012E100E0          OR        r0, r0.b0, r1         ; [ALU_PRU] |292| 
    1341 00000304 000000108080C0          MOV       r0.w2, r0.w0          ; [ALU_PRU] |292| 
    1342 00000308 00000015806060          XOR       r0.b3, r0.b3, 0x80    ; [ALU_PRU] |292| 
    1343 0000030c 00000024010080          LDI       r0.w0, 0x0100         ; [ALU_PRU] |292| 
    1344 00000310 00000015802020          XOR       r0.b1, r0.b1, 0x80    ; [ALU_PRU] |292| 
    1345 00000314 00000048C0800B          QBLT      ||$C$L20||, r0.w0, r0.w2 ; [ALU_PRU] |292| 
    1346;* --------------------------------------------------------------------------*
    1347        .dwpsn  file "../mcp3202.c",line 293,column 4,is_stmt,isa 0
    1348 00000318 0000002400008E          LDI       r14.w0, 0x0000        ; [ALU_PRU] |293| 
    1349 0000031c 002481240000C1!         LDI32     r1, ||ctrlData||+36   ; [ALU_PRU] |293| ctrlData
         00000323 00000021004024 
    1350 00000324 000000108E8EE0          MOV       r0, r14.w0            ; [ALU_PRU] |293| 
    1351 00000328 000000E1000100          SBBO      &r0.b0, r1, 0, 1      ; [ALU_PRU] |293| 
    1352 0000032c 000000108E8EE0          MOV       r0, r14.w0            ; [ALU_PRU] |293| 
    1353 00000330 000000C90FE002          QBBC      ||$C$L19||, r0, 0x0f  ; [ALU_PRU] |293| 
    1354;* --------------------------------------------------------------------------*
    1355 00000334 00000024FFFFC0          LDI       r0.w2, 0xffff         ; [ALU_PRU] |293| 
    1356;* --------------------------------------------------------------------------*
    1357 00000338                 ||$C$L19||:    
    1358 00000338 0000000B08E0E0          LSR       r0, r0, 0x08          ; [ALU_PRU] |293| 
    1359 0000033c 000000E1010100          SBBO      &r0.b0, r1, 1, 1      ; [ALU_PRU] |293| 
    1360;* --------------------------------------------------------------------------*
    1361 00000340                 ||$C$L20||:    
    1362        .dwpsn  file "../mcp3202.c",line 295,column 3,is_stmt,isa 0
    1363 00000340 002680240000C0!         LDI32     r0, ||ctrlData||+38   ; [ALU_PRU] |295| ctrlData
         00000347 00000021004024 
    1364 00000348 000000F1010001          LBBO      &r1.b0, r0, 1, 1      ; [ALU_PRU] |295| 
    1365 0000034c 000000090801E1          LSL       r1, r1.b0, 0x08       ; [ALU_PRU] |295| 
    1366 00000350 000000F1000000          LBBO      &r0.b0, r0, 0, 1      ; [ALU_PRU] |295| 
PRU Assembler Unix v2.1.2 Wed Sep  7 12:11:05 2016

Tools Copyright (c) 2012-2015 Texas Instruments Incorporated
mcp3202.asm                                                          PAGE   27

    1367 00000354 00000012E100EE          OR        r14, r0.b0, r1        ; [ALU_PRU] |295| 
    1368 00000358 002480240000C0!         LDI32     r0, ||ctrlData||+36   ; [ALU_PRU] |295| ctrlData
         0000035f 00000021004024 
    1369 00000360 000000F1010001          LBBO      &r1.b0, r0, 1, 1      ; [ALU_PRU] |295| 
    1370 00000364 000000090801E1          LSL       r1, r1.b0, 0x08       ; [ALU_PRU] |295| 
    1371 00000368 000000F1000000          LBBO      &r0.b0, r0, 0, 1      ; [ALU_PRU] |295| 
    1372 0000036c 00000012E100E0          OR        r0, r0.b0, r1         ; [ALU_PRU] |295| 
    1373 00000370 00000068808E26          QBNE      ||$C$L23||, r14.w0, r0.w0 ; [ALU_PRU] |295| 
    1374;* --------------------------------------------------------------------------*
    1375        .dwpsn  file "../mcp3202.c",line 298,column 4,is_stmt,isa 0
    1376 00000374 002680240000C0!         LDI32     r0, ||ctrlData||+38   ; [ALU_PRU] |298| ctrlData
         0000037b 00000021004024 
    1377 0000037c 000000F1010001          LBBO      &r1.b0, r0, 1, 1      ; [ALU_PRU] |298| 
    1378 00000380 000000090801E1          LSL       r1, r1.b0, 0x08       ; [ALU_PRU] |298| 
    1379 00000384 000000F1000000          LBBO      &r0.b0, r0, 0, 1      ; [ALU_PRU] |298| 
    1380 00000388 00000012E100E0          OR        r0, r0.b0, r1         ; [ALU_PRU] |298| 
    1381 0000038c 0000000101808E          ADD       r14.w0, r0.w0, 0x01   ; [ALU_PRU] |298| 
    1382 00000390 002681240000C1!         LDI32     r1, ||ctrlData||+38   ; [ALU_PRU] |298| ctrlData
         00000397 00000021004024 
    1383 00000398 000000108E8EE0          MOV       r0, r14.w0            ; [ALU_PRU] |298| 
    1384 0000039c 000000E1000100          SBBO      &r0.b0, r1, 0, 1      ; [ALU_PRU] |298| 
    1385 000003a0 000000108E8EE0          MOV       r0, r14.w0            ; [ALU_PRU] |298| 
    1386 000003a4 000000C90FE002          QBBC      ||$C$L21||, r0, 0x0f  ; [ALU_PRU] |298| 
    1387;* --------------------------------------------------------------------------*
    1388 000003a8 00000024FFFFC0          LDI       r0.w2, 0xffff         ; [ALU_PRU] |298| 
    1389;* --------------------------------------------------------------------------*
    1390 000003ac                 ||$C$L21||:    
    1391 000003ac 0000000B08E0E0          LSR       r0, r0, 0x08          ; [ALU_PRU] |298| 
    1392 000003b0 000000E1010100          SBBO      &r0.b0, r1, 1, 1      ; [ALU_PRU] |298| 
    1393        .dwpsn  file "../mcp3202.c",line 299,column 4,is_stmt,isa 0
    1394 000003b4 002680240000C0!         LDI32     r0, ||ctrlData||+38   ; [ALU_PRU] |299| ctrlData
         000003bb 00000021004024 
    1395 000003bc 000000F1010001          LBBO      &r1.b0, r0, 1, 1      ; [ALU_PRU] |299| 
    1396 000003c0 000000090801E1          LSL       r1, r1.b0, 0x08       ; [ALU_PRU] |299| 
    1397 000003c4 000000F1000000          LBBO      &r0.b0, r0, 0, 1      ; [ALU_PRU] |299| 
    1398 000003c8 00000012E100E0          OR        r0, r0.b0, r1         ; [ALU_PRU] |299| 
    1399 000003cc 000000108080C0          MOV       r0.w2, r0.w0          ; [ALU_PRU] |299| 
    1400 000003d0 00000015806060          XOR       r0.b3, r0.b3, 0x80    ; [ALU_PRU] |299| 
    1401 000003d4 00000024010080          LDI       r0.w0, 0x0100         ; [ALU_PRU] |299| 
    1402 000003d8 00000015802020          XOR       r0.b1, r0.b1, 0x80    ; [ALU_PRU] |299| 
    1403 000003dc 00000048C0800B          QBLT      ||$C$L23||, r0.w0, r0.w2 ; [ALU_PRU] |299| 
    1404;* --------------------------------------------------------------------------*
    1405        .dwpsn  file "../mcp3202.c",line 300,column 5,is_stmt,isa 0
    1406 000003e0 0000002400008E          LDI       r14.w0, 0x0000        ; [ALU_PRU] |300| 
    1407 000003e4 002681240000C1!         LDI32     r1, ||ctrlData||+38   ; [ALU_PRU] |300| ctrlData
         000003eb 00000021004024 
    1408 000003ec 000000108E8EE0          MOV       r0, r14.w0            ; [ALU_PRU] |300| 
    1409 000003f0 000000E1000100          SBBO      &r0.b0, r1, 0, 1      ; [ALU_PRU] |300| 
    1410 000003f4 000000108E8EE0          MOV       r0, r14.w0            ; [ALU_PRU] |300| 
    1411 000003f8 000000C90FE002          QBBC      ||$C$L22||, r0, 0x0f  ; [ALU_PRU] |300| 
    1412;* --------------------------------------------------------------------------*
    1413 000003fc 00000024FFFFC0          LDI       r0.w2, 0xffff         ; [ALU_PRU] |300| 
    1414;* --------------------------------------------------------------------------*
    1415 00000400                 ||$C$L22||:    
    1416 00000400 0000000B08E0E0          LSR       r0, r0, 0x08          ; [ALU_PRU] |300| 
PRU Assembler Unix v2.1.2 Wed Sep  7 12:11:05 2016

Tools Copyright (c) 2012-2015 Texas Instruments Incorporated
mcp3202.asm                                                          PAGE   28

    1417 00000404 000000E1010100          SBBO      &r0.b0, r1, 1, 1      ; [ALU_PRU] |300| 
    1418;* --------------------------------------------------------------------------*
    1419 00000408                 ||$C$L23||:    
    1420        .dwpsn  file "../mcp3202.c",line 305,column 3,is_stmt,isa 0
    1421 00000408 002080240000C0!         LDI32     r0, ||ctrlData||+32   ; [ALU_PRU] |305| ctrlData
         0000040f 00000021004024 
    1422 00000410 000000F1010001          LBBO      &r1.b0, r0, 1, 1      ; [ALU_PRU] |305| 
    1423 00000414 000000090801E1          LSL       r1, r1.b0, 0x08       ; [ALU_PRU] |305| 
    1424 00000418 000000F1000000          LBBO      &r0.b0, r0, 0, 1      ; [ALU_PRU] |305| 
    1425 0000041c 00000012E100E0          OR        r0, r0.b0, r1         ; [ALU_PRU] |305| 
    1426 00000420 00000051008008          QBEQ      ||$C$L24||, r0.w0, 0x00 ; [ALU_PRU] |305| 
    1427;* --------------------------------------------------------------------------*
    1428        .dwpsn  file "../mcp3202.c",line 306,column 4,is_stmt,isa 0
    1429 00000424 0000002400008E          LDI       r14.w0, 0x0000        ; [ALU_PRU] |306| 
    1430 00000428 002080240000C0!         LDI32     r0, ||ctrlData||+32   ; [ALU_PRU] |306| ctrlData
         0000042f 00000021004024 
    1431 00000430 000000108E8EE1          MOV       r1, r14.w0            ; [ALU_PRU] |306| 
    1432 00000434 000000E1000001          SBBO      &r1.b0, r0, 0, 1      ; [ALU_PRU] |306| 
    1433 00000438 0000000B088EE1          LSR       r1, r14.w0, 0x08      ; [ALU_PRU] |306| 
    1434 0000043c 000000E1010001          SBBO      &r1.b0, r0, 1, 1      ; [ALU_PRU] |306| 
    1435        .dwpsn  file "../mcp3202.c",line 308,column 1,is_stmt,isa 0
    1436;* --------------------------------------------------------------------------*
    1437 00000440                 ||$C$L24||:    
    1438 00000440 0000000104E2E2          ADD       r2, r2, 0x04          ; [ALU_PRU] 
    1439        .dwcfi  cfa_offset, 0
    1440$C$DW$119       .dwtag  DW_TAG_TI_branch
    1441        .dwattr $C$DW$119, DW_AT_low_pc(0x00)
    1442        .dwattr $C$DW$119, DW_AT_TI_return
    1443 00000444 00000020C30000          JMP       r3.w2                 ; [ALU_PRU] 
    1444        .dwattr $C$DW$114, DW_AT_TI_end_file("../mcp3202.c")
    1445        .dwattr $C$DW$114, DW_AT_TI_end_line(0x134)
    1446        .dwattr $C$DW$114, DW_AT_TI_end_column(0x01)
    1447        .dwendentry
    1448        .dwendtag $C$DW$114
    1449
    1450 00000000                         .sect   ".text:init_data"
    1451        .clink
    1452        .global ||init_data||
    1453
    1454$C$DW$120       .dwtag  DW_TAG_subprogram, DW_AT_name("init_data")
    1455        .dwattr $C$DW$120, DW_AT_low_pc(||init_data||)
    1456        .dwattr $C$DW$120, DW_AT_high_pc(0x00)
    1457        .dwattr $C$DW$120, DW_AT_TI_symbol_name("init_data")
    1458        .dwattr $C$DW$120, DW_AT_external
    1459        .dwattr $C$DW$120, DW_AT_TI_begin_file("../mcp3202.c")
    1460        .dwattr $C$DW$120, DW_AT_TI_begin_line(0x13e)
    1461        .dwattr $C$DW$120, DW_AT_TI_begin_column(0x06)
    1462        .dwattr $C$DW$120, DW_AT_decl_file("../mcp3202.c")
    1463        .dwattr $C$DW$120, DW_AT_decl_line(0x13e)
    1464        .dwattr $C$DW$120, DW_AT_decl_column(0x06)
    1465        .dwattr $C$DW$120, DW_AT_TI_max_frame_size(0x04)
    1466        .dwpsn  file "../mcp3202.c",line 319,column 1,is_stmt,address ||init_data||,isa 0
    1467
    1468        .dwfde $C$DW$CIE, ||init_data||
    1469
PRU Assembler Unix v2.1.2 Wed Sep  7 12:11:05 2016

Tools Copyright (c) 2012-2015 Texas Instruments Incorporated
mcp3202.asm                                                          PAGE   29

    1470;***************************************************************
    1471;* FNAME: init_data                     FR SIZE:   4           *
    1472;*                                                             *
    1473;* FUNCTION ENVIRONMENT                                        *
    1474;*                                                             *
    1475;* FUNCTION PROPERTIES                                         *
    1476;*                            4 Auto,  0 SOE     *
    1477;***************************************************************
    1478
    1479 00000000                 ||init_data||:
    1480;* --------------------------------------------------------------------------*
    1481        .dwcfi  cfa_offset, 0
    1482 00000000 0000000504E2E2          SUB       r2, r2, 0x04          ; [ALU_PRU] 
    1483        .dwcfi  cfa_offset, 4
    1484$C$DW$121       .dwtag  DW_TAG_variable, DW_AT_name("i")
    1485        .dwattr $C$DW$121, DW_AT_TI_symbol_name("i")
    1486        .dwattr $C$DW$121, DW_AT_type(*$C$DW$T$10)
    1487        .dwattr $C$DW$121, DW_AT_location[DW_OP_breg8 0]
    1488 00000004 00000010000000          NOP                             ; [ALU_PRU] 
    1489        .dwpsn  file "../mcp3202.c",line 324,column 2,is_stmt,isa 0
    1490 00000008 0000002EFF8181          ZERO      &r1, 4                ; [ALU_PRU] |324| 
    1491 0000000c 001480240000C0!         LDI32     r0, ||ctrlData||+20   ; [ALU_PRU] |324| ctrlData
         00000013 00000021004024 
    1492 00000014 0000000B08E1EE          LSR       r14, r1, 0x08         ; [ALU_PRU] |324| 
    1493 00000018 000000E1000001          SBBO      &r1.b0, r0, 0, 1      ; [ALU_PRU] |324| 
    1494 0000001c 000000E101000E          SBBO      &r14.b0, r0, 1, 1     ; [ALU_PRU] |324| 
    1495 00000020 0000000B10E1EE          LSR       r14, r1, 0x10         ; [ALU_PRU] |324| 
    1496 00000024 000000E102000E          SBBO      &r14.b0, r0, 2, 1     ; [ALU_PRU] |324| 
    1497 00000028 0000000B18E1E1          LSR       r1, r1, 0x18          ; [ALU_PRU] |324| 
    1498 0000002c 000000E1030001          SBBO      &r1.b0, r0, 3, 1      ; [ALU_PRU] |324| 
    1499        .dwpsn  file "../mcp3202.c",line 325,column 2,is_stmt,isa 0
    1500 00000030 0000002413888E          LDI       r14.w0, 0x1388        ; [ALU_PRU] |325| 
    1501 00000034 000000108E8EE1          MOV       r1, r14.w0            ; [ALU_PRU] |325| 
    1502 00000038 001080240000C0!         LDI32     r0, ||ctrlData||+16   ; [ALU_PRU] |325| ctrlData
         0000003f 00000021004024 
    1503 00000040 000000E1000001          SBBO      &r1.b0, r0, 0, 1      ; [ALU_PRU] |325| 
    1504 00000044 0000000B088EE1          LSR       r1, r14.w0, 0x08      ; [ALU_PRU] |325| 
    1505 00000048 000000E1010001          SBBO      &r1.b0, r0, 1, 1      ; [ALU_PRU] |325| 
    1506        .dwpsn  file "../mcp3202.c",line 326,column 2,is_stmt,isa 0
    1507 0000004c 0000002400008E          LDI       r14.w0, 0x0000        ; [ALU_PRU] |326| 
    1508 00000050 001A80240000C0!         LDI32     r0, ||ctrlData||+26   ; [ALU_PRU] |326| ctrlData
         00000057 00000021004024 
    1509 00000058 000000108E8EE1          MOV       r1, r14.w0            ; [ALU_PRU] |326| 
    1510 0000005c 000000E1000001          SBBO      &r1.b0, r0, 0, 1      ; [ALU_PRU] |326| 
    1511 00000060 0000000B088EE1          LSR       r1, r14.w0, 0x08      ; [ALU_PRU] |326| 
    1512 00000064 000000E1010001          SBBO      &r1.b0, r0, 1, 1      ; [ALU_PRU] |326| 
    1513        .dwpsn  file "../mcp3202.c",line 327,column 2,is_stmt,isa 0
    1514 00000068 000000108E8EE1          MOV       r1, r14.w0            ; [ALU_PRU] |327| 
    1515 0000006c 001E80240000C0!         LDI32     r0, ||ctrlData||+30   ; [ALU_PRU] |327| ctrlData
         00000073 00000021004024 
    1516 00000074 000000E1000001          SBBO      &r1.b0, r0, 0, 1      ; [ALU_PRU] |327| 
    1517 00000078 0000000B088EE1          LSR       r1, r14.w0, 0x08      ; [ALU_PRU] |327| 
    1518 0000007c 000000E1010001          SBBO      &r1.b0, r0, 1, 1      ; [ALU_PRU] |327| 
    1519        .dwpsn  file "../mcp3202.c",line 328,column 2,is_stmt,isa 0
    1520 00000080 000000108E8EE1          MOV       r1, r14.w0            ; [ALU_PRU] |328| 
PRU Assembler Unix v2.1.2 Wed Sep  7 12:11:05 2016

Tools Copyright (c) 2012-2015 Texas Instruments Incorporated
mcp3202.asm                                                          PAGE   30

    1521 00000084 001C80240000C0!         LDI32     r0, ||ctrlData||+28   ; [ALU_PRU] |328| ctrlData
         0000008b 00000021004024 
    1522 0000008c 000000E1000001          SBBO      &r1.b0, r0, 0, 1      ; [ALU_PRU] |328| 
    1523 00000090 0000000B088EE1          LSR       r1, r14.w0, 0x08      ; [ALU_PRU] |328| 
    1524 00000094 000000E1010001          SBBO      &r1.b0, r0, 1, 1      ; [ALU_PRU] |328| 
    1525        .dwpsn  file "../mcp3202.c",line 329,column 2,is_stmt,isa 0
    1526 00000098 0000002400018E          LDI       r14.w0, 0x0001        ; [ALU_PRU] |329| 
    1527 0000009c 001880240000C0!         LDI32     r0, ||ctrlData||+24   ; [ALU_PRU] |329| ctrlData
         000000a3 00000021004024 
    1528 000000a4 000000108E8EE1          MOV       r1, r14.w0            ; [ALU_PRU] |329| 
    1529 000000a8 000000E1000001          SBBO      &r1.b0, r0, 0, 1      ; [ALU_PRU] |329| 
    1530 000000ac 0000000B088EE1          LSR       r1, r14.w0, 0x08      ; [ALU_PRU] |329| 
    1531 000000b0 000000E1010001          SBBO      &r1.b0, r0, 1, 1      ; [ALU_PRU] |329| 
    1532        .dwpsn  file "../mcp3202.c",line 330,column 2,is_stmt,isa 0
    1533 000000b4 0000002400078E          LDI       r14.w0, 0x0007        ; [ALU_PRU] |330| 
    1534 000000b8 000680240000C0!         LDI32     r0, ||ctrlData||+6    ; [ALU_PRU] |330| ctrlData
         000000bf 00000021004024 
    1535 000000c0 000000108E8EE1          MOV       r1, r14.w0            ; [ALU_PRU] |330| 
    1536 000000c4 000000E1000001          SBBO      &r1.b0, r0, 0, 1      ; [ALU_PRU] |330| 
    1537 000000c8 0000000B088EE1          LSR       r1, r14.w0, 0x08      ; [ALU_PRU] |330| 
    1538 000000cc 000000E1010001          SBBO      &r1.b0, r0, 1, 1      ; [ALU_PRU] |330| 
    1539        .dwpsn  file "../mcp3202.c",line 331,column 2,is_stmt,isa 0
    1540 000000d0 0000002400068E          LDI       r14.w0, 0x0006        ; [ALU_PRU] |331| 
    1541 000000d4 000880240000C0!         LDI32     r0, ||ctrlData||+8    ; [ALU_PRU] |331| ctrlData
         000000db 00000021004024 
    1542 000000dc 000000108E8EE1          MOV       r1, r14.w0            ; [ALU_PRU] |331| 
    1543 000000e0 000000E1000001          SBBO      &r1.b0, r0, 0, 1      ; [ALU_PRU] |331| 
    1544 000000e4 0000000B088EE1          LSR       r1, r14.w0, 0x08      ; [ALU_PRU] |331| 
    1545 000000e8 000000E1010001          SBBO      &r1.b0, r0, 1, 1      ; [ALU_PRU] |331| 
    1546        .dwpsn  file "../mcp3202.c",line 332,column 2,is_stmt,isa 0
    1547 000000ec 0000002400048E          LDI       r14.w0, 0x0004        ; [ALU_PRU] |332| 
    1548 000000f0 000A80240000C0!         LDI32     r0, ||ctrlData||+10   ; [ALU_PRU] |332| ctrlData
         000000f7 00000021004024 
    1549 000000f8 000000108E8EE1          MOV       r1, r14.w0            ; [ALU_PRU] |332| 
    1550 000000fc 000000E1000001          SBBO      &r1.b0, r0, 0, 1      ; [ALU_PRU] |332| 
    1551 00000100 0000000B088EE1          LSR       r1, r14.w0, 0x08      ; [ALU_PRU] |332| 
    1552 00000104 000000E1010001          SBBO      &r1.b0, r0, 1, 1      ; [ALU_PRU] |332| 
    1553        .dwpsn  file "../mcp3202.c",line 333,column 2,is_stmt,isa 0
    1554 00000108 00000024000D8E          LDI       r14.w0, 0x000d        ; [ALU_PRU] |333| 
    1555 0000010c 000C80240000C0!         LDI32     r0, ||ctrlData||+12   ; [ALU_PRU] |333| ctrlData
         00000113 00000021004024 
    1556 00000114 000000108E8EE1          MOV       r1, r14.w0            ; [ALU_PRU] |333| 
    1557 00000118 000000E1000001          SBBO      &r1.b0, r0, 0, 1      ; [ALU_PRU] |333| 
    1558 0000011c 0000000B088EE1          LSR       r1, r14.w0, 0x08      ; [ALU_PRU] |333| 
    1559 00000120 000000E1010001          SBBO      &r1.b0, r0, 1, 1      ; [ALU_PRU] |333| 
    1560        .dwpsn  file "../mcp3202.c",line 334,column 2,is_stmt,isa 0
    1561 00000124 0000002400048E          LDI       r14.w0, 0x0004        ; [ALU_PRU] |334| 
    1562 00000128 001280240000C0!         LDI32     r0, ||ctrlData||+18   ; [ALU_PRU] |334| ctrlData
         0000012f 00000021004024 
    1563 00000130 000000108E8EE1          MOV       r1, r14.w0            ; [ALU_PRU] |334| 
    1564 00000134 000000E1000001          SBBO      &r1.b0, r0, 0, 1      ; [ALU_PRU] |334| 
    1565 00000138 0000000B088EE1          LSR       r1, r14.w0, 0x08      ; [ALU_PRU] |334| 
    1566 0000013c 000000E1010001          SBBO      &r1.b0, r0, 1, 1      ; [ALU_PRU] |334| 
    1567        .dwpsn  file "../mcp3202.c",line 335,column 2,is_stmt,isa 0
    1568 00000140 0000002400018E          LDI       r14.w0, 0x0001        ; [ALU_PRU] |335| 
PRU Assembler Unix v2.1.2 Wed Sep  7 12:11:05 2016

Tools Copyright (c) 2012-2015 Texas Instruments Incorporated
mcp3202.asm                                                          PAGE   31

    1569 00000144 000480240000C0!         LDI32     r0, ||ctrlData||+4    ; [ALU_PRU] |335| ctrlData
         0000014b 00000021004024 
    1570 0000014c 000000108E8EE1          MOV       r1, r14.w0            ; [ALU_PRU] |335| 
    1571 00000150 000000E1000001          SBBO      &r1.b0, r0, 0, 1      ; [ALU_PRU] |335| 
    1572 00000154 0000000B088EE1          LSR       r1, r14.w0, 0x08      ; [ALU_PRU] |335| 
    1573 00000158 000000E1010001          SBBO      &r1.b0, r0, 1, 1      ; [ALU_PRU] |335| 
    1574        .dwpsn  file "../mcp3202.c",line 336,column 2,is_stmt,isa 0
    1575 0000015c 0000002400008E          LDI       r14.w0, 0x0000        ; [ALU_PRU] |336| 
    1576 00000160 000E80240000C0!         LDI32     r0, ||ctrlData||+14   ; [ALU_PRU] |336| ctrlData
         00000167 00000021004024 
    1577 00000168 000000108E8EE1          MOV       r1, r14.w0            ; [ALU_PRU] |336| 
    1578 0000016c 000000E1000001          SBBO      &r1.b0, r0, 0, 1      ; [ALU_PRU] |336| 
    1579 00000170 0000000B088EE1          LSR       r1, r14.w0, 0x08      ; [ALU_PRU] |336| 
    1580 00000174 000000E1010001          SBBO      &r1.b0, r0, 1, 1      ; [ALU_PRU] |336| 
    1581        .dwpsn  file "../mcp3202.c",line 340,column 2,is_stmt,isa 0
    1582 00000178 002481240000C1!         LDI32     r1, ||ctrlData||+36   ; [ALU_PRU] |340| ctrlData
         0000017f 00000021004024 
    1583 00000180 000000108E8EE0          MOV       r0, r14.w0            ; [ALU_PRU] |340| 
    1584 00000184 000000E1000100          SBBO      &r0.b0, r1, 0, 1      ; [ALU_PRU] |340| 
    1585 00000188 000000108E8EE0          MOV       r0, r14.w0            ; [ALU_PRU] |340| 
    1586 0000018c 000000C90FE002          QBBC      ||$C$L25||, r0, 0x0f  ; [ALU_PRU] |340| 
    1587;* --------------------------------------------------------------------------*
    1588 00000190 00000024FFFFC0          LDI       r0.w2, 0xffff         ; [ALU_PRU] |340| 
    1589;* --------------------------------------------------------------------------*
    1590 00000194                 ||$C$L25||:    
    1591 00000194 0000000B08E0E0          LSR       r0, r0, 0x08          ; [ALU_PRU] |340| 
    1592 00000198 000000E1010100          SBBO      &r0.b0, r1, 1, 1      ; [ALU_PRU] |340| 
    1593        .dwpsn  file "../mcp3202.c",line 341,column 2,is_stmt,isa 0
    1594 0000019c 002681240000C1!         LDI32     r1, ||ctrlData||+38   ; [ALU_PRU] |341| ctrlData
         000001a3 00000021004024 
    1595 000001a4 000000108E8EE0          MOV       r0, r14.w0            ; [ALU_PRU] |341| 
    1596 000001a8 000000E1000100          SBBO      &r0.b0, r1, 0, 1      ; [ALU_PRU] |341| 
    1597 000001ac 000000108E8EE0          MOV       r0, r14.w0            ; [ALU_PRU] |341| 
    1598 000001b0 000000C90FE002          QBBC      ||$C$L26||, r0, 0x0f  ; [ALU_PRU] |341| 
    1599;* --------------------------------------------------------------------------*
    1600 000001b4 00000024FFFFC0          LDI       r0.w2, 0xffff         ; [ALU_PRU] |341| 
    1601;* --------------------------------------------------------------------------*
    1602 000001b8                 ||$C$L26||:    
    1603 000001b8 0000000B08E0E0          LSR       r0, r0, 0x08          ; [ALU_PRU] |341| 
    1604 000001bc 000000E1010100          SBBO      &r0.b0, r1, 1, 1      ; [ALU_PRU] |341| 
    1605        .dwpsn  file "../mcp3202.c",line 342,column 2,is_stmt,isa 0
    1606 000001c0 002281240000C1!         LDI32     r1, ||ctrlData||+34   ; [ALU_PRU] |342| ctrlData
         000001c7 00000021004024 
    1607 000001c8 000000108E8EE0          MOV       r0, r14.w0            ; [ALU_PRU] |342| 
    1608 000001cc 000000E1000100          SBBO      &r0.b0, r1, 0, 1      ; [ALU_PRU] |342| 
    1609 000001d0 000000108E8EE0          MOV       r0, r14.w0            ; [ALU_PRU] |342| 
    1610 000001d4 000000C90FE002          QBBC      ||$C$L27||, r0, 0x0f  ; [ALU_PRU] |342| 
    1611;* --------------------------------------------------------------------------*
    1612 000001d8 00000024FFFFC0          LDI       r0.w2, 0xffff         ; [ALU_PRU] |342| 
    1613;* --------------------------------------------------------------------------*
    1614 000001dc                 ||$C$L27||:    
    1615 000001dc 0000000B08E0E0          LSR       r0, r0, 0x08          ; [ALU_PRU] |342| 
    1616 000001e0 000000E1010100          SBBO      &r0.b0, r1, 1, 1      ; [ALU_PRU] |342| 
    1617        .dwpsn  file "../mcp3202.c",line 343,column 2,is_stmt,isa 0
    1618 000001e4 000000108E8EE1          MOV       r1, r14.w0            ; [ALU_PRU] |343| 
PRU Assembler Unix v2.1.2 Wed Sep  7 12:11:05 2016

Tools Copyright (c) 2012-2015 Texas Instruments Incorporated
mcp3202.asm                                                          PAGE   32

    1619 000001e8 002080240000C0!         LDI32     r0, ||ctrlData||+32   ; [ALU_PRU] |343| ctrlData
         000001ef 00000021004024 
    1620 000001f0 000000E1000001          SBBO      &r1.b0, r0, 0, 1      ; [ALU_PRU] |343| 
    1621 000001f4 0000000B088EE1          LSR       r1, r14.w0, 0x08      ; [ALU_PRU] |343| 
    1622 000001f8 000000E1010001          SBBO      &r1.b0, r0, 1, 1      ; [ALU_PRU] |343| 
    1623        .dwpsn  file "../mcp3202.c",line 344,column 2,is_stmt,isa 0
    1624 000001fc 000000108E8EE1          MOV       r1, r14.w0            ; [ALU_PRU] |344| 
    1625 00000200 002880240000C0!         LDI32     r0, ||ctrlData||+40   ; [ALU_PRU] |344| ctrlData
         00000207 00000021004024 
    1626 00000208 000000E1000001          SBBO      &r1.b0, r0, 0, 1      ; [ALU_PRU] |344| 
    1627 0000020c 0000000B088EE1          LSR       r1, r14.w0, 0x08      ; [ALU_PRU] |344| 
    1628 00000210 000000E1010001          SBBO      &r1.b0, r0, 1, 1      ; [ALU_PRU] |344| 
    1629        .dwpsn  file "../mcp3202.c",line 345,column 2,is_stmt,isa 0
    1630 00000214 000000108E8EE1          MOV       r1, r14.w0            ; [ALU_PRU] |345| 
    1631 00000218 002A80240000C0!         LDI32     r0, ||ctrlData||+42   ; [ALU_PRU] |345| ctrlData
         0000021f 00000021004024 
    1632 00000220 000000E1000001          SBBO      &r1.b0, r0, 0, 1      ; [ALU_PRU] |345| 
    1633 00000224 0000000B088EE1          LSR       r1, r14.w0, 0x08      ; [ALU_PRU] |345| 
    1634 00000228 000000E1010001          SBBO      &r1.b0, r0, 1, 1      ; [ALU_PRU] |345| 
    1635        .dwpsn  file "../mcp3202.c",line 346,column 2,is_stmt,isa 0
    1636 0000022c 000000108E8EE1          MOV       r1, r14.w0            ; [ALU_PRU] |346| 
    1637 00000230 002C80240000C0!         LDI32     r0, ||ctrlData||+44   ; [ALU_PRU] |346| ctrlData
         00000237 00000021004024 
    1638 00000238 000000E1000001          SBBO      &r1.b0, r0, 0, 1      ; [ALU_PRU] |346| 
    1639 0000023c 0000000B088EE1          LSR       r1, r14.w0, 0x08      ; [ALU_PRU] |346| 
    1640 00000240 000000E1010001          SBBO      &r1.b0, r0, 1, 1      ; [ALU_PRU] |346| 
    1641        .dwpsn  file "../mcp3202.c",line 348,column 7,is_stmt,isa 0
    1642 00000244 000000240000E0          LDI       r0, 0x0000            ; [ALU_PRU] |348| 
    1643 00000248 000000E1002280          SBBO      &r0, r2, 0, 4         ; [ALU_PRU] |348| i
    1644        .dwpsn  file "../mcp3202.c",line 348,column 14,is_stmt,isa 0
    1645 0000024c 000000240100E0          LDI       r0, 0x0100            ; [ALU_PRU] |348| 
    1646 00000250 00000015806060          XOR       r0.b3, r0.b3, 0x80    ; [ALU_PRU] |348| 
    1647 00000254 000000F1002281          LBBO      &r1, r2, 0, 4         ; [ALU_PRU] |348| i
    1648 00000258 00000015806161          XOR       r1.b3, r1.b3, 0x80    ; [ALU_PRU] |348| 
    1649 0000025c 00000070E1E01D          QBGE      ||$C$L29||, r0, r1    ; [ALU_PRU] |348| 
    1650;* --------------------------------------------------------------------------*
    1651 00000260 000000240000D1          LDI       r17.w2, 0x0000        ; [ALU_PRU] |350| 
    1652 00000264 002E90240000D0!         LDI32     r16, ||ctrlData||+46  ; [ALU_PRU] |350| ctrlData
         0000026b 00000021004024 
    1653 0000026c 00000024000091          LDI       r17.w0, 0x0000        ; [ALU_PRU] |351| 
    1654 00000270 00308F240000CF!         LDI32     r15, ||ctrlData||+48  ; [ALU_PRU] |351| ctrlData
         00000277 00000021004024 
    1655 00000278 000000240100EE          LDI       r14, 0x0100           ; [ALU_PRU] |348| 
    1656;* --------------------------------------------------------------------------*
    1657;*   BEGIN LOOP ||$C$L28||
    1658;*
    1659;*   Loop source line                : 348
    1660;*   Loop closing brace source line  : 352
    1661;*   Known Minimum Trip Count        : 1
    1662;*   Known Maximum Trip Count        : 4294967295
    1663;*   Known Max Trip Count Factor     : 1
    1664;* --------------------------------------------------------------------------*
    1665 0000027c                 ||$C$L28||:    
    1666        .dwpsn  file "../mcp3202.c",line 350,column 3,is_stmt,isa 0
    1667 0000027c 000000F1002280          LBBO      &r0, r2, 0, 4         ; [ALU_PRU] |350| i
PRU Assembler Unix v2.1.2 Wed Sep  7 12:11:05 2016

Tools Copyright (c) 2012-2015 Texas Instruments Incorporated
mcp3202.asm                                                          PAGE   33

    1668 00000280 00000010D1D1E1          MOV       r1, r17.w2            ; [ALU_PRU] |350| 
    1669 00000284 0000000902E0E0          LSL       r0, r0, 0x02          ; [ALU_PRU] |350| 
    1670 00000288 00000000F0E0E0          ADD       r0, r0, r16           ; [ALU_PRU] |350| 
    1671 0000028c 000000E1000001          SBBO      &r1.b0, r0, 0, 1      ; [ALU_PRU] |350| 
    1672 00000290 0000000B08D1E1          LSR       r1, r17.w2, 0x08      ; [ALU_PRU] |350| 
    1673 00000294 000000E1010001          SBBO      &r1.b0, r0, 1, 1      ; [ALU_PRU] |350| 
    1674        .dwpsn  file "../mcp3202.c",line 351,column 3,is_stmt,isa 0
    1675 00000298 000000109191E1          MOV       r1, r17.w0            ; [ALU_PRU] |351| 
    1676 0000029c 000000F1002280          LBBO      &r0, r2, 0, 4         ; [ALU_PRU] |351| i
    1677 000002a0 0000000902E0E0          LSL       r0, r0, 0x02          ; [ALU_PRU] |351| 
    1678 000002a4 00000000EFE0E0          ADD       r0, r0, r15           ; [ALU_PRU] |351| 
    1679 000002a8 000000E1000001          SBBO      &r1.b0, r0, 0, 1      ; [ALU_PRU] |351| 
    1680 000002ac 0000000B0891E1          LSR       r1, r17.w0, 0x08      ; [ALU_PRU] |351| 
    1681 000002b0 000000E1010001          SBBO      &r1.b0, r0, 1, 1      ; [ALU_PRU] |351| 
    1682        .dwpsn  file "../mcp3202.c",line 348,column 30,is_stmt,isa 0
    1683 000002b4 000000F1002280          LBBO      &r0, r2, 0, 4         ; [ALU_PRU] |348| i
    1684 000002b8 0000000101E0E0          ADD       r0, r0, 0x01          ; [ALU_PRU] |348| 
    1685 000002bc 000000E1002280          SBBO      &r0, r2, 0, 4         ; [ALU_PRU] |348| i
    1686        .dwpsn  file "../mcp3202.c",line 348,column 14,is_stmt,isa 0
    1687 000002c0 00000015806060          XOR       r0.b3, r0.b3, 0x80    ; [ALU_PRU] |348| 
    1688 000002c4 00000010EEEEE1          MOV       r1, r14               ; [ALU_PRU] |348| 
    1689 000002c8 00000015806161          XOR       r1.b3, r1.b3, 0x80    ; [ALU_PRU] |348| 
    1690 000002cc 0000004EE0E1EC          QBLT      ||$C$L28||, r1, r0    ; [ALU_PRU] |348| 
    1691;* --------------------------------------------------------------------------*
    1692        .dwpsn  file "../mcp3202.c",line 353,column 1,is_stmt,isa 0
    1693;* --------------------------------------------------------------------------*
    1694 000002d0                 ||$C$L29||:    
    1695 000002d0 0000000104E2E2          ADD       r2, r2, 0x04          ; [ALU_PRU] 
    1696        .dwcfi  cfa_offset, 0
    1697$C$DW$122       .dwtag  DW_TAG_TI_branch
    1698        .dwattr $C$DW$122, DW_AT_low_pc(0x00)
    1699        .dwattr $C$DW$122, DW_AT_TI_return
    1700 000002d4 00000020C30000          JMP       r3.w2                 ; [ALU_PRU] 
    1701        .dwattr $C$DW$120, DW_AT_TI_end_file("../mcp3202.c")
    1702        .dwattr $C$DW$120, DW_AT_TI_end_line(0x161)
    1703        .dwattr $C$DW$120, DW_AT_TI_end_column(0x01)
    1704        .dwendentry
    1705        .dwendtag $C$DW$120
    1706
    1707;*****************************************************************************
    1708;* UNDEFINED EXTERNAL REFERENCES                                             *
    1709;*****************************************************************************
    1710        .global ||Is_RxDataReady||
    1711        .global ||SPI_ChannelSet||
    1712        .global ||SPI_ClkConfig||
    1713        .global ||SPI_CSPolaritySet||
    1714        .global ||SPI_CSSet||
    1715        .global ||SPI_DataPinDirection||
    1716        .global ||SPI_MasterModeEnable||
    1717        .global ||SPI_MasterModeSet||
    1718        .global ||SPI_ReceiveData||
    1719        .global ||SPI_Reset||
    1720        .global ||SPI_RxFIFODisable||
    1721        .global ||SPI_StartBitDisable||
    1722        .global ||SPI_StartBitEnable||
PRU Assembler Unix v2.1.2 Wed Sep  7 12:11:05 2016

Tools Copyright (c) 2012-2015 Texas Instruments Incorporated
mcp3202.asm                                                          PAGE   34

    1723        .global ||SPI_StartBitPolaritySet||
    1724        .global ||SPI_TransmitData||
    1725        .global ||SPI_TxFIFODisable||
    1726        .global ||SPI_WordCountSet||
    1727        .global ||SPI_WordLengthSet||
    1728
    1729;******************************************************************************
    1730;* TYPE INFORMATION                                                           *
    1731;******************************************************************************
    1732
    1733$C$DW$T$19      .dwtag  DW_TAG_structure_type
    1734        .dwattr $C$DW$T$19, DW_AT_byte_size(0x04)
    1735$C$DW$123       .dwtag  DW_TAG_member
    1736        .dwattr $C$DW$123, DW_AT_type(*$C$DW$T$11)
    1737        .dwattr $C$DW$123, DW_AT_name("REV_MINOR")
    1738        .dwattr $C$DW$123, DW_AT_TI_symbol_name("REV_MINOR")
    1739        .dwattr $C$DW$123, DW_AT_bit_offset(0x1a), DW_AT_bit_size(0x06)
    1740        .dwattr $C$DW$123, DW_AT_data_member_location[DW_OP_plus_uconst 0x0]
    1741        .dwattr $C$DW$123, DW_AT_accessibility(DW_ACCESS_public)
    1742        .dwattr $C$DW$123, DW_AT_decl_file("/opt/ti/ccsv6/ccs_base/pru/include/pru_intc.h")
    1743        .dwattr $C$DW$123, DW_AT_decl_line(0x0a)
    1744        .dwattr $C$DW$123, DW_AT_decl_column(0x0d)
    1745$C$DW$124       .dwtag  DW_TAG_member
    1746        .dwattr $C$DW$124, DW_AT_type(*$C$DW$T$11)
    1747        .dwattr $C$DW$124, DW_AT_name("REV_CUSTOM")
    1748        .dwattr $C$DW$124, DW_AT_TI_symbol_name("REV_CUSTOM")
    1749        .dwattr $C$DW$124, DW_AT_bit_offset(0x18), DW_AT_bit_size(0x02)
    1750        .dwattr $C$DW$124, DW_AT_data_member_location[DW_OP_plus_uconst 0x0]
    1751        .dwattr $C$DW$124, DW_AT_accessibility(DW_ACCESS_public)
    1752        .dwattr $C$DW$124, DW_AT_decl_file("/opt/ti/ccsv6/ccs_base/pru/include/pru_intc.h")
    1753        .dwattr $C$DW$124, DW_AT_decl_line(0x0b)
    1754        .dwattr $C$DW$124, DW_AT_decl_column(0x0d)
    1755$C$DW$125       .dwtag  DW_TAG_member
    1756        .dwattr $C$DW$125, DW_AT_type(*$C$DW$T$11)
    1757        .dwattr $C$DW$125, DW_AT_name("REV_MAJOR")
    1758        .dwattr $C$DW$125, DW_AT_TI_symbol_name("REV_MAJOR")
    1759        .dwattr $C$DW$125, DW_AT_bit_offset(0x15), DW_AT_bit_size(0x03)
    1760        .dwattr $C$DW$125, DW_AT_data_member_location[DW_OP_plus_uconst 0x0]
    1761        .dwattr $C$DW$125, DW_AT_accessibility(DW_ACCESS_public)
    1762        .dwattr $C$DW$125, DW_AT_decl_file("/opt/ti/ccsv6/ccs_base/pru/include/pru_intc.h")
    1763        .dwattr $C$DW$125, DW_AT_decl_line(0x0c)
    1764        .dwattr $C$DW$125, DW_AT_decl_column(0x0d)
    1765$C$DW$126       .dwtag  DW_TAG_member
    1766        .dwattr $C$DW$126, DW_AT_type(*$C$DW$T$11)
    1767        .dwattr $C$DW$126, DW_AT_name("REV_RTL")
    1768        .dwattr $C$DW$126, DW_AT_TI_symbol_name("REV_RTL")
    1769        .dwattr $C$DW$126, DW_AT_bit_offset(0x10), DW_AT_bit_size(0x05)
    1770        .dwattr $C$DW$126, DW_AT_data_member_location[DW_OP_plus_uconst 0x0]
    1771        .dwattr $C$DW$126, DW_AT_accessibility(DW_ACCESS_public)
    1772        .dwattr $C$DW$126, DW_AT_decl_file("/opt/ti/ccsv6/ccs_base/pru/include/pru_intc.h")
    1773        .dwattr $C$DW$126, DW_AT_decl_line(0x0d)
    1774        .dwattr $C$DW$126, DW_AT_decl_column(0x0d)
    1775$C$DW$127       .dwtag  DW_TAG_member
    1776        .dwattr $C$DW$127, DW_AT_type(*$C$DW$T$11)
    1777        .dwattr $C$DW$127, DW_AT_name("REV_MODULE")
PRU Assembler Unix v2.1.2 Wed Sep  7 12:11:05 2016

Tools Copyright (c) 2012-2015 Texas Instruments Incorporated
mcp3202.asm                                                          PAGE   35

    1778        .dwattr $C$DW$127, DW_AT_TI_symbol_name("REV_MODULE")
    1779        .dwattr $C$DW$127, DW_AT_bit_offset(0x04), DW_AT_bit_size(0x0c)
    1780        .dwattr $C$DW$127, DW_AT_data_member_location[DW_OP_plus_uconst 0x0]
    1781        .dwattr $C$DW$127, DW_AT_accessibility(DW_ACCESS_public)
    1782        .dwattr $C$DW$127, DW_AT_decl_file("/opt/ti/ccsv6/ccs_base/pru/include/pru_intc.h")
    1783        .dwattr $C$DW$127, DW_AT_decl_line(0x0e)
    1784        .dwattr $C$DW$127, DW_AT_decl_column(0x0d)
    1785$C$DW$128       .dwtag  DW_TAG_member
    1786        .dwattr $C$DW$128, DW_AT_type(*$C$DW$T$11)
    1787        .dwattr $C$DW$128, DW_AT_name("rsvd28")
    1788        .dwattr $C$DW$128, DW_AT_TI_symbol_name("rsvd28")
    1789        .dwattr $C$DW$128, DW_AT_bit_offset(0x02), DW_AT_bit_size(0x02)
    1790        .dwattr $C$DW$128, DW_AT_data_member_location[DW_OP_plus_uconst 0x0]
    1791        .dwattr $C$DW$128, DW_AT_accessibility(DW_ACCESS_public)
    1792        .dwattr $C$DW$128, DW_AT_decl_file("/opt/ti/ccsv6/ccs_base/pru/include/pru_intc.h")
    1793        .dwattr $C$DW$128, DW_AT_decl_line(0x0f)
    1794        .dwattr $C$DW$128, DW_AT_decl_column(0x0d)
    1795$C$DW$129       .dwtag  DW_TAG_member
    1796        .dwattr $C$DW$129, DW_AT_type(*$C$DW$T$11)
    1797        .dwattr $C$DW$129, DW_AT_name("REV_SCHEME")
    1798        .dwattr $C$DW$129, DW_AT_TI_symbol_name("REV_SCHEME")
    1799        .dwattr $C$DW$129, DW_AT_bit_offset(0x00), DW_AT_bit_size(0x02)
    1800        .dwattr $C$DW$129, DW_AT_data_member_location[DW_OP_plus_uconst 0x0]
    1801        .dwattr $C$DW$129, DW_AT_accessibility(DW_ACCESS_public)
    1802        .dwattr $C$DW$129, DW_AT_decl_file("/opt/ti/ccsv6/ccs_base/pru/include/pru_intc.h")
    1803        .dwattr $C$DW$129, DW_AT_decl_line(0x10)
    1804        .dwattr $C$DW$129, DW_AT_decl_column(0x0d)
    1805        .dwendtag $C$DW$T$19
    1806
    1807        .dwattr $C$DW$T$19, DW_AT_decl_file("/opt/ti/ccsv6/ccs_base/pru/include/pru_intc.h")
    1808        .dwattr $C$DW$T$19, DW_AT_decl_line(0x09)
    1809        .dwattr $C$DW$T$19, DW_AT_decl_column(0x12)
    1810$C$DW$T$184     .dwtag  DW_TAG_volatile_type
    1811        .dwattr $C$DW$T$184, DW_AT_type(*$C$DW$T$19)
    1812
    1813$C$DW$T$20      .dwtag  DW_TAG_structure_type
    1814        .dwattr $C$DW$T$20, DW_AT_byte_size(0x04)
    1815$C$DW$130       .dwtag  DW_TAG_member
    1816        .dwattr $C$DW$130, DW_AT_type(*$C$DW$T$11)
    1817        .dwattr $C$DW$130, DW_AT_name("rsvd0")
    1818        .dwattr $C$DW$130, DW_AT_TI_symbol_name("rsvd0")
    1819        .dwattr $C$DW$130, DW_AT_bit_offset(0x1e), DW_AT_bit_size(0x02)
    1820        .dwattr $C$DW$130, DW_AT_data_member_location[DW_OP_plus_uconst 0x0]
    1821        .dwattr $C$DW$130, DW_AT_accessibility(DW_ACCESS_public)
    1822        .dwattr $C$DW$130, DW_AT_decl_file("/opt/ti/ccsv6/ccs_base/pru/include/pru_intc.h")
    1823        .dwattr $C$DW$130, DW_AT_decl_line(0x1a)
    1824        .dwattr $C$DW$130, DW_AT_decl_column(0x0d)
    1825$C$DW$131       .dwtag  DW_TAG_member
    1826        .dwattr $C$DW$131, DW_AT_type(*$C$DW$T$11)
    1827        .dwattr $C$DW$131, DW_AT_name("NEST_MODE")
    1828        .dwattr $C$DW$131, DW_AT_TI_symbol_name("NEST_MODE")
    1829        .dwattr $C$DW$131, DW_AT_bit_offset(0x1c), DW_AT_bit_size(0x02)
    1830        .dwattr $C$DW$131, DW_AT_data_member_location[DW_OP_plus_uconst 0x0]
    1831        .dwattr $C$DW$131, DW_AT_accessibility(DW_ACCESS_public)
    1832        .dwattr $C$DW$131, DW_AT_decl_file("/opt/ti/ccsv6/ccs_base/pru/include/pru_intc.h")
PRU Assembler Unix v2.1.2 Wed Sep  7 12:11:05 2016

Tools Copyright (c) 2012-2015 Texas Instruments Incorporated
mcp3202.asm                                                          PAGE   36

    1833        .dwattr $C$DW$131, DW_AT_decl_line(0x1b)
    1834        .dwattr $C$DW$131, DW_AT_decl_column(0x0d)
    1835$C$DW$132       .dwtag  DW_TAG_member
    1836        .dwattr $C$DW$132, DW_AT_type(*$C$DW$T$11)
    1837        .dwattr $C$DW$132, DW_AT_name("rsvd4")
    1838        .dwattr $C$DW$132, DW_AT_TI_symbol_name("rsvd4")
    1839        .dwattr $C$DW$132, DW_AT_bit_offset(0x00), DW_AT_bit_size(0x1c)
    1840        .dwattr $C$DW$132, DW_AT_data_member_location[DW_OP_plus_uconst 0x0]
    1841        .dwattr $C$DW$132, DW_AT_accessibility(DW_ACCESS_public)
    1842        .dwattr $C$DW$132, DW_AT_decl_file("/opt/ti/ccsv6/ccs_base/pru/include/pru_intc.h")
    1843        .dwattr $C$DW$132, DW_AT_decl_line(0x1c)
    1844        .dwattr $C$DW$132, DW_AT_decl_column(0x0d)
    1845        .dwendtag $C$DW$T$20
    1846
    1847        .dwattr $C$DW$T$20, DW_AT_decl_file("/opt/ti/ccsv6/ccs_base/pru/include/pru_intc.h")
    1848        .dwattr $C$DW$T$20, DW_AT_decl_line(0x19)
    1849        .dwattr $C$DW$T$20, DW_AT_decl_column(0x12)
    1850$C$DW$T$186     .dwtag  DW_TAG_volatile_type
    1851        .dwattr $C$DW$T$186, DW_AT_type(*$C$DW$T$20)
    1852
    1853$C$DW$T$21      .dwtag  DW_TAG_structure_type
    1854        .dwattr $C$DW$T$21, DW_AT_byte_size(0x04)
    1855$C$DW$133       .dwtag  DW_TAG_member
    1856        .dwattr $C$DW$133, DW_AT_type(*$C$DW$T$11)
    1857        .dwattr $C$DW$133, DW_AT_name("EN_HINT_ANY")
    1858        .dwattr $C$DW$133, DW_AT_TI_symbol_name("EN_HINT_ANY")
    1859        .dwattr $C$DW$133, DW_AT_bit_offset(0x1f), DW_AT_bit_size(0x01)
    1860        .dwattr $C$DW$133, DW_AT_data_member_location[DW_OP_plus_uconst 0x0]
    1861        .dwattr $C$DW$133, DW_AT_accessibility(DW_ACCESS_public)
    1862        .dwattr $C$DW$133, DW_AT_decl_file("/opt/ti/ccsv6/ccs_base/pru/include/pru_intc.h")
    1863        .dwattr $C$DW$133, DW_AT_decl_line(0x29)
    1864        .dwattr $C$DW$133, DW_AT_decl_column(0x0d)
    1865$C$DW$134       .dwtag  DW_TAG_member
    1866        .dwattr $C$DW$134, DW_AT_type(*$C$DW$T$11)
    1867        .dwattr $C$DW$134, DW_AT_name("rsvd1")
    1868        .dwattr $C$DW$134, DW_AT_TI_symbol_name("rsvd1")
    1869        .dwattr $C$DW$134, DW_AT_bit_offset(0x00), DW_AT_bit_size(0x1f)
    1870        .dwattr $C$DW$134, DW_AT_data_member_location[DW_OP_plus_uconst 0x0]
    1871        .dwattr $C$DW$134, DW_AT_accessibility(DW_ACCESS_public)
    1872        .dwattr $C$DW$134, DW_AT_decl_file("/opt/ti/ccsv6/ccs_base/pru/include/pru_intc.h")
    1873        .dwattr $C$DW$134, DW_AT_decl_line(0x2a)
    1874        .dwattr $C$DW$134, DW_AT_decl_column(0x0d)
    1875        .dwendtag $C$DW$T$21
    1876
    1877        .dwattr $C$DW$T$21, DW_AT_decl_file("/opt/ti/ccsv6/ccs_base/pru/include/pru_intc.h")
    1878        .dwattr $C$DW$T$21, DW_AT_decl_line(0x28)
    1879        .dwattr $C$DW$T$21, DW_AT_decl_column(0x12)
    1880$C$DW$T$188     .dwtag  DW_TAG_volatile_type
    1881        .dwattr $C$DW$T$188, DW_AT_type(*$C$DW$T$21)
    1882
    1883$C$DW$T$22      .dwtag  DW_TAG_structure_type
    1884        .dwattr $C$DW$T$22, DW_AT_byte_size(0x04)
    1885$C$DW$135       .dwtag  DW_TAG_member
    1886        .dwattr $C$DW$135, DW_AT_type(*$C$DW$T$11)
    1887        .dwattr $C$DW$135, DW_AT_name("GLB_NEST_LEVEL")
PRU Assembler Unix v2.1.2 Wed Sep  7 12:11:05 2016

Tools Copyright (c) 2012-2015 Texas Instruments Incorporated
mcp3202.asm                                                          PAGE   37

    1888        .dwattr $C$DW$135, DW_AT_TI_symbol_name("GLB_NEST_LEVEL")
    1889        .dwattr $C$DW$135, DW_AT_bit_offset(0x17), DW_AT_bit_size(0x09)
    1890        .dwattr $C$DW$135, DW_AT_data_member_location[DW_OP_plus_uconst 0x0]
    1891        .dwattr $C$DW$135, DW_AT_accessibility(DW_ACCESS_public)
    1892        .dwattr $C$DW$135, DW_AT_decl_file("/opt/ti/ccsv6/ccs_base/pru/include/pru_intc.h")
    1893        .dwattr $C$DW$135, DW_AT_decl_line(0x37)
    1894        .dwattr $C$DW$135, DW_AT_decl_column(0x0d)
    1895$C$DW$136       .dwtag  DW_TAG_member
    1896        .dwattr $C$DW$136, DW_AT_type(*$C$DW$T$11)
    1897        .dwattr $C$DW$136, DW_AT_name("rsvd9")
    1898        .dwattr $C$DW$136, DW_AT_TI_symbol_name("rsvd9")
    1899        .dwattr $C$DW$136, DW_AT_bit_offset(0x01), DW_AT_bit_size(0x16)
    1900        .dwattr $C$DW$136, DW_AT_data_member_location[DW_OP_plus_uconst 0x0]
    1901        .dwattr $C$DW$136, DW_AT_accessibility(DW_ACCESS_public)
    1902        .dwattr $C$DW$136, DW_AT_decl_file("/opt/ti/ccsv6/ccs_base/pru/include/pru_intc.h")
    1903        .dwattr $C$DW$136, DW_AT_decl_line(0x38)
    1904        .dwattr $C$DW$136, DW_AT_decl_column(0x0d)
    1905$C$DW$137       .dwtag  DW_TAG_member
    1906        .dwattr $C$DW$137, DW_AT_type(*$C$DW$T$11)
    1907        .dwattr $C$DW$137, DW_AT_name("AUTO_OVERRIDE")
    1908        .dwattr $C$DW$137, DW_AT_TI_symbol_name("AUTO_OVERRIDE")
    1909        .dwattr $C$DW$137, DW_AT_bit_offset(0x00), DW_AT_bit_size(0x01)
    1910        .dwattr $C$DW$137, DW_AT_data_member_location[DW_OP_plus_uconst 0x0]
    1911        .dwattr $C$DW$137, DW_AT_accessibility(DW_ACCESS_public)
    1912        .dwattr $C$DW$137, DW_AT_decl_file("/opt/ti/ccsv6/ccs_base/pru/include/pru_intc.h")
    1913        .dwattr $C$DW$137, DW_AT_decl_line(0x39)
    1914        .dwattr $C$DW$137, DW_AT_decl_column(0x0d)
    1915        .dwendtag $C$DW$T$22
    1916
    1917        .dwattr $C$DW$T$22, DW_AT_decl_file("/opt/ti/ccsv6/ccs_base/pru/include/pru_intc.h")
    1918        .dwattr $C$DW$T$22, DW_AT_decl_line(0x36)
    1919        .dwattr $C$DW$T$22, DW_AT_decl_column(0x12)
    1920$C$DW$T$190     .dwtag  DW_TAG_volatile_type
    1921        .dwattr $C$DW$T$190, DW_AT_type(*$C$DW$T$22)
    1922
    1923$C$DW$T$23      .dwtag  DW_TAG_structure_type
    1924        .dwattr $C$DW$T$23, DW_AT_byte_size(0x04)
    1925$C$DW$138       .dwtag  DW_TAG_member
    1926        .dwattr $C$DW$138, DW_AT_type(*$C$DW$T$11)
    1927        .dwattr $C$DW$138, DW_AT_name("STS_SET_IDX")
    1928        .dwattr $C$DW$138, DW_AT_TI_symbol_name("STS_SET_IDX")
    1929        .dwattr $C$DW$138, DW_AT_bit_offset(0x16), DW_AT_bit_size(0x0a)
    1930        .dwattr $C$DW$138, DW_AT_data_member_location[DW_OP_plus_uconst 0x0]
    1931        .dwattr $C$DW$138, DW_AT_accessibility(DW_ACCESS_public)
    1932        .dwattr $C$DW$138, DW_AT_decl_file("/opt/ti/ccsv6/ccs_base/pru/include/pru_intc.h")
    1933        .dwattr $C$DW$138, DW_AT_decl_line(0x43)
    1934        .dwattr $C$DW$138, DW_AT_decl_column(0x0d)
    1935$C$DW$139       .dwtag  DW_TAG_member
    1936        .dwattr $C$DW$139, DW_AT_type(*$C$DW$T$11)
    1937        .dwattr $C$DW$139, DW_AT_name("rsvd10")
    1938        .dwattr $C$DW$139, DW_AT_TI_symbol_name("rsvd10")
    1939        .dwattr $C$DW$139, DW_AT_bit_offset(0x00), DW_AT_bit_size(0x16)
    1940        .dwattr $C$DW$139, DW_AT_data_member_location[DW_OP_plus_uconst 0x0]
    1941        .dwattr $C$DW$139, DW_AT_accessibility(DW_ACCESS_public)
    1942        .dwattr $C$DW$139, DW_AT_decl_file("/opt/ti/ccsv6/ccs_base/pru/include/pru_intc.h")
PRU Assembler Unix v2.1.2 Wed Sep  7 12:11:05 2016

Tools Copyright (c) 2012-2015 Texas Instruments Incorporated
mcp3202.asm                                                          PAGE   38

    1943        .dwattr $C$DW$139, DW_AT_decl_line(0x44)
    1944        .dwattr $C$DW$139, DW_AT_decl_column(0x0d)
    1945        .dwendtag $C$DW$T$23
    1946
    1947        .dwattr $C$DW$T$23, DW_AT_decl_file("/opt/ti/ccsv6/ccs_base/pru/include/pru_intc.h")
    1948        .dwattr $C$DW$T$23, DW_AT_decl_line(0x42)
    1949        .dwattr $C$DW$T$23, DW_AT_decl_column(0x12)
    1950$C$DW$T$192     .dwtag  DW_TAG_volatile_type
    1951        .dwattr $C$DW$T$192, DW_AT_type(*$C$DW$T$23)
    1952
    1953$C$DW$T$24      .dwtag  DW_TAG_structure_type
    1954        .dwattr $C$DW$T$24, DW_AT_byte_size(0x04)
    1955$C$DW$140       .dwtag  DW_TAG_member
    1956        .dwattr $C$DW$140, DW_AT_type(*$C$DW$T$11)
    1957        .dwattr $C$DW$140, DW_AT_name("STS_CLR_IDX")
    1958        .dwattr $C$DW$140, DW_AT_TI_symbol_name("STS_CLR_IDX")
    1959        .dwattr $C$DW$140, DW_AT_bit_offset(0x16), DW_AT_bit_size(0x0a)
    1960        .dwattr $C$DW$140, DW_AT_data_member_location[DW_OP_plus_uconst 0x0]
    1961        .dwattr $C$DW$140, DW_AT_accessibility(DW_ACCESS_public)
    1962        .dwattr $C$DW$140, DW_AT_decl_file("/opt/ti/ccsv6/ccs_base/pru/include/pru_intc.h")
    1963        .dwattr $C$DW$140, DW_AT_decl_line(0x4e)
    1964        .dwattr $C$DW$140, DW_AT_decl_column(0x0d)
    1965$C$DW$141       .dwtag  DW_TAG_member
    1966        .dwattr $C$DW$141, DW_AT_type(*$C$DW$T$11)
    1967        .dwattr $C$DW$141, DW_AT_name("rsvd10")
    1968        .dwattr $C$DW$141, DW_AT_TI_symbol_name("rsvd10")
    1969        .dwattr $C$DW$141, DW_AT_bit_offset(0x00), DW_AT_bit_size(0x16)
    1970        .dwattr $C$DW$141, DW_AT_data_member_location[DW_OP_plus_uconst 0x0]
    1971        .dwattr $C$DW$141, DW_AT_accessibility(DW_ACCESS_public)
    1972        .dwattr $C$DW$141, DW_AT_decl_file("/opt/ti/ccsv6/ccs_base/pru/include/pru_intc.h")
    1973        .dwattr $C$DW$141, DW_AT_decl_line(0x4f)
    1974        .dwattr $C$DW$141, DW_AT_decl_column(0x0d)
    1975        .dwendtag $C$DW$T$24
    1976
    1977        .dwattr $C$DW$T$24, DW_AT_decl_file("/opt/ti/ccsv6/ccs_base/pru/include/pru_intc.h")
    1978        .dwattr $C$DW$T$24, DW_AT_decl_line(0x4d)
    1979        .dwattr $C$DW$T$24, DW_AT_decl_column(0x12)
    1980$C$DW$T$194     .dwtag  DW_TAG_volatile_type
    1981        .dwattr $C$DW$T$194, DW_AT_type(*$C$DW$T$24)
    1982
    1983$C$DW$T$25      .dwtag  DW_TAG_structure_type
    1984        .dwattr $C$DW$T$25, DW_AT_byte_size(0x04)
    1985$C$DW$142       .dwtag  DW_TAG_member
    1986        .dwattr $C$DW$142, DW_AT_type(*$C$DW$T$11)
    1987        .dwattr $C$DW$142, DW_AT_name("EN_SET_IDX")
    1988        .dwattr $C$DW$142, DW_AT_TI_symbol_name("EN_SET_IDX")
    1989        .dwattr $C$DW$142, DW_AT_bit_offset(0x16), DW_AT_bit_size(0x0a)
    1990        .dwattr $C$DW$142, DW_AT_data_member_location[DW_OP_plus_uconst 0x0]
    1991        .dwattr $C$DW$142, DW_AT_accessibility(DW_ACCESS_public)
    1992        .dwattr $C$DW$142, DW_AT_decl_file("/opt/ti/ccsv6/ccs_base/pru/include/pru_intc.h")
    1993        .dwattr $C$DW$142, DW_AT_decl_line(0x59)
    1994        .dwattr $C$DW$142, DW_AT_decl_column(0x0d)
    1995$C$DW$143       .dwtag  DW_TAG_member
    1996        .dwattr $C$DW$143, DW_AT_type(*$C$DW$T$11)
    1997        .dwattr $C$DW$143, DW_AT_name("rsvd10")
PRU Assembler Unix v2.1.2 Wed Sep  7 12:11:05 2016

Tools Copyright (c) 2012-2015 Texas Instruments Incorporated
mcp3202.asm                                                          PAGE   39

    1998        .dwattr $C$DW$143, DW_AT_TI_symbol_name("rsvd10")
    1999        .dwattr $C$DW$143, DW_AT_bit_offset(0x00), DW_AT_bit_size(0x16)
    2000        .dwattr $C$DW$143, DW_AT_data_member_location[DW_OP_plus_uconst 0x0]
    2001        .dwattr $C$DW$143, DW_AT_accessibility(DW_ACCESS_public)
    2002        .dwattr $C$DW$143, DW_AT_decl_file("/opt/ti/ccsv6/ccs_base/pru/include/pru_intc.h")
    2003        .dwattr $C$DW$143, DW_AT_decl_line(0x5a)
    2004        .dwattr $C$DW$143, DW_AT_decl_column(0x0d)
    2005        .dwendtag $C$DW$T$25
    2006
    2007        .dwattr $C$DW$T$25, DW_AT_decl_file("/opt/ti/ccsv6/ccs_base/pru/include/pru_intc.h")
    2008        .dwattr $C$DW$T$25, DW_AT_decl_line(0x58)
    2009        .dwattr $C$DW$T$25, DW_AT_decl_column(0x12)
    2010$C$DW$T$196     .dwtag  DW_TAG_volatile_type
    2011        .dwattr $C$DW$T$196, DW_AT_type(*$C$DW$T$25)
    2012
    2013$C$DW$T$26      .dwtag  DW_TAG_structure_type
    2014        .dwattr $C$DW$T$26, DW_AT_byte_size(0x04)
    2015$C$DW$144       .dwtag  DW_TAG_member
    2016        .dwattr $C$DW$144, DW_AT_type(*$C$DW$T$11)
    2017        .dwattr $C$DW$144, DW_AT_name("EN_CLR_IDX")
    2018        .dwattr $C$DW$144, DW_AT_TI_symbol_name("EN_CLR_IDX")
    2019        .dwattr $C$DW$144, DW_AT_bit_offset(0x16), DW_AT_bit_size(0x0a)
    2020        .dwattr $C$DW$144, DW_AT_data_member_location[DW_OP_plus_uconst 0x0]
    2021        .dwattr $C$DW$144, DW_AT_accessibility(DW_ACCESS_public)
    2022        .dwattr $C$DW$144, DW_AT_decl_file("/opt/ti/ccsv6/ccs_base/pru/include/pru_intc.h")
    2023        .dwattr $C$DW$144, DW_AT_decl_line(0x64)
    2024        .dwattr $C$DW$144, DW_AT_decl_column(0x0d)
    2025$C$DW$145       .dwtag  DW_TAG_member
    2026        .dwattr $C$DW$145, DW_AT_type(*$C$DW$T$11)
    2027        .dwattr $C$DW$145, DW_AT_name("rsvd10")
    2028        .dwattr $C$DW$145, DW_AT_TI_symbol_name("rsvd10")
    2029        .dwattr $C$DW$145, DW_AT_bit_offset(0x00), DW_AT_bit_size(0x16)
    2030        .dwattr $C$DW$145, DW_AT_data_member_location[DW_OP_plus_uconst 0x0]
    2031        .dwattr $C$DW$145, DW_AT_accessibility(DW_ACCESS_public)
    2032        .dwattr $C$DW$145, DW_AT_decl_file("/opt/ti/ccsv6/ccs_base/pru/include/pru_intc.h")
    2033        .dwattr $C$DW$145, DW_AT_decl_line(0x65)
    2034        .dwattr $C$DW$145, DW_AT_decl_column(0x0d)
    2035        .dwendtag $C$DW$T$26
    2036
    2037        .dwattr $C$DW$T$26, DW_AT_decl_file("/opt/ti/ccsv6/ccs_base/pru/include/pru_intc.h")
    2038        .dwattr $C$DW$T$26, DW_AT_decl_line(0x63)
    2039        .dwattr $C$DW$T$26, DW_AT_decl_column(0x12)
    2040$C$DW$T$198     .dwtag  DW_TAG_volatile_type
    2041        .dwattr $C$DW$T$198, DW_AT_type(*$C$DW$T$26)
    2042
    2043$C$DW$T$27      .dwtag  DW_TAG_structure_type
    2044        .dwattr $C$DW$T$27, DW_AT_byte_size(0x04)
    2045$C$DW$146       .dwtag  DW_TAG_member
    2046        .dwattr $C$DW$146, DW_AT_type(*$C$DW$T$11)
    2047        .dwattr $C$DW$146, DW_AT_name("HINT_EN_SET_IDX")
    2048        .dwattr $C$DW$146, DW_AT_TI_symbol_name("HINT_EN_SET_IDX")
    2049        .dwattr $C$DW$146, DW_AT_bit_offset(0x16), DW_AT_bit_size(0x0a)
    2050        .dwattr $C$DW$146, DW_AT_data_member_location[DW_OP_plus_uconst 0x0]
    2051        .dwattr $C$DW$146, DW_AT_accessibility(DW_ACCESS_public)
    2052        .dwattr $C$DW$146, DW_AT_decl_file("/opt/ti/ccsv6/ccs_base/pru/include/pru_intc.h")
PRU Assembler Unix v2.1.2 Wed Sep  7 12:11:05 2016

Tools Copyright (c) 2012-2015 Texas Instruments Incorporated
mcp3202.asm                                                          PAGE   40

    2053        .dwattr $C$DW$146, DW_AT_decl_line(0x72)
    2054        .dwattr $C$DW$146, DW_AT_decl_column(0x0d)
    2055$C$DW$147       .dwtag  DW_TAG_member
    2056        .dwattr $C$DW$147, DW_AT_type(*$C$DW$T$11)
    2057        .dwattr $C$DW$147, DW_AT_name("rsvd10")
    2058        .dwattr $C$DW$147, DW_AT_TI_symbol_name("rsvd10")
    2059        .dwattr $C$DW$147, DW_AT_bit_offset(0x00), DW_AT_bit_size(0x16)
    2060        .dwattr $C$DW$147, DW_AT_data_member_location[DW_OP_plus_uconst 0x0]
    2061        .dwattr $C$DW$147, DW_AT_accessibility(DW_ACCESS_public)
    2062        .dwattr $C$DW$147, DW_AT_decl_file("/opt/ti/ccsv6/ccs_base/pru/include/pru_intc.h")
    2063        .dwattr $C$DW$147, DW_AT_decl_line(0x73)
    2064        .dwattr $C$DW$147, DW_AT_decl_column(0x0d)
    2065        .dwendtag $C$DW$T$27
    2066
    2067        .dwattr $C$DW$T$27, DW_AT_decl_file("/opt/ti/ccsv6/ccs_base/pru/include/pru_intc.h")
    2068        .dwattr $C$DW$T$27, DW_AT_decl_line(0x71)
    2069        .dwattr $C$DW$T$27, DW_AT_decl_column(0x12)
    2070$C$DW$T$200     .dwtag  DW_TAG_volatile_type
    2071        .dwattr $C$DW$T$200, DW_AT_type(*$C$DW$T$27)
    2072
    2073$C$DW$T$28      .dwtag  DW_TAG_structure_type
    2074        .dwattr $C$DW$T$28, DW_AT_byte_size(0x04)
    2075$C$DW$148       .dwtag  DW_TAG_member
    2076        .dwattr $C$DW$148, DW_AT_type(*$C$DW$T$11)
    2077        .dwattr $C$DW$148, DW_AT_name("HINT_EN_CLR_IDX")
    2078        .dwattr $C$DW$148, DW_AT_TI_symbol_name("HINT_EN_CLR_IDX")
    2079        .dwattr $C$DW$148, DW_AT_bit_offset(0x16), DW_AT_bit_size(0x0a)
    2080        .dwattr $C$DW$148, DW_AT_data_member_location[DW_OP_plus_uconst 0x0]
    2081        .dwattr $C$DW$148, DW_AT_accessibility(DW_ACCESS_public)
    2082        .dwattr $C$DW$148, DW_AT_decl_file("/opt/ti/ccsv6/ccs_base/pru/include/pru_intc.h")
    2083        .dwattr $C$DW$148, DW_AT_decl_line(0x7d)
    2084        .dwattr $C$DW$148, DW_AT_decl_column(0x0d)
    2085$C$DW$149       .dwtag  DW_TAG_member
    2086        .dwattr $C$DW$149, DW_AT_type(*$C$DW$T$11)
    2087        .dwattr $C$DW$149, DW_AT_name("rsvd10")
    2088        .dwattr $C$DW$149, DW_AT_TI_symbol_name("rsvd10")
    2089        .dwattr $C$DW$149, DW_AT_bit_offset(0x00), DW_AT_bit_size(0x16)
    2090        .dwattr $C$DW$149, DW_AT_data_member_location[DW_OP_plus_uconst 0x0]
    2091        .dwattr $C$DW$149, DW_AT_accessibility(DW_ACCESS_public)
    2092        .dwattr $C$DW$149, DW_AT_decl_file("/opt/ti/ccsv6/ccs_base/pru/include/pru_intc.h")
    2093        .dwattr $C$DW$149, DW_AT_decl_line(0x7e)
    2094        .dwattr $C$DW$149, DW_AT_decl_column(0x0d)
    2095        .dwendtag $C$DW$T$28
    2096
    2097        .dwattr $C$DW$T$28, DW_AT_decl_file("/opt/ti/ccsv6/ccs_base/pru/include/pru_intc.h")
    2098        .dwattr $C$DW$T$28, DW_AT_decl_line(0x7c)
    2099        .dwattr $C$DW$T$28, DW_AT_decl_column(0x12)
    2100$C$DW$T$202     .dwtag  DW_TAG_volatile_type
    2101        .dwattr $C$DW$T$202, DW_AT_type(*$C$DW$T$28)
    2102
    2103$C$DW$T$29      .dwtag  DW_TAG_structure_type
    2104        .dwattr $C$DW$T$29, DW_AT_byte_size(0x04)
    2105$C$DW$150       .dwtag  DW_TAG_member
    2106        .dwattr $C$DW$150, DW_AT_type(*$C$DW$T$11)
    2107        .dwattr $C$DW$150, DW_AT_name("GLB_PRI_INTR")
PRU Assembler Unix v2.1.2 Wed Sep  7 12:11:05 2016

Tools Copyright (c) 2012-2015 Texas Instruments Incorporated
mcp3202.asm                                                          PAGE   41

    2108        .dwattr $C$DW$150, DW_AT_TI_symbol_name("GLB_PRI_INTR")
    2109        .dwattr $C$DW$150, DW_AT_bit_offset(0x16), DW_AT_bit_size(0x0a)
    2110        .dwattr $C$DW$150, DW_AT_data_member_location[DW_OP_plus_uconst 0x0]
    2111        .dwattr $C$DW$150, DW_AT_accessibility(DW_ACCESS_public)
    2112        .dwattr $C$DW$150, DW_AT_decl_file("/opt/ti/ccsv6/ccs_base/pru/include/pru_intc.h")
    2113        .dwattr $C$DW$150, DW_AT_decl_line(0x8b)
    2114        .dwattr $C$DW$150, DW_AT_decl_column(0x0d)
    2115$C$DW$151       .dwtag  DW_TAG_member
    2116        .dwattr $C$DW$151, DW_AT_type(*$C$DW$T$11)
    2117        .dwattr $C$DW$151, DW_AT_name("rsvd10")
    2118        .dwattr $C$DW$151, DW_AT_TI_symbol_name("rsvd10")
    2119        .dwattr $C$DW$151, DW_AT_bit_offset(0x01), DW_AT_bit_size(0x15)
    2120        .dwattr $C$DW$151, DW_AT_data_member_location[DW_OP_plus_uconst 0x0]
    2121        .dwattr $C$DW$151, DW_AT_accessibility(DW_ACCESS_public)
    2122        .dwattr $C$DW$151, DW_AT_decl_file("/opt/ti/ccsv6/ccs_base/pru/include/pru_intc.h")
    2123        .dwattr $C$DW$151, DW_AT_decl_line(0x8c)
    2124        .dwattr $C$DW$151, DW_AT_decl_column(0x0d)
    2125$C$DW$152       .dwtag  DW_TAG_member
    2126        .dwattr $C$DW$152, DW_AT_type(*$C$DW$T$11)
    2127        .dwattr $C$DW$152, DW_AT_name("GLB_NONE")
    2128        .dwattr $C$DW$152, DW_AT_TI_symbol_name("GLB_NONE")
    2129        .dwattr $C$DW$152, DW_AT_bit_offset(0x00), DW_AT_bit_size(0x01)
    2130        .dwattr $C$DW$152, DW_AT_data_member_location[DW_OP_plus_uconst 0x0]
    2131        .dwattr $C$DW$152, DW_AT_accessibility(DW_ACCESS_public)
    2132        .dwattr $C$DW$152, DW_AT_decl_file("/opt/ti/ccsv6/ccs_base/pru/include/pru_intc.h")
    2133        .dwattr $C$DW$152, DW_AT_decl_line(0x8d)
    2134        .dwattr $C$DW$152, DW_AT_decl_column(0x0d)
    2135        .dwendtag $C$DW$T$29
    2136
    2137        .dwattr $C$DW$T$29, DW_AT_decl_file("/opt/ti/ccsv6/ccs_base/pru/include/pru_intc.h")
    2138        .dwattr $C$DW$T$29, DW_AT_decl_line(0x8a)
    2139        .dwattr $C$DW$T$29, DW_AT_decl_column(0x12)
    2140$C$DW$T$204     .dwtag  DW_TAG_volatile_type
    2141        .dwattr $C$DW$T$204, DW_AT_type(*$C$DW$T$29)
    2142
    2143$C$DW$T$30      .dwtag  DW_TAG_structure_type
    2144        .dwattr $C$DW$T$30, DW_AT_byte_size(0x04)
    2145$C$DW$153       .dwtag  DW_TAG_member
    2146        .dwattr $C$DW$153, DW_AT_type(*$C$DW$T$11)
    2147        .dwattr $C$DW$153, DW_AT_name("RAW_STS_31_0")
    2148        .dwattr $C$DW$153, DW_AT_TI_symbol_name("RAW_STS_31_0")
    2149        .dwattr $C$DW$153, DW_AT_bit_offset(0x00), DW_AT_bit_size(0x20)
    2150        .dwattr $C$DW$153, DW_AT_data_member_location[DW_OP_plus_uconst 0x0]
    2151        .dwattr $C$DW$153, DW_AT_accessibility(DW_ACCESS_public)
    2152        .dwattr $C$DW$153, DW_AT_decl_file("/opt/ti/ccsv6/ccs_base/pru/include/pru_intc.h")
    2153        .dwattr $C$DW$153, DW_AT_decl_line(0x9a)
    2154        .dwattr $C$DW$153, DW_AT_decl_column(0x0d)
    2155        .dwendtag $C$DW$T$30
    2156
    2157        .dwattr $C$DW$T$30, DW_AT_decl_file("/opt/ti/ccsv6/ccs_base/pru/include/pru_intc.h")
    2158        .dwattr $C$DW$T$30, DW_AT_decl_line(0x99)
    2159        .dwattr $C$DW$T$30, DW_AT_decl_column(0x12)
    2160$C$DW$T$206     .dwtag  DW_TAG_volatile_type
    2161        .dwattr $C$DW$T$206, DW_AT_type(*$C$DW$T$30)
    2162
PRU Assembler Unix v2.1.2 Wed Sep  7 12:11:05 2016

Tools Copyright (c) 2012-2015 Texas Instruments Incorporated
mcp3202.asm                                                          PAGE   42

    2163$C$DW$T$31      .dwtag  DW_TAG_structure_type
    2164        .dwattr $C$DW$T$31, DW_AT_byte_size(0x04)
    2165$C$DW$154       .dwtag  DW_TAG_member
    2166        .dwattr $C$DW$154, DW_AT_type(*$C$DW$T$11)
    2167        .dwattr $C$DW$154, DW_AT_name("RAW_STS_63_32")
    2168        .dwattr $C$DW$154, DW_AT_TI_symbol_name("RAW_STS_63_32")
    2169        .dwattr $C$DW$154, DW_AT_bit_offset(0x00), DW_AT_bit_size(0x20)
    2170        .dwattr $C$DW$154, DW_AT_data_member_location[DW_OP_plus_uconst 0x0]
    2171        .dwattr $C$DW$154, DW_AT_accessibility(DW_ACCESS_public)
    2172        .dwattr $C$DW$154, DW_AT_decl_file("/opt/ti/ccsv6/ccs_base/pru/include/pru_intc.h")
    2173        .dwattr $C$DW$154, DW_AT_decl_line(0xa4)
    2174        .dwattr $C$DW$154, DW_AT_decl_column(0x0d)
    2175        .dwendtag $C$DW$T$31
    2176
    2177        .dwattr $C$DW$T$31, DW_AT_decl_file("/opt/ti/ccsv6/ccs_base/pru/include/pru_intc.h")
    2178        .dwattr $C$DW$T$31, DW_AT_decl_line(0xa3)
    2179        .dwattr $C$DW$T$31, DW_AT_decl_column(0x12)
    2180$C$DW$T$208     .dwtag  DW_TAG_volatile_type
    2181        .dwattr $C$DW$T$208, DW_AT_type(*$C$DW$T$31)
    2182
    2183$C$DW$T$32      .dwtag  DW_TAG_structure_type
    2184        .dwattr $C$DW$T$32, DW_AT_byte_size(0x04)
    2185$C$DW$155       .dwtag  DW_TAG_member
    2186        .dwattr $C$DW$155, DW_AT_type(*$C$DW$T$11)
    2187        .dwattr $C$DW$155, DW_AT_name("ENA_STS_31_0")
    2188        .dwattr $C$DW$155, DW_AT_TI_symbol_name("ENA_STS_31_0")
    2189        .dwattr $C$DW$155, DW_AT_bit_offset(0x00), DW_AT_bit_size(0x20)
    2190        .dwattr $C$DW$155, DW_AT_data_member_location[DW_OP_plus_uconst 0x0]
    2191        .dwattr $C$DW$155, DW_AT_accessibility(DW_ACCESS_public)
    2192        .dwattr $C$DW$155, DW_AT_decl_file("/opt/ti/ccsv6/ccs_base/pru/include/pru_intc.h")
    2193        .dwattr $C$DW$155, DW_AT_decl_line(0xb1)
    2194        .dwattr $C$DW$155, DW_AT_decl_column(0x0d)
    2195        .dwendtag $C$DW$T$32
    2196
    2197        .dwattr $C$DW$T$32, DW_AT_decl_file("/opt/ti/ccsv6/ccs_base/pru/include/pru_intc.h")
    2198        .dwattr $C$DW$T$32, DW_AT_decl_line(0xb0)
    2199        .dwattr $C$DW$T$32, DW_AT_decl_column(0x12)
    2200$C$DW$T$210     .dwtag  DW_TAG_volatile_type
    2201        .dwattr $C$DW$T$210, DW_AT_type(*$C$DW$T$32)
    2202
    2203$C$DW$T$33      .dwtag  DW_TAG_structure_type
    2204        .dwattr $C$DW$T$33, DW_AT_byte_size(0x04)
    2205$C$DW$156       .dwtag  DW_TAG_member
    2206        .dwattr $C$DW$156, DW_AT_type(*$C$DW$T$11)
    2207        .dwattr $C$DW$156, DW_AT_name("ENA_STS_63_32")
    2208        .dwattr $C$DW$156, DW_AT_TI_symbol_name("ENA_STS_63_32")
    2209        .dwattr $C$DW$156, DW_AT_bit_offset(0x00), DW_AT_bit_size(0x20)
    2210        .dwattr $C$DW$156, DW_AT_data_member_location[DW_OP_plus_uconst 0x0]
    2211        .dwattr $C$DW$156, DW_AT_accessibility(DW_ACCESS_public)
    2212        .dwattr $C$DW$156, DW_AT_decl_file("/opt/ti/ccsv6/ccs_base/pru/include/pru_intc.h")
    2213        .dwattr $C$DW$156, DW_AT_decl_line(0xbb)
    2214        .dwattr $C$DW$156, DW_AT_decl_column(0x0d)
    2215        .dwendtag $C$DW$T$33
    2216
    2217        .dwattr $C$DW$T$33, DW_AT_decl_file("/opt/ti/ccsv6/ccs_base/pru/include/pru_intc.h")
PRU Assembler Unix v2.1.2 Wed Sep  7 12:11:05 2016

Tools Copyright (c) 2012-2015 Texas Instruments Incorporated
mcp3202.asm                                                          PAGE   43

    2218        .dwattr $C$DW$T$33, DW_AT_decl_line(0xba)
    2219        .dwattr $C$DW$T$33, DW_AT_decl_column(0x12)
    2220$C$DW$T$212     .dwtag  DW_TAG_volatile_type
    2221        .dwattr $C$DW$T$212, DW_AT_type(*$C$DW$T$33)
    2222
    2223$C$DW$T$34      .dwtag  DW_TAG_structure_type
    2224        .dwattr $C$DW$T$34, DW_AT_byte_size(0x04)
    2225$C$DW$157       .dwtag  DW_TAG_member
    2226        .dwattr $C$DW$157, DW_AT_type(*$C$DW$T$11)
    2227        .dwattr $C$DW$157, DW_AT_name("EN_SET_31_0")
    2228        .dwattr $C$DW$157, DW_AT_TI_symbol_name("EN_SET_31_0")
    2229        .dwattr $C$DW$157, DW_AT_bit_offset(0x00), DW_AT_bit_size(0x20)
    2230        .dwattr $C$DW$157, DW_AT_data_member_location[DW_OP_plus_uconst 0x0]
    2231        .dwattr $C$DW$157, DW_AT_accessibility(DW_ACCESS_public)
    2232        .dwattr $C$DW$157, DW_AT_decl_file("/opt/ti/ccsv6/ccs_base/pru/include/pru_intc.h")
    2233        .dwattr $C$DW$157, DW_AT_decl_line(0xc8)
    2234        .dwattr $C$DW$157, DW_AT_decl_column(0x0d)
    2235        .dwendtag $C$DW$T$34
    2236
    2237        .dwattr $C$DW$T$34, DW_AT_decl_file("/opt/ti/ccsv6/ccs_base/pru/include/pru_intc.h")
    2238        .dwattr $C$DW$T$34, DW_AT_decl_line(0xc7)
    2239        .dwattr $C$DW$T$34, DW_AT_decl_column(0x12)
    2240$C$DW$T$214     .dwtag  DW_TAG_volatile_type
    2241        .dwattr $C$DW$T$214, DW_AT_type(*$C$DW$T$34)
    2242
    2243$C$DW$T$35      .dwtag  DW_TAG_structure_type
    2244        .dwattr $C$DW$T$35, DW_AT_byte_size(0x04)
    2245$C$DW$158       .dwtag  DW_TAG_member
    2246        .dwattr $C$DW$158, DW_AT_type(*$C$DW$T$11)
    2247        .dwattr $C$DW$158, DW_AT_name("EN_SET_63_32")
    2248        .dwattr $C$DW$158, DW_AT_TI_symbol_name("EN_SET_63_32")
    2249        .dwattr $C$DW$158, DW_AT_bit_offset(0x00), DW_AT_bit_size(0x20)
    2250        .dwattr $C$DW$158, DW_AT_data_member_location[DW_OP_plus_uconst 0x0]
    2251        .dwattr $C$DW$158, DW_AT_accessibility(DW_ACCESS_public)
    2252        .dwattr $C$DW$158, DW_AT_decl_file("/opt/ti/ccsv6/ccs_base/pru/include/pru_intc.h")
    2253        .dwattr $C$DW$158, DW_AT_decl_line(0xd2)
    2254        .dwattr $C$DW$158, DW_AT_decl_column(0x0d)
    2255        .dwendtag $C$DW$T$35
    2256
    2257        .dwattr $C$DW$T$35, DW_AT_decl_file("/opt/ti/ccsv6/ccs_base/pru/include/pru_intc.h")
    2258        .dwattr $C$DW$T$35, DW_AT_decl_line(0xd1)
    2259        .dwattr $C$DW$T$35, DW_AT_decl_column(0x12)
    2260$C$DW$T$216     .dwtag  DW_TAG_volatile_type
    2261        .dwattr $C$DW$T$216, DW_AT_type(*$C$DW$T$35)
    2262
    2263$C$DW$T$36      .dwtag  DW_TAG_structure_type
    2264        .dwattr $C$DW$T$36, DW_AT_byte_size(0x04)
    2265$C$DW$159       .dwtag  DW_TAG_member
    2266        .dwattr $C$DW$159, DW_AT_type(*$C$DW$T$11)
    2267        .dwattr $C$DW$159, DW_AT_name("EN_CLR_31_0")
    2268        .dwattr $C$DW$159, DW_AT_TI_symbol_name("EN_CLR_31_0")
    2269        .dwattr $C$DW$159, DW_AT_bit_offset(0x00), DW_AT_bit_size(0x20)
    2270        .dwattr $C$DW$159, DW_AT_data_member_location[DW_OP_plus_uconst 0x0]
    2271        .dwattr $C$DW$159, DW_AT_accessibility(DW_ACCESS_public)
    2272        .dwattr $C$DW$159, DW_AT_decl_file("/opt/ti/ccsv6/ccs_base/pru/include/pru_intc.h")
PRU Assembler Unix v2.1.2 Wed Sep  7 12:11:05 2016

Tools Copyright (c) 2012-2015 Texas Instruments Incorporated
mcp3202.asm                                                          PAGE   44

    2273        .dwattr $C$DW$159, DW_AT_decl_line(0xdf)
    2274        .dwattr $C$DW$159, DW_AT_decl_column(0x0d)
    2275        .dwendtag $C$DW$T$36
    2276
    2277        .dwattr $C$DW$T$36, DW_AT_decl_file("/opt/ti/ccsv6/ccs_base/pru/include/pru_intc.h")
    2278        .dwattr $C$DW$T$36, DW_AT_decl_line(0xde)
    2279        .dwattr $C$DW$T$36, DW_AT_decl_column(0x12)
    2280$C$DW$T$218     .dwtag  DW_TAG_volatile_type
    2281        .dwattr $C$DW$T$218, DW_AT_type(*$C$DW$T$36)
    2282
    2283$C$DW$T$37      .dwtag  DW_TAG_structure_type
    2284        .dwattr $C$DW$T$37, DW_AT_byte_size(0x04)
    2285$C$DW$160       .dwtag  DW_TAG_member
    2286        .dwattr $C$DW$160, DW_AT_type(*$C$DW$T$11)
    2287        .dwattr $C$DW$160, DW_AT_name("EN_CLR_63_32")
    2288        .dwattr $C$DW$160, DW_AT_TI_symbol_name("EN_CLR_63_32")
    2289        .dwattr $C$DW$160, DW_AT_bit_offset(0x00), DW_AT_bit_size(0x20)
    2290        .dwattr $C$DW$160, DW_AT_data_member_location[DW_OP_plus_uconst 0x0]
    2291        .dwattr $C$DW$160, DW_AT_accessibility(DW_ACCESS_public)
    2292        .dwattr $C$DW$160, DW_AT_decl_file("/opt/ti/ccsv6/ccs_base/pru/include/pru_intc.h")
    2293        .dwattr $C$DW$160, DW_AT_decl_line(0xe9)
    2294        .dwattr $C$DW$160, DW_AT_decl_column(0x0d)
    2295        .dwendtag $C$DW$T$37
    2296
    2297        .dwattr $C$DW$T$37, DW_AT_decl_file("/opt/ti/ccsv6/ccs_base/pru/include/pru_intc.h")
    2298        .dwattr $C$DW$T$37, DW_AT_decl_line(0xe8)
    2299        .dwattr $C$DW$T$37, DW_AT_decl_column(0x12)
    2300$C$DW$T$220     .dwtag  DW_TAG_volatile_type
    2301        .dwattr $C$DW$T$220, DW_AT_type(*$C$DW$T$37)
    2302
    2303$C$DW$T$38      .dwtag  DW_TAG_structure_type
    2304        .dwattr $C$DW$T$38, DW_AT_byte_size(0x04)
    2305$C$DW$161       .dwtag  DW_TAG_member
    2306        .dwattr $C$DW$161, DW_AT_type(*$C$DW$T$11)
    2307        .dwattr $C$DW$161, DW_AT_name("CH_MAP_0")
    2308        .dwattr $C$DW$161, DW_AT_TI_symbol_name("CH_MAP_0")
    2309        .dwattr $C$DW$161, DW_AT_bit_offset(0x1c), DW_AT_bit_size(0x04)
    2310        .dwattr $C$DW$161, DW_AT_data_member_location[DW_OP_plus_uconst 0x0]
    2311        .dwattr $C$DW$161, DW_AT_accessibility(DW_ACCESS_public)
    2312        .dwattr $C$DW$161, DW_AT_decl_file("/opt/ti/ccsv6/ccs_base/pru/include/pru_intc.h")
    2313        .dwattr $C$DW$161, DW_AT_decl_line(0xf6)
    2314        .dwattr $C$DW$161, DW_AT_decl_column(0x0d)
    2315$C$DW$162       .dwtag  DW_TAG_member
    2316        .dwattr $C$DW$162, DW_AT_type(*$C$DW$T$11)
    2317        .dwattr $C$DW$162, DW_AT_name("rsvd4")
    2318        .dwattr $C$DW$162, DW_AT_TI_symbol_name("rsvd4")
    2319        .dwattr $C$DW$162, DW_AT_bit_offset(0x18), DW_AT_bit_size(0x04)
    2320        .dwattr $C$DW$162, DW_AT_data_member_location[DW_OP_plus_uconst 0x0]
    2321        .dwattr $C$DW$162, DW_AT_accessibility(DW_ACCESS_public)
    2322        .dwattr $C$DW$162, DW_AT_decl_file("/opt/ti/ccsv6/ccs_base/pru/include/pru_intc.h")
    2323        .dwattr $C$DW$162, DW_AT_decl_line(0xf7)
    2324        .dwattr $C$DW$162, DW_AT_decl_column(0x0d)
    2325$C$DW$163       .dwtag  DW_TAG_member
    2326        .dwattr $C$DW$163, DW_AT_type(*$C$DW$T$11)
    2327        .dwattr $C$DW$163, DW_AT_name("CH_MAP_1")
PRU Assembler Unix v2.1.2 Wed Sep  7 12:11:05 2016

Tools Copyright (c) 2012-2015 Texas Instruments Incorporated
mcp3202.asm                                                          PAGE   45

    2328        .dwattr $C$DW$163, DW_AT_TI_symbol_name("CH_MAP_1")
    2329        .dwattr $C$DW$163, DW_AT_bit_offset(0x14), DW_AT_bit_size(0x04)
    2330        .dwattr $C$DW$163, DW_AT_data_member_location[DW_OP_plus_uconst 0x0]
    2331        .dwattr $C$DW$163, DW_AT_accessibility(DW_ACCESS_public)
    2332        .dwattr $C$DW$163, DW_AT_decl_file("/opt/ti/ccsv6/ccs_base/pru/include/pru_intc.h")
    2333        .dwattr $C$DW$163, DW_AT_decl_line(0xf8)
    2334        .dwattr $C$DW$163, DW_AT_decl_column(0x0d)
    2335$C$DW$164       .dwtag  DW_TAG_member
    2336        .dwattr $C$DW$164, DW_AT_type(*$C$DW$T$11)
    2337        .dwattr $C$DW$164, DW_AT_name("rsvd12")
    2338        .dwattr $C$DW$164, DW_AT_TI_symbol_name("rsvd12")
    2339        .dwattr $C$DW$164, DW_AT_bit_offset(0x10), DW_AT_bit_size(0x04)
    2340        .dwattr $C$DW$164, DW_AT_data_member_location[DW_OP_plus_uconst 0x0]
    2341        .dwattr $C$DW$164, DW_AT_accessibility(DW_ACCESS_public)
    2342        .dwattr $C$DW$164, DW_AT_decl_file("/opt/ti/ccsv6/ccs_base/pru/include/pru_intc.h")
    2343        .dwattr $C$DW$164, DW_AT_decl_line(0xf9)
    2344        .dwattr $C$DW$164, DW_AT_decl_column(0x0d)
    2345$C$DW$165       .dwtag  DW_TAG_member
    2346        .dwattr $C$DW$165, DW_AT_type(*$C$DW$T$11)
    2347        .dwattr $C$DW$165, DW_AT_name("CH_MAP_2")
    2348        .dwattr $C$DW$165, DW_AT_TI_symbol_name("CH_MAP_2")
    2349        .dwattr $C$DW$165, DW_AT_bit_offset(0x0c), DW_AT_bit_size(0x04)
    2350        .dwattr $C$DW$165, DW_AT_data_member_location[DW_OP_plus_uconst 0x0]
    2351        .dwattr $C$DW$165, DW_AT_accessibility(DW_ACCESS_public)
    2352        .dwattr $C$DW$165, DW_AT_decl_file("/opt/ti/ccsv6/ccs_base/pru/include/pru_intc.h")
    2353        .dwattr $C$DW$165, DW_AT_decl_line(0xfa)
    2354        .dwattr $C$DW$165, DW_AT_decl_column(0x0d)
    2355$C$DW$166       .dwtag  DW_TAG_member
    2356        .dwattr $C$DW$166, DW_AT_type(*$C$DW$T$11)
    2357        .dwattr $C$DW$166, DW_AT_name("rsvd20")
    2358        .dwattr $C$DW$166, DW_AT_TI_symbol_name("rsvd20")
    2359        .dwattr $C$DW$166, DW_AT_bit_offset(0x08), DW_AT_bit_size(0x04)
    2360        .dwattr $C$DW$166, DW_AT_data_member_location[DW_OP_plus_uconst 0x0]
    2361        .dwattr $C$DW$166, DW_AT_accessibility(DW_ACCESS_public)
    2362        .dwattr $C$DW$166, DW_AT_decl_file("/opt/ti/ccsv6/ccs_base/pru/include/pru_intc.h")
    2363        .dwattr $C$DW$166, DW_AT_decl_line(0xfb)
    2364        .dwattr $C$DW$166, DW_AT_decl_column(0x0d)
    2365$C$DW$167       .dwtag  DW_TAG_member
    2366        .dwattr $C$DW$167, DW_AT_type(*$C$DW$T$11)
    2367        .dwattr $C$DW$167, DW_AT_name("CH_MAP_3")
    2368        .dwattr $C$DW$167, DW_AT_TI_symbol_name("CH_MAP_3")
    2369        .dwattr $C$DW$167, DW_AT_bit_offset(0x04), DW_AT_bit_size(0x04)
    2370        .dwattr $C$DW$167, DW_AT_data_member_location[DW_OP_plus_uconst 0x0]
    2371        .dwattr $C$DW$167, DW_AT_accessibility(DW_ACCESS_public)
    2372        .dwattr $C$DW$167, DW_AT_decl_file("/opt/ti/ccsv6/ccs_base/pru/include/pru_intc.h")
    2373        .dwattr $C$DW$167, DW_AT_decl_line(0xfc)
    2374        .dwattr $C$DW$167, DW_AT_decl_column(0x0d)
    2375$C$DW$168       .dwtag  DW_TAG_member
    2376        .dwattr $C$DW$168, DW_AT_type(*$C$DW$T$11)
    2377        .dwattr $C$DW$168, DW_AT_name("rsvd28")
    2378        .dwattr $C$DW$168, DW_AT_TI_symbol_name("rsvd28")
    2379        .dwattr $C$DW$168, DW_AT_bit_offset(0x00), DW_AT_bit_size(0x04)
    2380        .dwattr $C$DW$168, DW_AT_data_member_location[DW_OP_plus_uconst 0x0]
    2381        .dwattr $C$DW$168, DW_AT_accessibility(DW_ACCESS_public)
    2382        .dwattr $C$DW$168, DW_AT_decl_file("/opt/ti/ccsv6/ccs_base/pru/include/pru_intc.h")
PRU Assembler Unix v2.1.2 Wed Sep  7 12:11:05 2016

Tools Copyright (c) 2012-2015 Texas Instruments Incorporated
mcp3202.asm                                                          PAGE   46

    2383        .dwattr $C$DW$168, DW_AT_decl_line(0xfd)
    2384        .dwattr $C$DW$168, DW_AT_decl_column(0x0d)
    2385        .dwendtag $C$DW$T$38
    2386
    2387        .dwattr $C$DW$T$38, DW_AT_decl_file("/opt/ti/ccsv6/ccs_base/pru/include/pru_intc.h")
    2388        .dwattr $C$DW$T$38, DW_AT_decl_line(0xf5)
    2389        .dwattr $C$DW$T$38, DW_AT_decl_column(0x12)
    2390$C$DW$T$222     .dwtag  DW_TAG_volatile_type
    2391        .dwattr $C$DW$T$222, DW_AT_type(*$C$DW$T$38)
    2392
    2393$C$DW$T$39      .dwtag  DW_TAG_structure_type
    2394        .dwattr $C$DW$T$39, DW_AT_byte_size(0x04)
    2395$C$DW$169       .dwtag  DW_TAG_member
    2396        .dwattr $C$DW$169, DW_AT_type(*$C$DW$T$11)
    2397        .dwattr $C$DW$169, DW_AT_name("CH_MAP_4")
    2398        .dwattr $C$DW$169, DW_AT_TI_symbol_name("CH_MAP_4")
    2399        .dwattr $C$DW$169, DW_AT_bit_offset(0x1c), DW_AT_bit_size(0x04)
    2400        .dwattr $C$DW$169, DW_AT_data_member_location[DW_OP_plus_uconst 0x0]
    2401        .dwattr $C$DW$169, DW_AT_accessibility(DW_ACCESS_public)
    2402        .dwattr $C$DW$169, DW_AT_decl_file("/opt/ti/ccsv6/ccs_base/pru/include/pru_intc.h")
    2403        .dwattr $C$DW$169, DW_AT_decl_line(0x107)
    2404        .dwattr $C$DW$169, DW_AT_decl_column(0x0d)
    2405$C$DW$170       .dwtag  DW_TAG_member
    2406        .dwattr $C$DW$170, DW_AT_type(*$C$DW$T$11)
    2407        .dwattr $C$DW$170, DW_AT_name("rsvd4")
    2408        .dwattr $C$DW$170, DW_AT_TI_symbol_name("rsvd4")
    2409        .dwattr $C$DW$170, DW_AT_bit_offset(0x18), DW_AT_bit_size(0x04)
    2410        .dwattr $C$DW$170, DW_AT_data_member_location[DW_OP_plus_uconst 0x0]
    2411        .dwattr $C$DW$170, DW_AT_accessibility(DW_ACCESS_public)
    2412        .dwattr $C$DW$170, DW_AT_decl_file("/opt/ti/ccsv6/ccs_base/pru/include/pru_intc.h")
    2413        .dwattr $C$DW$170, DW_AT_decl_line(0x108)
    2414        .dwattr $C$DW$170, DW_AT_decl_column(0x0d)
    2415$C$DW$171       .dwtag  DW_TAG_member
    2416        .dwattr $C$DW$171, DW_AT_type(*$C$DW$T$11)
    2417        .dwattr $C$DW$171, DW_AT_name("CH_MAP_5")
    2418        .dwattr $C$DW$171, DW_AT_TI_symbol_name("CH_MAP_5")
    2419        .dwattr $C$DW$171, DW_AT_bit_offset(0x14), DW_AT_bit_size(0x04)
    2420        .dwattr $C$DW$171, DW_AT_data_member_location[DW_OP_plus_uconst 0x0]
    2421        .dwattr $C$DW$171, DW_AT_accessibility(DW_ACCESS_public)
    2422        .dwattr $C$DW$171, DW_AT_decl_file("/opt/ti/ccsv6/ccs_base/pru/include/pru_intc.h")
    2423        .dwattr $C$DW$171, DW_AT_decl_line(0x109)
    2424        .dwattr $C$DW$171, DW_AT_decl_column(0x0d)
    2425$C$DW$172       .dwtag  DW_TAG_member
    2426        .dwattr $C$DW$172, DW_AT_type(*$C$DW$T$11)
    2427        .dwattr $C$DW$172, DW_AT_name("rsvd12")
    2428        .dwattr $C$DW$172, DW_AT_TI_symbol_name("rsvd12")
    2429        .dwattr $C$DW$172, DW_AT_bit_offset(0x10), DW_AT_bit_size(0x04)
    2430        .dwattr $C$DW$172, DW_AT_data_member_location[DW_OP_plus_uconst 0x0]
    2431        .dwattr $C$DW$172, DW_AT_accessibility(DW_ACCESS_public)
    2432        .dwattr $C$DW$172, DW_AT_decl_file("/opt/ti/ccsv6/ccs_base/pru/include/pru_intc.h")
    2433        .dwattr $C$DW$172, DW_AT_decl_line(0x10a)
    2434        .dwattr $C$DW$172, DW_AT_decl_column(0x0d)
    2435$C$DW$173       .dwtag  DW_TAG_member
    2436        .dwattr $C$DW$173, DW_AT_type(*$C$DW$T$11)
    2437        .dwattr $C$DW$173, DW_AT_name("CH_MAP_6")
PRU Assembler Unix v2.1.2 Wed Sep  7 12:11:05 2016

Tools Copyright (c) 2012-2015 Texas Instruments Incorporated
mcp3202.asm                                                          PAGE   47

    2438        .dwattr $C$DW$173, DW_AT_TI_symbol_name("CH_MAP_6")
    2439        .dwattr $C$DW$173, DW_AT_bit_offset(0x0c), DW_AT_bit_size(0x04)
    2440        .dwattr $C$DW$173, DW_AT_data_member_location[DW_OP_plus_uconst 0x0]
    2441        .dwattr $C$DW$173, DW_AT_accessibility(DW_ACCESS_public)
    2442        .dwattr $C$DW$173, DW_AT_decl_file("/opt/ti/ccsv6/ccs_base/pru/include/pru_intc.h")
    2443        .dwattr $C$DW$173, DW_AT_decl_line(0x10b)
    2444        .dwattr $C$DW$173, DW_AT_decl_column(0x0d)
    2445$C$DW$174       .dwtag  DW_TAG_member
    2446        .dwattr $C$DW$174, DW_AT_type(*$C$DW$T$11)
    2447        .dwattr $C$DW$174, DW_AT_name("rsvd20")
    2448        .dwattr $C$DW$174, DW_AT_TI_symbol_name("rsvd20")
    2449        .dwattr $C$DW$174, DW_AT_bit_offset(0x08), DW_AT_bit_size(0x04)
    2450        .dwattr $C$DW$174, DW_AT_data_member_location[DW_OP_plus_uconst 0x0]
    2451        .dwattr $C$DW$174, DW_AT_accessibility(DW_ACCESS_public)
    2452        .dwattr $C$DW$174, DW_AT_decl_file("/opt/ti/ccsv6/ccs_base/pru/include/pru_intc.h")
    2453        .dwattr $C$DW$174, DW_AT_decl_line(0x10c)
    2454        .dwattr $C$DW$174, DW_AT_decl_column(0x0d)
    2455$C$DW$175       .dwtag  DW_TAG_member
    2456        .dwattr $C$DW$175, DW_AT_type(*$C$DW$T$11)
    2457        .dwattr $C$DW$175, DW_AT_name("CH_MAP_7")
    2458        .dwattr $C$DW$175, DW_AT_TI_symbol_name("CH_MAP_7")
    2459        .dwattr $C$DW$175, DW_AT_bit_offset(0x04), DW_AT_bit_size(0x04)
    2460        .dwattr $C$DW$175, DW_AT_data_member_location[DW_OP_plus_uconst 0x0]
    2461        .dwattr $C$DW$175, DW_AT_accessibility(DW_ACCESS_public)
    2462        .dwattr $C$DW$175, DW_AT_decl_file("/opt/ti/ccsv6/ccs_base/pru/include/pru_intc.h")
    2463        .dwattr $C$DW$175, DW_AT_decl_line(0x10d)
    2464        .dwattr $C$DW$175, DW_AT_decl_column(0x0d)
    2465$C$DW$176       .dwtag  DW_TAG_member
    2466        .dwattr $C$DW$176, DW_AT_type(*$C$DW$T$11)
    2467        .dwattr $C$DW$176, DW_AT_name("rsvd28")
    2468        .dwattr $C$DW$176, DW_AT_TI_symbol_name("rsvd28")
    2469        .dwattr $C$DW$176, DW_AT_bit_offset(0x00), DW_AT_bit_size(0x04)
    2470        .dwattr $C$DW$176, DW_AT_data_member_location[DW_OP_plus_uconst 0x0]
    2471        .dwattr $C$DW$176, DW_AT_accessibility(DW_ACCESS_public)
    2472        .dwattr $C$DW$176, DW_AT_decl_file("/opt/ti/ccsv6/ccs_base/pru/include/pru_intc.h")
    2473        .dwattr $C$DW$176, DW_AT_decl_line(0x10e)
    2474        .dwattr $C$DW$176, DW_AT_decl_column(0x0d)
    2475        .dwendtag $C$DW$T$39
    2476
    2477        .dwattr $C$DW$T$39, DW_AT_decl_file("/opt/ti/ccsv6/ccs_base/pru/include/pru_intc.h")
    2478        .dwattr $C$DW$T$39, DW_AT_decl_line(0x106)
    2479        .dwattr $C$DW$T$39, DW_AT_decl_column(0x12)
    2480$C$DW$T$224     .dwtag  DW_TAG_volatile_type
    2481        .dwattr $C$DW$T$224, DW_AT_type(*$C$DW$T$39)
    2482
    2483$C$DW$T$40      .dwtag  DW_TAG_structure_type
    2484        .dwattr $C$DW$T$40, DW_AT_byte_size(0x04)
    2485$C$DW$177       .dwtag  DW_TAG_member
    2486        .dwattr $C$DW$177, DW_AT_type(*$C$DW$T$11)
    2487        .dwattr $C$DW$177, DW_AT_name("CH_MAP_8")
    2488        .dwattr $C$DW$177, DW_AT_TI_symbol_name("CH_MAP_8")
    2489        .dwattr $C$DW$177, DW_AT_bit_offset(0x1c), DW_AT_bit_size(0x04)
    2490        .dwattr $C$DW$177, DW_AT_data_member_location[DW_OP_plus_uconst 0x0]
    2491        .dwattr $C$DW$177, DW_AT_accessibility(DW_ACCESS_public)
    2492        .dwattr $C$DW$177, DW_AT_decl_file("/opt/ti/ccsv6/ccs_base/pru/include/pru_intc.h")
PRU Assembler Unix v2.1.2 Wed Sep  7 12:11:05 2016

Tools Copyright (c) 2012-2015 Texas Instruments Incorporated
mcp3202.asm                                                          PAGE   48

    2493        .dwattr $C$DW$177, DW_AT_decl_line(0x118)
    2494        .dwattr $C$DW$177, DW_AT_decl_column(0x0d)
    2495$C$DW$178       .dwtag  DW_TAG_member
    2496        .dwattr $C$DW$178, DW_AT_type(*$C$DW$T$11)
    2497        .dwattr $C$DW$178, DW_AT_name("rsvd4")
    2498        .dwattr $C$DW$178, DW_AT_TI_symbol_name("rsvd4")
    2499        .dwattr $C$DW$178, DW_AT_bit_offset(0x18), DW_AT_bit_size(0x04)
    2500        .dwattr $C$DW$178, DW_AT_data_member_location[DW_OP_plus_uconst 0x0]
    2501        .dwattr $C$DW$178, DW_AT_accessibility(DW_ACCESS_public)
    2502        .dwattr $C$DW$178, DW_AT_decl_file("/opt/ti/ccsv6/ccs_base/pru/include/pru_intc.h")
    2503        .dwattr $C$DW$178, DW_AT_decl_line(0x119)
    2504        .dwattr $C$DW$178, DW_AT_decl_column(0x0d)
    2505$C$DW$179       .dwtag  DW_TAG_member
    2506        .dwattr $C$DW$179, DW_AT_type(*$C$DW$T$11)
    2507        .dwattr $C$DW$179, DW_AT_name("CH_MAP_9")
    2508        .dwattr $C$DW$179, DW_AT_TI_symbol_name("CH_MAP_9")
    2509        .dwattr $C$DW$179, DW_AT_bit_offset(0x14), DW_AT_bit_size(0x04)
    2510        .dwattr $C$DW$179, DW_AT_data_member_location[DW_OP_plus_uconst 0x0]
    2511        .dwattr $C$DW$179, DW_AT_accessibility(DW_ACCESS_public)
    2512        .dwattr $C$DW$179, DW_AT_decl_file("/opt/ti/ccsv6/ccs_base/pru/include/pru_intc.h")
    2513        .dwattr $C$DW$179, DW_AT_decl_line(0x11a)
    2514        .dwattr $C$DW$179, DW_AT_decl_column(0x0d)
    2515$C$DW$180       .dwtag  DW_TAG_member
    2516        .dwattr $C$DW$180, DW_AT_type(*$C$DW$T$11)
    2517        .dwattr $C$DW$180, DW_AT_name("rsvd12")
    2518        .dwattr $C$DW$180, DW_AT_TI_symbol_name("rsvd12")
    2519        .dwattr $C$DW$180, DW_AT_bit_offset(0x10), DW_AT_bit_size(0x04)
    2520        .dwattr $C$DW$180, DW_AT_data_member_location[DW_OP_plus_uconst 0x0]
    2521        .dwattr $C$DW$180, DW_AT_accessibility(DW_ACCESS_public)
    2522        .dwattr $C$DW$180, DW_AT_decl_file("/opt/ti/ccsv6/ccs_base/pru/include/pru_intc.h")
    2523        .dwattr $C$DW$180, DW_AT_decl_line(0x11b)
    2524        .dwattr $C$DW$180, DW_AT_decl_column(0x0d)
    2525$C$DW$181       .dwtag  DW_TAG_member
    2526        .dwattr $C$DW$181, DW_AT_type(*$C$DW$T$11)
    2527        .dwattr $C$DW$181, DW_AT_name("CH_MAP_10")
    2528        .dwattr $C$DW$181, DW_AT_TI_symbol_name("CH_MAP_10")
    2529        .dwattr $C$DW$181, DW_AT_bit_offset(0x0c), DW_AT_bit_size(0x04)
    2530        .dwattr $C$DW$181, DW_AT_data_member_location[DW_OP_plus_uconst 0x0]
    2531        .dwattr $C$DW$181, DW_AT_accessibility(DW_ACCESS_public)
    2532        .dwattr $C$DW$181, DW_AT_decl_file("/opt/ti/ccsv6/ccs_base/pru/include/pru_intc.h")
    2533        .dwattr $C$DW$181, DW_AT_decl_line(0x11c)
    2534        .dwattr $C$DW$181, DW_AT_decl_column(0x0d)
    2535$C$DW$182       .dwtag  DW_TAG_member
    2536        .dwattr $C$DW$182, DW_AT_type(*$C$DW$T$11)
    2537        .dwattr $C$DW$182, DW_AT_name("rsvd20")
    2538        .dwattr $C$DW$182, DW_AT_TI_symbol_name("rsvd20")
    2539        .dwattr $C$DW$182, DW_AT_bit_offset(0x08), DW_AT_bit_size(0x04)
    2540        .dwattr $C$DW$182, DW_AT_data_member_location[DW_OP_plus_uconst 0x0]
    2541        .dwattr $C$DW$182, DW_AT_accessibility(DW_ACCESS_public)
    2542        .dwattr $C$DW$182, DW_AT_decl_file("/opt/ti/ccsv6/ccs_base/pru/include/pru_intc.h")
    2543        .dwattr $C$DW$182, DW_AT_decl_line(0x11d)
    2544        .dwattr $C$DW$182, DW_AT_decl_column(0x0d)
    2545$C$DW$183       .dwtag  DW_TAG_member
    2546        .dwattr $C$DW$183, DW_AT_type(*$C$DW$T$11)
    2547        .dwattr $C$DW$183, DW_AT_name("CH_MAP_11")
PRU Assembler Unix v2.1.2 Wed Sep  7 12:11:05 2016

Tools Copyright (c) 2012-2015 Texas Instruments Incorporated
mcp3202.asm                                                          PAGE   49

    2548        .dwattr $C$DW$183, DW_AT_TI_symbol_name("CH_MAP_11")
    2549        .dwattr $C$DW$183, DW_AT_bit_offset(0x04), DW_AT_bit_size(0x04)
    2550        .dwattr $C$DW$183, DW_AT_data_member_location[DW_OP_plus_uconst 0x0]
    2551        .dwattr $C$DW$183, DW_AT_accessibility(DW_ACCESS_public)
    2552        .dwattr $C$DW$183, DW_AT_decl_file("/opt/ti/ccsv6/ccs_base/pru/include/pru_intc.h")
    2553        .dwattr $C$DW$183, DW_AT_decl_line(0x11e)
    2554        .dwattr $C$DW$183, DW_AT_decl_column(0x0d)
    2555$C$DW$184       .dwtag  DW_TAG_member
    2556        .dwattr $C$DW$184, DW_AT_type(*$C$DW$T$11)
    2557        .dwattr $C$DW$184, DW_AT_name("rsvd28")
    2558        .dwattr $C$DW$184, DW_AT_TI_symbol_name("rsvd28")
    2559        .dwattr $C$DW$184, DW_AT_bit_offset(0x00), DW_AT_bit_size(0x04)
    2560        .dwattr $C$DW$184, DW_AT_data_member_location[DW_OP_plus_uconst 0x0]
    2561        .dwattr $C$DW$184, DW_AT_accessibility(DW_ACCESS_public)
    2562        .dwattr $C$DW$184, DW_AT_decl_file("/opt/ti/ccsv6/ccs_base/pru/include/pru_intc.h")
    2563        .dwattr $C$DW$184, DW_AT_decl_line(0x11f)
    2564        .dwattr $C$DW$184, DW_AT_decl_column(0x0d)
    2565        .dwendtag $C$DW$T$40
    2566
    2567        .dwattr $C$DW$T$40, DW_AT_decl_file("/opt/ti/ccsv6/ccs_base/pru/include/pru_intc.h")
    2568        .dwattr $C$DW$T$40, DW_AT_decl_line(0x117)
    2569        .dwattr $C$DW$T$40, DW_AT_decl_column(0x12)
    2570$C$DW$T$226     .dwtag  DW_TAG_volatile_type
    2571        .dwattr $C$DW$T$226, DW_AT_type(*$C$DW$T$40)
    2572
    2573$C$DW$T$41      .dwtag  DW_TAG_structure_type
    2574        .dwattr $C$DW$T$41, DW_AT_byte_size(0x04)
    2575$C$DW$185       .dwtag  DW_TAG_member
    2576        .dwattr $C$DW$185, DW_AT_type(*$C$DW$T$11)
    2577        .dwattr $C$DW$185, DW_AT_name("CH_MAP_12")
    2578        .dwattr $C$DW$185, DW_AT_TI_symbol_name("CH_MAP_12")
    2579        .dwattr $C$DW$185, DW_AT_bit_offset(0x1c), DW_AT_bit_size(0x04)
    2580        .dwattr $C$DW$185, DW_AT_data_member_location[DW_OP_plus_uconst 0x0]
    2581        .dwattr $C$DW$185, DW_AT_accessibility(DW_ACCESS_public)
    2582        .dwattr $C$DW$185, DW_AT_decl_file("/opt/ti/ccsv6/ccs_base/pru/include/pru_intc.h")
    2583        .dwattr $C$DW$185, DW_AT_decl_line(0x129)
    2584        .dwattr $C$DW$185, DW_AT_decl_column(0x0d)
    2585$C$DW$186       .dwtag  DW_TAG_member
    2586        .dwattr $C$DW$186, DW_AT_type(*$C$DW$T$11)
    2587        .dwattr $C$DW$186, DW_AT_name("rsvd4")
    2588        .dwattr $C$DW$186, DW_AT_TI_symbol_name("rsvd4")
    2589        .dwattr $C$DW$186, DW_AT_bit_offset(0x18), DW_AT_bit_size(0x04)
    2590        .dwattr $C$DW$186, DW_AT_data_member_location[DW_OP_plus_uconst 0x0]
    2591        .dwattr $C$DW$186, DW_AT_accessibility(DW_ACCESS_public)
    2592        .dwattr $C$DW$186, DW_AT_decl_file("/opt/ti/ccsv6/ccs_base/pru/include/pru_intc.h")
    2593        .dwattr $C$DW$186, DW_AT_decl_line(0x12a)
    2594        .dwattr $C$DW$186, DW_AT_decl_column(0x0d)
    2595$C$DW$187       .dwtag  DW_TAG_member
    2596        .dwattr $C$DW$187, DW_AT_type(*$C$DW$T$11)
    2597        .dwattr $C$DW$187, DW_AT_name("CH_MAP_13")
    2598        .dwattr $C$DW$187, DW_AT_TI_symbol_name("CH_MAP_13")
    2599        .dwattr $C$DW$187, DW_AT_bit_offset(0x14), DW_AT_bit_size(0x04)
    2600        .dwattr $C$DW$187, DW_AT_data_member_location[DW_OP_plus_uconst 0x0]
    2601        .dwattr $C$DW$187, DW_AT_accessibility(DW_ACCESS_public)
    2602        .dwattr $C$DW$187, DW_AT_decl_file("/opt/ti/ccsv6/ccs_base/pru/include/pru_intc.h")
PRU Assembler Unix v2.1.2 Wed Sep  7 12:11:05 2016

Tools Copyright (c) 2012-2015 Texas Instruments Incorporated
mcp3202.asm                                                          PAGE   50

    2603        .dwattr $C$DW$187, DW_AT_decl_line(0x12b)
    2604        .dwattr $C$DW$187, DW_AT_decl_column(0x0d)
    2605$C$DW$188       .dwtag  DW_TAG_member
    2606        .dwattr $C$DW$188, DW_AT_type(*$C$DW$T$11)
    2607        .dwattr $C$DW$188, DW_AT_name("rsvd12")
    2608        .dwattr $C$DW$188, DW_AT_TI_symbol_name("rsvd12")
    2609        .dwattr $C$DW$188, DW_AT_bit_offset(0x10), DW_AT_bit_size(0x04)
    2610        .dwattr $C$DW$188, DW_AT_data_member_location[DW_OP_plus_uconst 0x0]
    2611        .dwattr $C$DW$188, DW_AT_accessibility(DW_ACCESS_public)
    2612        .dwattr $C$DW$188, DW_AT_decl_file("/opt/ti/ccsv6/ccs_base/pru/include/pru_intc.h")
    2613        .dwattr $C$DW$188, DW_AT_decl_line(0x12c)
    2614        .dwattr $C$DW$188, DW_AT_decl_column(0x0d)
    2615$C$DW$189       .dwtag  DW_TAG_member
    2616        .dwattr $C$DW$189, DW_AT_type(*$C$DW$T$11)
    2617        .dwattr $C$DW$189, DW_AT_name("CH_MAP_14")
    2618        .dwattr $C$DW$189, DW_AT_TI_symbol_name("CH_MAP_14")
    2619        .dwattr $C$DW$189, DW_AT_bit_offset(0x0c), DW_AT_bit_size(0x04)
    2620        .dwattr $C$DW$189, DW_AT_data_member_location[DW_OP_plus_uconst 0x0]
    2621        .dwattr $C$DW$189, DW_AT_accessibility(DW_ACCESS_public)
    2622        .dwattr $C$DW$189, DW_AT_decl_file("/opt/ti/ccsv6/ccs_base/pru/include/pru_intc.h")
    2623        .dwattr $C$DW$189, DW_AT_decl_line(0x12d)
    2624        .dwattr $C$DW$189, DW_AT_decl_column(0x0d)
    2625$C$DW$190       .dwtag  DW_TAG_member
    2626        .dwattr $C$DW$190, DW_AT_type(*$C$DW$T$11)
    2627        .dwattr $C$DW$190, DW_AT_name("rsvd20")
    2628        .dwattr $C$DW$190, DW_AT_TI_symbol_name("rsvd20")
    2629        .dwattr $C$DW$190, DW_AT_bit_offset(0x08), DW_AT_bit_size(0x04)
    2630        .dwattr $C$DW$190, DW_AT_data_member_location[DW_OP_plus_uconst 0x0]
    2631        .dwattr $C$DW$190, DW_AT_accessibility(DW_ACCESS_public)
    2632        .dwattr $C$DW$190, DW_AT_decl_file("/opt/ti/ccsv6/ccs_base/pru/include/pru_intc.h")
    2633        .dwattr $C$DW$190, DW_AT_decl_line(0x12e)
    2634        .dwattr $C$DW$190, DW_AT_decl_column(0x0d)
    2635$C$DW$191       .dwtag  DW_TAG_member
    2636        .dwattr $C$DW$191, DW_AT_type(*$C$DW$T$11)
    2637        .dwattr $C$DW$191, DW_AT_name("CH_MAP_15")
    2638        .dwattr $C$DW$191, DW_AT_TI_symbol_name("CH_MAP_15")
    2639        .dwattr $C$DW$191, DW_AT_bit_offset(0x04), DW_AT_bit_size(0x04)
    2640        .dwattr $C$DW$191, DW_AT_data_member_location[DW_OP_plus_uconst 0x0]
    2641        .dwattr $C$DW$191, DW_AT_accessibility(DW_ACCESS_public)
    2642        .dwattr $C$DW$191, DW_AT_decl_file("/opt/ti/ccsv6/ccs_base/pru/include/pru_intc.h")
    2643        .dwattr $C$DW$191, DW_AT_decl_line(0x12f)
    2644        .dwattr $C$DW$191, DW_AT_decl_column(0x0d)
    2645$C$DW$192       .dwtag  DW_TAG_member
    2646        .dwattr $C$DW$192, DW_AT_type(*$C$DW$T$11)
    2647        .dwattr $C$DW$192, DW_AT_name("rsvd28")
    2648        .dwattr $C$DW$192, DW_AT_TI_symbol_name("rsvd28")
    2649        .dwattr $C$DW$192, DW_AT_bit_offset(0x00), DW_AT_bit_size(0x04)
    2650        .dwattr $C$DW$192, DW_AT_data_member_location[DW_OP_plus_uconst 0x0]
    2651        .dwattr $C$DW$192, DW_AT_accessibility(DW_ACCESS_public)
    2652        .dwattr $C$DW$192, DW_AT_decl_file("/opt/ti/ccsv6/ccs_base/pru/include/pru_intc.h")
    2653        .dwattr $C$DW$192, DW_AT_decl_line(0x130)
    2654        .dwattr $C$DW$192, DW_AT_decl_column(0x0d)
    2655        .dwendtag $C$DW$T$41
    2656
    2657        .dwattr $C$DW$T$41, DW_AT_decl_file("/opt/ti/ccsv6/ccs_base/pru/include/pru_intc.h")
PRU Assembler Unix v2.1.2 Wed Sep  7 12:11:05 2016

Tools Copyright (c) 2012-2015 Texas Instruments Incorporated
mcp3202.asm                                                          PAGE   51

    2658        .dwattr $C$DW$T$41, DW_AT_decl_line(0x128)
    2659        .dwattr $C$DW$T$41, DW_AT_decl_column(0x12)
    2660$C$DW$T$228     .dwtag  DW_TAG_volatile_type
    2661        .dwattr $C$DW$T$228, DW_AT_type(*$C$DW$T$41)
    2662
    2663$C$DW$T$42      .dwtag  DW_TAG_structure_type
    2664        .dwattr $C$DW$T$42, DW_AT_byte_size(0x04)
    2665$C$DW$193       .dwtag  DW_TAG_member
    2666        .dwattr $C$DW$193, DW_AT_type(*$C$DW$T$11)
    2667        .dwattr $C$DW$193, DW_AT_name("CH_MAP_16")
    2668        .dwattr $C$DW$193, DW_AT_TI_symbol_name("CH_MAP_16")
    2669        .dwattr $C$DW$193, DW_AT_bit_offset(0x1c), DW_AT_bit_size(0x04)
    2670        .dwattr $C$DW$193, DW_AT_data_member_location[DW_OP_plus_uconst 0x0]
    2671        .dwattr $C$DW$193, DW_AT_accessibility(DW_ACCESS_public)
    2672        .dwattr $C$DW$193, DW_AT_decl_file("/opt/ti/ccsv6/ccs_base/pru/include/pru_intc.h")
    2673        .dwattr $C$DW$193, DW_AT_decl_line(0x13a)
    2674        .dwattr $C$DW$193, DW_AT_decl_column(0x0d)
    2675$C$DW$194       .dwtag  DW_TAG_member
    2676        .dwattr $C$DW$194, DW_AT_type(*$C$DW$T$11)
    2677        .dwattr $C$DW$194, DW_AT_name("rsvd4")
    2678        .dwattr $C$DW$194, DW_AT_TI_symbol_name("rsvd4")
    2679        .dwattr $C$DW$194, DW_AT_bit_offset(0x18), DW_AT_bit_size(0x04)
    2680        .dwattr $C$DW$194, DW_AT_data_member_location[DW_OP_plus_uconst 0x0]
    2681        .dwattr $C$DW$194, DW_AT_accessibility(DW_ACCESS_public)
    2682        .dwattr $C$DW$194, DW_AT_decl_file("/opt/ti/ccsv6/ccs_base/pru/include/pru_intc.h")
    2683        .dwattr $C$DW$194, DW_AT_decl_line(0x13b)
    2684        .dwattr $C$DW$194, DW_AT_decl_column(0x0d)
    2685$C$DW$195       .dwtag  DW_TAG_member
    2686        .dwattr $C$DW$195, DW_AT_type(*$C$DW$T$11)
    2687        .dwattr $C$DW$195, DW_AT_name("CH_MAP_17")
    2688        .dwattr $C$DW$195, DW_AT_TI_symbol_name("CH_MAP_17")
    2689        .dwattr $C$DW$195, DW_AT_bit_offset(0x14), DW_AT_bit_size(0x04)
    2690        .dwattr $C$DW$195, DW_AT_data_member_location[DW_OP_plus_uconst 0x0]
    2691        .dwattr $C$DW$195, DW_AT_accessibility(DW_ACCESS_public)
    2692        .dwattr $C$DW$195, DW_AT_decl_file("/opt/ti/ccsv6/ccs_base/pru/include/pru_intc.h")
    2693        .dwattr $C$DW$195, DW_AT_decl_line(0x13c)
    2694        .dwattr $C$DW$195, DW_AT_decl_column(0x0d)
    2695$C$DW$196       .dwtag  DW_TAG_member
    2696        .dwattr $C$DW$196, DW_AT_type(*$C$DW$T$11)
    2697        .dwattr $C$DW$196, DW_AT_name("rsvd12")
    2698        .dwattr $C$DW$196, DW_AT_TI_symbol_name("rsvd12")
    2699        .dwattr $C$DW$196, DW_AT_bit_offset(0x10), DW_AT_bit_size(0x04)
    2700        .dwattr $C$DW$196, DW_AT_data_member_location[DW_OP_plus_uconst 0x0]
    2701        .dwattr $C$DW$196, DW_AT_accessibility(DW_ACCESS_public)
    2702        .dwattr $C$DW$196, DW_AT_decl_file("/opt/ti/ccsv6/ccs_base/pru/include/pru_intc.h")
    2703        .dwattr $C$DW$196, DW_AT_decl_line(0x13d)
    2704        .dwattr $C$DW$196, DW_AT_decl_column(0x0d)
    2705$C$DW$197       .dwtag  DW_TAG_member
    2706        .dwattr $C$DW$197, DW_AT_type(*$C$DW$T$11)
    2707        .dwattr $C$DW$197, DW_AT_name("CH_MAP_18")
    2708        .dwattr $C$DW$197, DW_AT_TI_symbol_name("CH_MAP_18")
    2709        .dwattr $C$DW$197, DW_AT_bit_offset(0x0c), DW_AT_bit_size(0x04)
    2710        .dwattr $C$DW$197, DW_AT_data_member_location[DW_OP_plus_uconst 0x0]
    2711        .dwattr $C$DW$197, DW_AT_accessibility(DW_ACCESS_public)
    2712        .dwattr $C$DW$197, DW_AT_decl_file("/opt/ti/ccsv6/ccs_base/pru/include/pru_intc.h")
PRU Assembler Unix v2.1.2 Wed Sep  7 12:11:05 2016

Tools Copyright (c) 2012-2015 Texas Instruments Incorporated
mcp3202.asm                                                          PAGE   52

    2713        .dwattr $C$DW$197, DW_AT_decl_line(0x13e)
    2714        .dwattr $C$DW$197, DW_AT_decl_column(0x0d)
    2715$C$DW$198       .dwtag  DW_TAG_member
    2716        .dwattr $C$DW$198, DW_AT_type(*$C$DW$T$11)
    2717        .dwattr $C$DW$198, DW_AT_name("rsvd20")
    2718        .dwattr $C$DW$198, DW_AT_TI_symbol_name("rsvd20")
    2719        .dwattr $C$DW$198, DW_AT_bit_offset(0x08), DW_AT_bit_size(0x04)
    2720        .dwattr $C$DW$198, DW_AT_data_member_location[DW_OP_plus_uconst 0x0]
    2721        .dwattr $C$DW$198, DW_AT_accessibility(DW_ACCESS_public)
    2722        .dwattr $C$DW$198, DW_AT_decl_file("/opt/ti/ccsv6/ccs_base/pru/include/pru_intc.h")
    2723        .dwattr $C$DW$198, DW_AT_decl_line(0x13f)
    2724        .dwattr $C$DW$198, DW_AT_decl_column(0x0d)
    2725$C$DW$199       .dwtag  DW_TAG_member
    2726        .dwattr $C$DW$199, DW_AT_type(*$C$DW$T$11)
    2727        .dwattr $C$DW$199, DW_AT_name("CH_MAP_19")
    2728        .dwattr $C$DW$199, DW_AT_TI_symbol_name("CH_MAP_19")
    2729        .dwattr $C$DW$199, DW_AT_bit_offset(0x04), DW_AT_bit_size(0x04)
    2730        .dwattr $C$DW$199, DW_AT_data_member_location[DW_OP_plus_uconst 0x0]
    2731        .dwattr $C$DW$199, DW_AT_accessibility(DW_ACCESS_public)
    2732        .dwattr $C$DW$199, DW_AT_decl_file("/opt/ti/ccsv6/ccs_base/pru/include/pru_intc.h")
    2733        .dwattr $C$DW$199, DW_AT_decl_line(0x140)
    2734        .dwattr $C$DW$199, DW_AT_decl_column(0x0d)
    2735$C$DW$200       .dwtag  DW_TAG_member
    2736        .dwattr $C$DW$200, DW_AT_type(*$C$DW$T$11)
    2737        .dwattr $C$DW$200, DW_AT_name("rsvd28")
    2738        .dwattr $C$DW$200, DW_AT_TI_symbol_name("rsvd28")
    2739        .dwattr $C$DW$200, DW_AT_bit_offset(0x00), DW_AT_bit_size(0x04)
    2740        .dwattr $C$DW$200, DW_AT_data_member_location[DW_OP_plus_uconst 0x0]
    2741        .dwattr $C$DW$200, DW_AT_accessibility(DW_ACCESS_public)
    2742        .dwattr $C$DW$200, DW_AT_decl_file("/opt/ti/ccsv6/ccs_base/pru/include/pru_intc.h")
    2743        .dwattr $C$DW$200, DW_AT_decl_line(0x141)
    2744        .dwattr $C$DW$200, DW_AT_decl_column(0x0d)
    2745        .dwendtag $C$DW$T$42
    2746
    2747        .dwattr $C$DW$T$42, DW_AT_decl_file("/opt/ti/ccsv6/ccs_base/pru/include/pru_intc.h")
    2748        .dwattr $C$DW$T$42, DW_AT_decl_line(0x139)
    2749        .dwattr $C$DW$T$42, DW_AT_decl_column(0x12)
    2750$C$DW$T$230     .dwtag  DW_TAG_volatile_type
    2751        .dwattr $C$DW$T$230, DW_AT_type(*$C$DW$T$42)
    2752
    2753$C$DW$T$43      .dwtag  DW_TAG_structure_type
    2754        .dwattr $C$DW$T$43, DW_AT_byte_size(0x04)
    2755$C$DW$201       .dwtag  DW_TAG_member
    2756        .dwattr $C$DW$201, DW_AT_type(*$C$DW$T$11)
    2757        .dwattr $C$DW$201, DW_AT_name("CH_MAP_20")
    2758        .dwattr $C$DW$201, DW_AT_TI_symbol_name("CH_MAP_20")
    2759        .dwattr $C$DW$201, DW_AT_bit_offset(0x1c), DW_AT_bit_size(0x04)
    2760        .dwattr $C$DW$201, DW_AT_data_member_location[DW_OP_plus_uconst 0x0]
    2761        .dwattr $C$DW$201, DW_AT_accessibility(DW_ACCESS_public)
    2762        .dwattr $C$DW$201, DW_AT_decl_file("/opt/ti/ccsv6/ccs_base/pru/include/pru_intc.h")
    2763        .dwattr $C$DW$201, DW_AT_decl_line(0x14b)
    2764        .dwattr $C$DW$201, DW_AT_decl_column(0x0d)
    2765$C$DW$202       .dwtag  DW_TAG_member
    2766        .dwattr $C$DW$202, DW_AT_type(*$C$DW$T$11)
    2767        .dwattr $C$DW$202, DW_AT_name("rsvd4")
PRU Assembler Unix v2.1.2 Wed Sep  7 12:11:05 2016

Tools Copyright (c) 2012-2015 Texas Instruments Incorporated
mcp3202.asm                                                          PAGE   53

    2768        .dwattr $C$DW$202, DW_AT_TI_symbol_name("rsvd4")
    2769        .dwattr $C$DW$202, DW_AT_bit_offset(0x18), DW_AT_bit_size(0x04)
    2770        .dwattr $C$DW$202, DW_AT_data_member_location[DW_OP_plus_uconst 0x0]
    2771        .dwattr $C$DW$202, DW_AT_accessibility(DW_ACCESS_public)
    2772        .dwattr $C$DW$202, DW_AT_decl_file("/opt/ti/ccsv6/ccs_base/pru/include/pru_intc.h")
    2773        .dwattr $C$DW$202, DW_AT_decl_line(0x14c)
    2774        .dwattr $C$DW$202, DW_AT_decl_column(0x0d)
    2775$C$DW$203       .dwtag  DW_TAG_member
    2776        .dwattr $C$DW$203, DW_AT_type(*$C$DW$T$11)
    2777        .dwattr $C$DW$203, DW_AT_name("CH_MAP_21")
    2778        .dwattr $C$DW$203, DW_AT_TI_symbol_name("CH_MAP_21")
    2779        .dwattr $C$DW$203, DW_AT_bit_offset(0x14), DW_AT_bit_size(0x04)
    2780        .dwattr $C$DW$203, DW_AT_data_member_location[DW_OP_plus_uconst 0x0]
    2781        .dwattr $C$DW$203, DW_AT_accessibility(DW_ACCESS_public)
    2782        .dwattr $C$DW$203, DW_AT_decl_file("/opt/ti/ccsv6/ccs_base/pru/include/pru_intc.h")
    2783        .dwattr $C$DW$203, DW_AT_decl_line(0x14d)
    2784        .dwattr $C$DW$203, DW_AT_decl_column(0x0d)
    2785$C$DW$204       .dwtag  DW_TAG_member
    2786        .dwattr $C$DW$204, DW_AT_type(*$C$DW$T$11)
    2787        .dwattr $C$DW$204, DW_AT_name("rsvd12")
    2788        .dwattr $C$DW$204, DW_AT_TI_symbol_name("rsvd12")
    2789        .dwattr $C$DW$204, DW_AT_bit_offset(0x10), DW_AT_bit_size(0x04)
    2790        .dwattr $C$DW$204, DW_AT_data_member_location[DW_OP_plus_uconst 0x0]
    2791        .dwattr $C$DW$204, DW_AT_accessibility(DW_ACCESS_public)
    2792        .dwattr $C$DW$204, DW_AT_decl_file("/opt/ti/ccsv6/ccs_base/pru/include/pru_intc.h")
    2793        .dwattr $C$DW$204, DW_AT_decl_line(0x14e)
    2794        .dwattr $C$DW$204, DW_AT_decl_column(0x0d)
    2795$C$DW$205       .dwtag  DW_TAG_member
    2796        .dwattr $C$DW$205, DW_AT_type(*$C$DW$T$11)
    2797        .dwattr $C$DW$205, DW_AT_name("CH_MAP_22")
    2798        .dwattr $C$DW$205, DW_AT_TI_symbol_name("CH_MAP_22")
    2799        .dwattr $C$DW$205, DW_AT_bit_offset(0x0c), DW_AT_bit_size(0x04)
    2800        .dwattr $C$DW$205, DW_AT_data_member_location[DW_OP_plus_uconst 0x0]
    2801        .dwattr $C$DW$205, DW_AT_accessibility(DW_ACCESS_public)
    2802        .dwattr $C$DW$205, DW_AT_decl_file("/opt/ti/ccsv6/ccs_base/pru/include/pru_intc.h")
    2803        .dwattr $C$DW$205, DW_AT_decl_line(0x14f)
    2804        .dwattr $C$DW$205, DW_AT_decl_column(0x0d)
    2805$C$DW$206       .dwtag  DW_TAG_member
    2806        .dwattr $C$DW$206, DW_AT_type(*$C$DW$T$11)
    2807        .dwattr $C$DW$206, DW_AT_name("rsvd20")
    2808        .dwattr $C$DW$206, DW_AT_TI_symbol_name("rsvd20")
    2809        .dwattr $C$DW$206, DW_AT_bit_offset(0x08), DW_AT_bit_size(0x04)
    2810        .dwattr $C$DW$206, DW_AT_data_member_location[DW_OP_plus_uconst 0x0]
    2811        .dwattr $C$DW$206, DW_AT_accessibility(DW_ACCESS_public)
    2812        .dwattr $C$DW$206, DW_AT_decl_file("/opt/ti/ccsv6/ccs_base/pru/include/pru_intc.h")
    2813        .dwattr $C$DW$206, DW_AT_decl_line(0x150)
    2814        .dwattr $C$DW$206, DW_AT_decl_column(0x0d)
    2815$C$DW$207       .dwtag  DW_TAG_member
    2816        .dwattr $C$DW$207, DW_AT_type(*$C$DW$T$11)
    2817        .dwattr $C$DW$207, DW_AT_name("CH_MAP_23")
    2818        .dwattr $C$DW$207, DW_AT_TI_symbol_name("CH_MAP_23")
    2819        .dwattr $C$DW$207, DW_AT_bit_offset(0x04), DW_AT_bit_size(0x04)
    2820        .dwattr $C$DW$207, DW_AT_data_member_location[DW_OP_plus_uconst 0x0]
    2821        .dwattr $C$DW$207, DW_AT_accessibility(DW_ACCESS_public)
    2822        .dwattr $C$DW$207, DW_AT_decl_file("/opt/ti/ccsv6/ccs_base/pru/include/pru_intc.h")
PRU Assembler Unix v2.1.2 Wed Sep  7 12:11:05 2016

Tools Copyright (c) 2012-2015 Texas Instruments Incorporated
mcp3202.asm                                                          PAGE   54

    2823        .dwattr $C$DW$207, DW_AT_decl_line(0x151)
    2824        .dwattr $C$DW$207, DW_AT_decl_column(0x0d)
    2825$C$DW$208       .dwtag  DW_TAG_member
    2826        .dwattr $C$DW$208, DW_AT_type(*$C$DW$T$11)
    2827        .dwattr $C$DW$208, DW_AT_name("rsvd28")
    2828        .dwattr $C$DW$208, DW_AT_TI_symbol_name("rsvd28")
    2829        .dwattr $C$DW$208, DW_AT_bit_offset(0x00), DW_AT_bit_size(0x04)
    2830        .dwattr $C$DW$208, DW_AT_data_member_location[DW_OP_plus_uconst 0x0]
    2831        .dwattr $C$DW$208, DW_AT_accessibility(DW_ACCESS_public)
    2832        .dwattr $C$DW$208, DW_AT_decl_file("/opt/ti/ccsv6/ccs_base/pru/include/pru_intc.h")
    2833        .dwattr $C$DW$208, DW_AT_decl_line(0x152)
    2834        .dwattr $C$DW$208, DW_AT_decl_column(0x0d)
    2835        .dwendtag $C$DW$T$43
    2836
    2837        .dwattr $C$DW$T$43, DW_AT_decl_file("/opt/ti/ccsv6/ccs_base/pru/include/pru_intc.h")
    2838        .dwattr $C$DW$T$43, DW_AT_decl_line(0x14a)
    2839        .dwattr $C$DW$T$43, DW_AT_decl_column(0x12)
    2840$C$DW$T$232     .dwtag  DW_TAG_volatile_type
    2841        .dwattr $C$DW$T$232, DW_AT_type(*$C$DW$T$43)
    2842
    2843$C$DW$T$44      .dwtag  DW_TAG_structure_type
    2844        .dwattr $C$DW$T$44, DW_AT_byte_size(0x04)
    2845$C$DW$209       .dwtag  DW_TAG_member
    2846        .dwattr $C$DW$209, DW_AT_type(*$C$DW$T$11)
    2847        .dwattr $C$DW$209, DW_AT_name("CH_MAP_24")
    2848        .dwattr $C$DW$209, DW_AT_TI_symbol_name("CH_MAP_24")
    2849        .dwattr $C$DW$209, DW_AT_bit_offset(0x1c), DW_AT_bit_size(0x04)
    2850        .dwattr $C$DW$209, DW_AT_data_member_location[DW_OP_plus_uconst 0x0]
    2851        .dwattr $C$DW$209, DW_AT_accessibility(DW_ACCESS_public)
    2852        .dwattr $C$DW$209, DW_AT_decl_file("/opt/ti/ccsv6/ccs_base/pru/include/pru_intc.h")
    2853        .dwattr $C$DW$209, DW_AT_decl_line(0x15c)
    2854        .dwattr $C$DW$209, DW_AT_decl_column(0x0d)
    2855$C$DW$210       .dwtag  DW_TAG_member
    2856        .dwattr $C$DW$210, DW_AT_type(*$C$DW$T$11)
    2857        .dwattr $C$DW$210, DW_AT_name("rsvd4")
    2858        .dwattr $C$DW$210, DW_AT_TI_symbol_name("rsvd4")
    2859        .dwattr $C$DW$210, DW_AT_bit_offset(0x18), DW_AT_bit_size(0x04)
    2860        .dwattr $C$DW$210, DW_AT_data_member_location[DW_OP_plus_uconst 0x0]
    2861        .dwattr $C$DW$210, DW_AT_accessibility(DW_ACCESS_public)
    2862        .dwattr $C$DW$210, DW_AT_decl_file("/opt/ti/ccsv6/ccs_base/pru/include/pru_intc.h")
    2863        .dwattr $C$DW$210, DW_AT_decl_line(0x15d)
    2864        .dwattr $C$DW$210, DW_AT_decl_column(0x0d)
    2865$C$DW$211       .dwtag  DW_TAG_member
    2866        .dwattr $C$DW$211, DW_AT_type(*$C$DW$T$11)
    2867        .dwattr $C$DW$211, DW_AT_name("CH_MAP_25")
    2868        .dwattr $C$DW$211, DW_AT_TI_symbol_name("CH_MAP_25")
    2869        .dwattr $C$DW$211, DW_AT_bit_offset(0x14), DW_AT_bit_size(0x04)
    2870        .dwattr $C$DW$211, DW_AT_data_member_location[DW_OP_plus_uconst 0x0]
    2871        .dwattr $C$DW$211, DW_AT_accessibility(DW_ACCESS_public)
    2872        .dwattr $C$DW$211, DW_AT_decl_file("/opt/ti/ccsv6/ccs_base/pru/include/pru_intc.h")
    2873        .dwattr $C$DW$211, DW_AT_decl_line(0x15e)
    2874        .dwattr $C$DW$211, DW_AT_decl_column(0x0d)
    2875$C$DW$212       .dwtag  DW_TAG_member
    2876        .dwattr $C$DW$212, DW_AT_type(*$C$DW$T$11)
    2877        .dwattr $C$DW$212, DW_AT_name("rsvd12")
PRU Assembler Unix v2.1.2 Wed Sep  7 12:11:05 2016

Tools Copyright (c) 2012-2015 Texas Instruments Incorporated
mcp3202.asm                                                          PAGE   55

    2878        .dwattr $C$DW$212, DW_AT_TI_symbol_name("rsvd12")
    2879        .dwattr $C$DW$212, DW_AT_bit_offset(0x10), DW_AT_bit_size(0x04)
    2880        .dwattr $C$DW$212, DW_AT_data_member_location[DW_OP_plus_uconst 0x0]
    2881        .dwattr $C$DW$212, DW_AT_accessibility(DW_ACCESS_public)
    2882        .dwattr $C$DW$212, DW_AT_decl_file("/opt/ti/ccsv6/ccs_base/pru/include/pru_intc.h")
    2883        .dwattr $C$DW$212, DW_AT_decl_line(0x15f)
    2884        .dwattr $C$DW$212, DW_AT_decl_column(0x0d)
    2885$C$DW$213       .dwtag  DW_TAG_member
    2886        .dwattr $C$DW$213, DW_AT_type(*$C$DW$T$11)
    2887        .dwattr $C$DW$213, DW_AT_name("CH_MAP_26")
    2888        .dwattr $C$DW$213, DW_AT_TI_symbol_name("CH_MAP_26")
    2889        .dwattr $C$DW$213, DW_AT_bit_offset(0x0c), DW_AT_bit_size(0x04)
    2890        .dwattr $C$DW$213, DW_AT_data_member_location[DW_OP_plus_uconst 0x0]
    2891        .dwattr $C$DW$213, DW_AT_accessibility(DW_ACCESS_public)
    2892        .dwattr $C$DW$213, DW_AT_decl_file("/opt/ti/ccsv6/ccs_base/pru/include/pru_intc.h")
    2893        .dwattr $C$DW$213, DW_AT_decl_line(0x160)
    2894        .dwattr $C$DW$213, DW_AT_decl_column(0x0d)
    2895$C$DW$214       .dwtag  DW_TAG_member
    2896        .dwattr $C$DW$214, DW_AT_type(*$C$DW$T$11)
    2897        .dwattr $C$DW$214, DW_AT_name("rsvd20")
    2898        .dwattr $C$DW$214, DW_AT_TI_symbol_name("rsvd20")
    2899        .dwattr $C$DW$214, DW_AT_bit_offset(0x08), DW_AT_bit_size(0x04)
    2900        .dwattr $C$DW$214, DW_AT_data_member_location[DW_OP_plus_uconst 0x0]
    2901        .dwattr $C$DW$214, DW_AT_accessibility(DW_ACCESS_public)
    2902        .dwattr $C$DW$214, DW_AT_decl_file("/opt/ti/ccsv6/ccs_base/pru/include/pru_intc.h")
    2903        .dwattr $C$DW$214, DW_AT_decl_line(0x161)
    2904        .dwattr $C$DW$214, DW_AT_decl_column(0x0d)
    2905$C$DW$215       .dwtag  DW_TAG_member
    2906        .dwattr $C$DW$215, DW_AT_type(*$C$DW$T$11)
    2907        .dwattr $C$DW$215, DW_AT_name("CH_MAP_27")
    2908        .dwattr $C$DW$215, DW_AT_TI_symbol_name("CH_MAP_27")
    2909        .dwattr $C$DW$215, DW_AT_bit_offset(0x04), DW_AT_bit_size(0x04)
    2910        .dwattr $C$DW$215, DW_AT_data_member_location[DW_OP_plus_uconst 0x0]
    2911        .dwattr $C$DW$215, DW_AT_accessibility(DW_ACCESS_public)
    2912        .dwattr $C$DW$215, DW_AT_decl_file("/opt/ti/ccsv6/ccs_base/pru/include/pru_intc.h")
    2913        .dwattr $C$DW$215, DW_AT_decl_line(0x162)
    2914        .dwattr $C$DW$215, DW_AT_decl_column(0x0d)
    2915$C$DW$216       .dwtag  DW_TAG_member
    2916        .dwattr $C$DW$216, DW_AT_type(*$C$DW$T$11)
    2917        .dwattr $C$DW$216, DW_AT_name("rsvd28")
    2918        .dwattr $C$DW$216, DW_AT_TI_symbol_name("rsvd28")
    2919        .dwattr $C$DW$216, DW_AT_bit_offset(0x00), DW_AT_bit_size(0x04)
    2920        .dwattr $C$DW$216, DW_AT_data_member_location[DW_OP_plus_uconst 0x0]
    2921        .dwattr $C$DW$216, DW_AT_accessibility(DW_ACCESS_public)
    2922        .dwattr $C$DW$216, DW_AT_decl_file("/opt/ti/ccsv6/ccs_base/pru/include/pru_intc.h")
    2923        .dwattr $C$DW$216, DW_AT_decl_line(0x163)
    2924        .dwattr $C$DW$216, DW_AT_decl_column(0x0d)
    2925        .dwendtag $C$DW$T$44
    2926
    2927        .dwattr $C$DW$T$44, DW_AT_decl_file("/opt/ti/ccsv6/ccs_base/pru/include/pru_intc.h")
    2928        .dwattr $C$DW$T$44, DW_AT_decl_line(0x15b)
    2929        .dwattr $C$DW$T$44, DW_AT_decl_column(0x12)
    2930$C$DW$T$234     .dwtag  DW_TAG_volatile_type
    2931        .dwattr $C$DW$T$234, DW_AT_type(*$C$DW$T$44)
    2932
PRU Assembler Unix v2.1.2 Wed Sep  7 12:11:05 2016

Tools Copyright (c) 2012-2015 Texas Instruments Incorporated
mcp3202.asm                                                          PAGE   56

    2933$C$DW$T$45      .dwtag  DW_TAG_structure_type
    2934        .dwattr $C$DW$T$45, DW_AT_byte_size(0x04)
    2935$C$DW$217       .dwtag  DW_TAG_member
    2936        .dwattr $C$DW$217, DW_AT_type(*$C$DW$T$11)
    2937        .dwattr $C$DW$217, DW_AT_name("CH_MAP_28")
    2938        .dwattr $C$DW$217, DW_AT_TI_symbol_name("CH_MAP_28")
    2939        .dwattr $C$DW$217, DW_AT_bit_offset(0x1c), DW_AT_bit_size(0x04)
    2940        .dwattr $C$DW$217, DW_AT_data_member_location[DW_OP_plus_uconst 0x0]
    2941        .dwattr $C$DW$217, DW_AT_accessibility(DW_ACCESS_public)
    2942        .dwattr $C$DW$217, DW_AT_decl_file("/opt/ti/ccsv6/ccs_base/pru/include/pru_intc.h")
    2943        .dwattr $C$DW$217, DW_AT_decl_line(0x16d)
    2944        .dwattr $C$DW$217, DW_AT_decl_column(0x0d)
    2945$C$DW$218       .dwtag  DW_TAG_member
    2946        .dwattr $C$DW$218, DW_AT_type(*$C$DW$T$11)
    2947        .dwattr $C$DW$218, DW_AT_name("rsvd4")
    2948        .dwattr $C$DW$218, DW_AT_TI_symbol_name("rsvd4")
    2949        .dwattr $C$DW$218, DW_AT_bit_offset(0x18), DW_AT_bit_size(0x04)
    2950        .dwattr $C$DW$218, DW_AT_data_member_location[DW_OP_plus_uconst 0x0]
    2951        .dwattr $C$DW$218, DW_AT_accessibility(DW_ACCESS_public)
    2952        .dwattr $C$DW$218, DW_AT_decl_file("/opt/ti/ccsv6/ccs_base/pru/include/pru_intc.h")
    2953        .dwattr $C$DW$218, DW_AT_decl_line(0x16e)
    2954        .dwattr $C$DW$218, DW_AT_decl_column(0x0d)
    2955$C$DW$219       .dwtag  DW_TAG_member
    2956        .dwattr $C$DW$219, DW_AT_type(*$C$DW$T$11)
    2957        .dwattr $C$DW$219, DW_AT_name("CH_MAP_29")
    2958        .dwattr $C$DW$219, DW_AT_TI_symbol_name("CH_MAP_29")
    2959        .dwattr $C$DW$219, DW_AT_bit_offset(0x14), DW_AT_bit_size(0x04)
    2960        .dwattr $C$DW$219, DW_AT_data_member_location[DW_OP_plus_uconst 0x0]
    2961        .dwattr $C$DW$219, DW_AT_accessibility(DW_ACCESS_public)
    2962        .dwattr $C$DW$219, DW_AT_decl_file("/opt/ti/ccsv6/ccs_base/pru/include/pru_intc.h")
    2963        .dwattr $C$DW$219, DW_AT_decl_line(0x16f)
    2964        .dwattr $C$DW$219, DW_AT_decl_column(0x0d)
    2965$C$DW$220       .dwtag  DW_TAG_member
    2966        .dwattr $C$DW$220, DW_AT_type(*$C$DW$T$11)
    2967        .dwattr $C$DW$220, DW_AT_name("rsvd12")
    2968        .dwattr $C$DW$220, DW_AT_TI_symbol_name("rsvd12")
    2969        .dwattr $C$DW$220, DW_AT_bit_offset(0x10), DW_AT_bit_size(0x04)
    2970        .dwattr $C$DW$220, DW_AT_data_member_location[DW_OP_plus_uconst 0x0]
    2971        .dwattr $C$DW$220, DW_AT_accessibility(DW_ACCESS_public)
    2972        .dwattr $C$DW$220, DW_AT_decl_file("/opt/ti/ccsv6/ccs_base/pru/include/pru_intc.h")
    2973        .dwattr $C$DW$220, DW_AT_decl_line(0x170)
    2974        .dwattr $C$DW$220, DW_AT_decl_column(0x0d)
    2975$C$DW$221       .dwtag  DW_TAG_member
    2976        .dwattr $C$DW$221, DW_AT_type(*$C$DW$T$11)
    2977        .dwattr $C$DW$221, DW_AT_name("CH_MAP_30")
    2978        .dwattr $C$DW$221, DW_AT_TI_symbol_name("CH_MAP_30")
    2979        .dwattr $C$DW$221, DW_AT_bit_offset(0x0c), DW_AT_bit_size(0x04)
    2980        .dwattr $C$DW$221, DW_AT_data_member_location[DW_OP_plus_uconst 0x0]
    2981        .dwattr $C$DW$221, DW_AT_accessibility(DW_ACCESS_public)
    2982        .dwattr $C$DW$221, DW_AT_decl_file("/opt/ti/ccsv6/ccs_base/pru/include/pru_intc.h")
    2983        .dwattr $C$DW$221, DW_AT_decl_line(0x171)
    2984        .dwattr $C$DW$221, DW_AT_decl_column(0x0d)
    2985$C$DW$222       .dwtag  DW_TAG_member
    2986        .dwattr $C$DW$222, DW_AT_type(*$C$DW$T$11)
    2987        .dwattr $C$DW$222, DW_AT_name("rsvd20")
PRU Assembler Unix v2.1.2 Wed Sep  7 12:11:05 2016

Tools Copyright (c) 2012-2015 Texas Instruments Incorporated
mcp3202.asm                                                          PAGE   57

    2988        .dwattr $C$DW$222, DW_AT_TI_symbol_name("rsvd20")
    2989        .dwattr $C$DW$222, DW_AT_bit_offset(0x08), DW_AT_bit_size(0x04)
    2990        .dwattr $C$DW$222, DW_AT_data_member_location[DW_OP_plus_uconst 0x0]
    2991        .dwattr $C$DW$222, DW_AT_accessibility(DW_ACCESS_public)
    2992        .dwattr $C$DW$222, DW_AT_decl_file("/opt/ti/ccsv6/ccs_base/pru/include/pru_intc.h")
    2993        .dwattr $C$DW$222, DW_AT_decl_line(0x172)
    2994        .dwattr $C$DW$222, DW_AT_decl_column(0x0d)
    2995$C$DW$223       .dwtag  DW_TAG_member
    2996        .dwattr $C$DW$223, DW_AT_type(*$C$DW$T$11)
    2997        .dwattr $C$DW$223, DW_AT_name("CH_MAP_31")
    2998        .dwattr $C$DW$223, DW_AT_TI_symbol_name("CH_MAP_31")
    2999        .dwattr $C$DW$223, DW_AT_bit_offset(0x04), DW_AT_bit_size(0x04)
    3000        .dwattr $C$DW$223, DW_AT_data_member_location[DW_OP_plus_uconst 0x0]
    3001        .dwattr $C$DW$223, DW_AT_accessibility(DW_ACCESS_public)
    3002        .dwattr $C$DW$223, DW_AT_decl_file("/opt/ti/ccsv6/ccs_base/pru/include/pru_intc.h")
    3003        .dwattr $C$DW$223, DW_AT_decl_line(0x173)
    3004        .dwattr $C$DW$223, DW_AT_decl_column(0x0d)
    3005$C$DW$224       .dwtag  DW_TAG_member
    3006        .dwattr $C$DW$224, DW_AT_type(*$C$DW$T$11)
    3007        .dwattr $C$DW$224, DW_AT_name("rsvd28")
    3008        .dwattr $C$DW$224, DW_AT_TI_symbol_name("rsvd28")
    3009        .dwattr $C$DW$224, DW_AT_bit_offset(0x00), DW_AT_bit_size(0x04)
    3010        .dwattr $C$DW$224, DW_AT_data_member_location[DW_OP_plus_uconst 0x0]
    3011        .dwattr $C$DW$224, DW_AT_accessibility(DW_ACCESS_public)
    3012        .dwattr $C$DW$224, DW_AT_decl_file("/opt/ti/ccsv6/ccs_base/pru/include/pru_intc.h")
    3013        .dwattr $C$DW$224, DW_AT_decl_line(0x174)
    3014        .dwattr $C$DW$224, DW_AT_decl_column(0x0d)
    3015        .dwendtag $C$DW$T$45
    3016
    3017        .dwattr $C$DW$T$45, DW_AT_decl_file("/opt/ti/ccsv6/ccs_base/pru/include/pru_intc.h")
    3018        .dwattr $C$DW$T$45, DW_AT_decl_line(0x16c)
    3019        .dwattr $C$DW$T$45, DW_AT_decl_column(0x12)
    3020$C$DW$T$236     .dwtag  DW_TAG_volatile_type
    3021        .dwattr $C$DW$T$236, DW_AT_type(*$C$DW$T$45)
    3022
    3023$C$DW$T$46      .dwtag  DW_TAG_structure_type
    3024        .dwattr $C$DW$T$46, DW_AT_byte_size(0x04)
    3025$C$DW$225       .dwtag  DW_TAG_member
    3026        .dwattr $C$DW$225, DW_AT_type(*$C$DW$T$11)
    3027        .dwattr $C$DW$225, DW_AT_name("CH_MAP_32")
    3028        .dwattr $C$DW$225, DW_AT_TI_symbol_name("CH_MAP_32")
    3029        .dwattr $C$DW$225, DW_AT_bit_offset(0x1c), DW_AT_bit_size(0x04)
    3030        .dwattr $C$DW$225, DW_AT_data_member_location[DW_OP_plus_uconst 0x0]
    3031        .dwattr $C$DW$225, DW_AT_accessibility(DW_ACCESS_public)
    3032        .dwattr $C$DW$225, DW_AT_decl_file("/opt/ti/ccsv6/ccs_base/pru/include/pru_intc.h")
    3033        .dwattr $C$DW$225, DW_AT_decl_line(0x17e)
    3034        .dwattr $C$DW$225, DW_AT_decl_column(0x0d)
    3035$C$DW$226       .dwtag  DW_TAG_member
    3036        .dwattr $C$DW$226, DW_AT_type(*$C$DW$T$11)
    3037        .dwattr $C$DW$226, DW_AT_name("rsvd4")
    3038        .dwattr $C$DW$226, DW_AT_TI_symbol_name("rsvd4")
    3039        .dwattr $C$DW$226, DW_AT_bit_offset(0x18), DW_AT_bit_size(0x04)
    3040        .dwattr $C$DW$226, DW_AT_data_member_location[DW_OP_plus_uconst 0x0]
    3041        .dwattr $C$DW$226, DW_AT_accessibility(DW_ACCESS_public)
    3042        .dwattr $C$DW$226, DW_AT_decl_file("/opt/ti/ccsv6/ccs_base/pru/include/pru_intc.h")
PRU Assembler Unix v2.1.2 Wed Sep  7 12:11:05 2016

Tools Copyright (c) 2012-2015 Texas Instruments Incorporated
mcp3202.asm                                                          PAGE   58

    3043        .dwattr $C$DW$226, DW_AT_decl_line(0x17f)
    3044        .dwattr $C$DW$226, DW_AT_decl_column(0x0d)
    3045$C$DW$227       .dwtag  DW_TAG_member
    3046        .dwattr $C$DW$227, DW_AT_type(*$C$DW$T$11)
    3047        .dwattr $C$DW$227, DW_AT_name("CH_MAP_33")
    3048        .dwattr $C$DW$227, DW_AT_TI_symbol_name("CH_MAP_33")
    3049        .dwattr $C$DW$227, DW_AT_bit_offset(0x14), DW_AT_bit_size(0x04)
    3050        .dwattr $C$DW$227, DW_AT_data_member_location[DW_OP_plus_uconst 0x0]
    3051        .dwattr $C$DW$227, DW_AT_accessibility(DW_ACCESS_public)
    3052        .dwattr $C$DW$227, DW_AT_decl_file("/opt/ti/ccsv6/ccs_base/pru/include/pru_intc.h")
    3053        .dwattr $C$DW$227, DW_AT_decl_line(0x180)
    3054        .dwattr $C$DW$227, DW_AT_decl_column(0x0d)
    3055$C$DW$228       .dwtag  DW_TAG_member
    3056        .dwattr $C$DW$228, DW_AT_type(*$C$DW$T$11)
    3057        .dwattr $C$DW$228, DW_AT_name("rsvd12")
    3058        .dwattr $C$DW$228, DW_AT_TI_symbol_name("rsvd12")
    3059        .dwattr $C$DW$228, DW_AT_bit_offset(0x10), DW_AT_bit_size(0x04)
    3060        .dwattr $C$DW$228, DW_AT_data_member_location[DW_OP_plus_uconst 0x0]
    3061        .dwattr $C$DW$228, DW_AT_accessibility(DW_ACCESS_public)
    3062        .dwattr $C$DW$228, DW_AT_decl_file("/opt/ti/ccsv6/ccs_base/pru/include/pru_intc.h")
    3063        .dwattr $C$DW$228, DW_AT_decl_line(0x181)
    3064        .dwattr $C$DW$228, DW_AT_decl_column(0x0d)
    3065$C$DW$229       .dwtag  DW_TAG_member
    3066        .dwattr $C$DW$229, DW_AT_type(*$C$DW$T$11)
    3067        .dwattr $C$DW$229, DW_AT_name("CH_MAP_34")
    3068        .dwattr $C$DW$229, DW_AT_TI_symbol_name("CH_MAP_34")
    3069        .dwattr $C$DW$229, DW_AT_bit_offset(0x0c), DW_AT_bit_size(0x04)
    3070        .dwattr $C$DW$229, DW_AT_data_member_location[DW_OP_plus_uconst 0x0]
    3071        .dwattr $C$DW$229, DW_AT_accessibility(DW_ACCESS_public)
    3072        .dwattr $C$DW$229, DW_AT_decl_file("/opt/ti/ccsv6/ccs_base/pru/include/pru_intc.h")
    3073        .dwattr $C$DW$229, DW_AT_decl_line(0x182)
    3074        .dwattr $C$DW$229, DW_AT_decl_column(0x0d)
    3075$C$DW$230       .dwtag  DW_TAG_member
    3076        .dwattr $C$DW$230, DW_AT_type(*$C$DW$T$11)
    3077        .dwattr $C$DW$230, DW_AT_name("rsvd20")
    3078        .dwattr $C$DW$230, DW_AT_TI_symbol_name("rsvd20")
    3079        .dwattr $C$DW$230, DW_AT_bit_offset(0x08), DW_AT_bit_size(0x04)
    3080        .dwattr $C$DW$230, DW_AT_data_member_location[DW_OP_plus_uconst 0x0]
    3081        .dwattr $C$DW$230, DW_AT_accessibility(DW_ACCESS_public)
    3082        .dwattr $C$DW$230, DW_AT_decl_file("/opt/ti/ccsv6/ccs_base/pru/include/pru_intc.h")
    3083        .dwattr $C$DW$230, DW_AT_decl_line(0x183)
    3084        .dwattr $C$DW$230, DW_AT_decl_column(0x0d)
    3085$C$DW$231       .dwtag  DW_TAG_member
    3086        .dwattr $C$DW$231, DW_AT_type(*$C$DW$T$11)
    3087        .dwattr $C$DW$231, DW_AT_name("CH_MAP_35")
    3088        .dwattr $C$DW$231, DW_AT_TI_symbol_name("CH_MAP_35")
    3089        .dwattr $C$DW$231, DW_AT_bit_offset(0x04), DW_AT_bit_size(0x04)
    3090        .dwattr $C$DW$231, DW_AT_data_member_location[DW_OP_plus_uconst 0x0]
    3091        .dwattr $C$DW$231, DW_AT_accessibility(DW_ACCESS_public)
    3092        .dwattr $C$DW$231, DW_AT_decl_file("/opt/ti/ccsv6/ccs_base/pru/include/pru_intc.h")
    3093        .dwattr $C$DW$231, DW_AT_decl_line(0x184)
    3094        .dwattr $C$DW$231, DW_AT_decl_column(0x0d)
    3095$C$DW$232       .dwtag  DW_TAG_member
    3096        .dwattr $C$DW$232, DW_AT_type(*$C$DW$T$11)
    3097        .dwattr $C$DW$232, DW_AT_name("rsvd28")
PRU Assembler Unix v2.1.2 Wed Sep  7 12:11:05 2016

Tools Copyright (c) 2012-2015 Texas Instruments Incorporated
mcp3202.asm                                                          PAGE   59

    3098        .dwattr $C$DW$232, DW_AT_TI_symbol_name("rsvd28")
    3099        .dwattr $C$DW$232, DW_AT_bit_offset(0x00), DW_AT_bit_size(0x04)
    3100        .dwattr $C$DW$232, DW_AT_data_member_location[DW_OP_plus_uconst 0x0]
    3101        .dwattr $C$DW$232, DW_AT_accessibility(DW_ACCESS_public)
    3102        .dwattr $C$DW$232, DW_AT_decl_file("/opt/ti/ccsv6/ccs_base/pru/include/pru_intc.h")
    3103        .dwattr $C$DW$232, DW_AT_decl_line(0x185)
    3104        .dwattr $C$DW$232, DW_AT_decl_column(0x0d)
    3105        .dwendtag $C$DW$T$46
    3106
    3107        .dwattr $C$DW$T$46, DW_AT_decl_file("/opt/ti/ccsv6/ccs_base/pru/include/pru_intc.h")
    3108        .dwattr $C$DW$T$46, DW_AT_decl_line(0x17d)
    3109        .dwattr $C$DW$T$46, DW_AT_decl_column(0x12)
    3110$C$DW$T$238     .dwtag  DW_TAG_volatile_type
    3111        .dwattr $C$DW$T$238, DW_AT_type(*$C$DW$T$46)
    3112
    3113$C$DW$T$47      .dwtag  DW_TAG_structure_type
    3114        .dwattr $C$DW$T$47, DW_AT_byte_size(0x04)
    3115$C$DW$233       .dwtag  DW_TAG_member
    3116        .dwattr $C$DW$233, DW_AT_type(*$C$DW$T$11)
    3117        .dwattr $C$DW$233, DW_AT_name("CH_MAP_36")
    3118        .dwattr $C$DW$233, DW_AT_TI_symbol_name("CH_MAP_36")
    3119        .dwattr $C$DW$233, DW_AT_bit_offset(0x1c), DW_AT_bit_size(0x04)
    3120        .dwattr $C$DW$233, DW_AT_data_member_location[DW_OP_plus_uconst 0x0]
    3121        .dwattr $C$DW$233, DW_AT_accessibility(DW_ACCESS_public)
    3122        .dwattr $C$DW$233, DW_AT_decl_file("/opt/ti/ccsv6/ccs_base/pru/include/pru_intc.h")
    3123        .dwattr $C$DW$233, DW_AT_decl_line(0x18f)
    3124        .dwattr $C$DW$233, DW_AT_decl_column(0x0d)
    3125$C$DW$234       .dwtag  DW_TAG_member
    3126        .dwattr $C$DW$234, DW_AT_type(*$C$DW$T$11)
    3127        .dwattr $C$DW$234, DW_AT_name("rsvd4")
    3128        .dwattr $C$DW$234, DW_AT_TI_symbol_name("rsvd4")
    3129        .dwattr $C$DW$234, DW_AT_bit_offset(0x18), DW_AT_bit_size(0x04)
    3130        .dwattr $C$DW$234, DW_AT_data_member_location[DW_OP_plus_uconst 0x0]
    3131        .dwattr $C$DW$234, DW_AT_accessibility(DW_ACCESS_public)
    3132        .dwattr $C$DW$234, DW_AT_decl_file("/opt/ti/ccsv6/ccs_base/pru/include/pru_intc.h")
    3133        .dwattr $C$DW$234, DW_AT_decl_line(0x190)
    3134        .dwattr $C$DW$234, DW_AT_decl_column(0x0d)
    3135$C$DW$235       .dwtag  DW_TAG_member
    3136        .dwattr $C$DW$235, DW_AT_type(*$C$DW$T$11)
    3137        .dwattr $C$DW$235, DW_AT_name("CH_MAP_37")
    3138        .dwattr $C$DW$235, DW_AT_TI_symbol_name("CH_MAP_37")
    3139        .dwattr $C$DW$235, DW_AT_bit_offset(0x14), DW_AT_bit_size(0x04)
    3140        .dwattr $C$DW$235, DW_AT_data_member_location[DW_OP_plus_uconst 0x0]
    3141        .dwattr $C$DW$235, DW_AT_accessibility(DW_ACCESS_public)
    3142        .dwattr $C$DW$235, DW_AT_decl_file("/opt/ti/ccsv6/ccs_base/pru/include/pru_intc.h")
    3143        .dwattr $C$DW$235, DW_AT_decl_line(0x191)
    3144        .dwattr $C$DW$235, DW_AT_decl_column(0x0d)
    3145$C$DW$236       .dwtag  DW_TAG_member
    3146        .dwattr $C$DW$236, DW_AT_type(*$C$DW$T$11)
    3147        .dwattr $C$DW$236, DW_AT_name("rsvd12")
    3148        .dwattr $C$DW$236, DW_AT_TI_symbol_name("rsvd12")
    3149        .dwattr $C$DW$236, DW_AT_bit_offset(0x10), DW_AT_bit_size(0x04)
    3150        .dwattr $C$DW$236, DW_AT_data_member_location[DW_OP_plus_uconst 0x0]
    3151        .dwattr $C$DW$236, DW_AT_accessibility(DW_ACCESS_public)
    3152        .dwattr $C$DW$236, DW_AT_decl_file("/opt/ti/ccsv6/ccs_base/pru/include/pru_intc.h")
PRU Assembler Unix v2.1.2 Wed Sep  7 12:11:05 2016

Tools Copyright (c) 2012-2015 Texas Instruments Incorporated
mcp3202.asm                                                          PAGE   60

    3153        .dwattr $C$DW$236, DW_AT_decl_line(0x192)
    3154        .dwattr $C$DW$236, DW_AT_decl_column(0x0d)
    3155$C$DW$237       .dwtag  DW_TAG_member
    3156        .dwattr $C$DW$237, DW_AT_type(*$C$DW$T$11)
    3157        .dwattr $C$DW$237, DW_AT_name("CH_MAP_38")
    3158        .dwattr $C$DW$237, DW_AT_TI_symbol_name("CH_MAP_38")
    3159        .dwattr $C$DW$237, DW_AT_bit_offset(0x0c), DW_AT_bit_size(0x04)
    3160        .dwattr $C$DW$237, DW_AT_data_member_location[DW_OP_plus_uconst 0x0]
    3161        .dwattr $C$DW$237, DW_AT_accessibility(DW_ACCESS_public)
    3162        .dwattr $C$DW$237, DW_AT_decl_file("/opt/ti/ccsv6/ccs_base/pru/include/pru_intc.h")
    3163        .dwattr $C$DW$237, DW_AT_decl_line(0x193)
    3164        .dwattr $C$DW$237, DW_AT_decl_column(0x0d)
    3165$C$DW$238       .dwtag  DW_TAG_member
    3166        .dwattr $C$DW$238, DW_AT_type(*$C$DW$T$11)
    3167        .dwattr $C$DW$238, DW_AT_name("rsvd20")
    3168        .dwattr $C$DW$238, DW_AT_TI_symbol_name("rsvd20")
    3169        .dwattr $C$DW$238, DW_AT_bit_offset(0x08), DW_AT_bit_size(0x04)
    3170        .dwattr $C$DW$238, DW_AT_data_member_location[DW_OP_plus_uconst 0x0]
    3171        .dwattr $C$DW$238, DW_AT_accessibility(DW_ACCESS_public)
    3172        .dwattr $C$DW$238, DW_AT_decl_file("/opt/ti/ccsv6/ccs_base/pru/include/pru_intc.h")
    3173        .dwattr $C$DW$238, DW_AT_decl_line(0x194)
    3174        .dwattr $C$DW$238, DW_AT_decl_column(0x0d)
    3175$C$DW$239       .dwtag  DW_TAG_member
    3176        .dwattr $C$DW$239, DW_AT_type(*$C$DW$T$11)
    3177        .dwattr $C$DW$239, DW_AT_name("CH_MAP_39")
    3178        .dwattr $C$DW$239, DW_AT_TI_symbol_name("CH_MAP_39")
    3179        .dwattr $C$DW$239, DW_AT_bit_offset(0x04), DW_AT_bit_size(0x04)
    3180        .dwattr $C$DW$239, DW_AT_data_member_location[DW_OP_plus_uconst 0x0]
    3181        .dwattr $C$DW$239, DW_AT_accessibility(DW_ACCESS_public)
    3182        .dwattr $C$DW$239, DW_AT_decl_file("/opt/ti/ccsv6/ccs_base/pru/include/pru_intc.h")
    3183        .dwattr $C$DW$239, DW_AT_decl_line(0x195)
    3184        .dwattr $C$DW$239, DW_AT_decl_column(0x0d)
    3185$C$DW$240       .dwtag  DW_TAG_member
    3186        .dwattr $C$DW$240, DW_AT_type(*$C$DW$T$11)
    3187        .dwattr $C$DW$240, DW_AT_name("rsvd28")
    3188        .dwattr $C$DW$240, DW_AT_TI_symbol_name("rsvd28")
    3189        .dwattr $C$DW$240, DW_AT_bit_offset(0x00), DW_AT_bit_size(0x04)
    3190        .dwattr $C$DW$240, DW_AT_data_member_location[DW_OP_plus_uconst 0x0]
    3191        .dwattr $C$DW$240, DW_AT_accessibility(DW_ACCESS_public)
    3192        .dwattr $C$DW$240, DW_AT_decl_file("/opt/ti/ccsv6/ccs_base/pru/include/pru_intc.h")
    3193        .dwattr $C$DW$240, DW_AT_decl_line(0x196)
    3194        .dwattr $C$DW$240, DW_AT_decl_column(0x0d)
    3195        .dwendtag $C$DW$T$47
    3196
    3197        .dwattr $C$DW$T$47, DW_AT_decl_file("/opt/ti/ccsv6/ccs_base/pru/include/pru_intc.h")
    3198        .dwattr $C$DW$T$47, DW_AT_decl_line(0x18e)
    3199        .dwattr $C$DW$T$47, DW_AT_decl_column(0x12)
    3200$C$DW$T$240     .dwtag  DW_TAG_volatile_type
    3201        .dwattr $C$DW$T$240, DW_AT_type(*$C$DW$T$47)
    3202
    3203$C$DW$T$48      .dwtag  DW_TAG_structure_type
    3204        .dwattr $C$DW$T$48, DW_AT_byte_size(0x04)
    3205$C$DW$241       .dwtag  DW_TAG_member
    3206        .dwattr $C$DW$241, DW_AT_type(*$C$DW$T$11)
    3207        .dwattr $C$DW$241, DW_AT_name("CH_MAP_40")
PRU Assembler Unix v2.1.2 Wed Sep  7 12:11:05 2016

Tools Copyright (c) 2012-2015 Texas Instruments Incorporated
mcp3202.asm                                                          PAGE   61

    3208        .dwattr $C$DW$241, DW_AT_TI_symbol_name("CH_MAP_40")
    3209        .dwattr $C$DW$241, DW_AT_bit_offset(0x1c), DW_AT_bit_size(0x04)
    3210        .dwattr $C$DW$241, DW_AT_data_member_location[DW_OP_plus_uconst 0x0]
    3211        .dwattr $C$DW$241, DW_AT_accessibility(DW_ACCESS_public)
    3212        .dwattr $C$DW$241, DW_AT_decl_file("/opt/ti/ccsv6/ccs_base/pru/include/pru_intc.h")
    3213        .dwattr $C$DW$241, DW_AT_decl_line(0x1a0)
    3214        .dwattr $C$DW$241, DW_AT_decl_column(0x0d)
    3215$C$DW$242       .dwtag  DW_TAG_member
    3216        .dwattr $C$DW$242, DW_AT_type(*$C$DW$T$11)
    3217        .dwattr $C$DW$242, DW_AT_name("rsvd4")
    3218        .dwattr $C$DW$242, DW_AT_TI_symbol_name("rsvd4")
    3219        .dwattr $C$DW$242, DW_AT_bit_offset(0x18), DW_AT_bit_size(0x04)
    3220        .dwattr $C$DW$242, DW_AT_data_member_location[DW_OP_plus_uconst 0x0]
    3221        .dwattr $C$DW$242, DW_AT_accessibility(DW_ACCESS_public)
    3222        .dwattr $C$DW$242, DW_AT_decl_file("/opt/ti/ccsv6/ccs_base/pru/include/pru_intc.h")
    3223        .dwattr $C$DW$242, DW_AT_decl_line(0x1a1)
    3224        .dwattr $C$DW$242, DW_AT_decl_column(0x0d)
    3225$C$DW$243       .dwtag  DW_TAG_member
    3226        .dwattr $C$DW$243, DW_AT_type(*$C$DW$T$11)
    3227        .dwattr $C$DW$243, DW_AT_name("CH_MAP_41")
    3228        .dwattr $C$DW$243, DW_AT_TI_symbol_name("CH_MAP_41")
    3229        .dwattr $C$DW$243, DW_AT_bit_offset(0x14), DW_AT_bit_size(0x04)
    3230        .dwattr $C$DW$243, DW_AT_data_member_location[DW_OP_plus_uconst 0x0]
    3231        .dwattr $C$DW$243, DW_AT_accessibility(DW_ACCESS_public)
    3232        .dwattr $C$DW$243, DW_AT_decl_file("/opt/ti/ccsv6/ccs_base/pru/include/pru_intc.h")
    3233        .dwattr $C$DW$243, DW_AT_decl_line(0x1a2)
    3234        .dwattr $C$DW$243, DW_AT_decl_column(0x0d)
    3235$C$DW$244       .dwtag  DW_TAG_member
    3236        .dwattr $C$DW$244, DW_AT_type(*$C$DW$T$11)
    3237        .dwattr $C$DW$244, DW_AT_name("rsvd12")
    3238        .dwattr $C$DW$244, DW_AT_TI_symbol_name("rsvd12")
    3239        .dwattr $C$DW$244, DW_AT_bit_offset(0x10), DW_AT_bit_size(0x04)
    3240        .dwattr $C$DW$244, DW_AT_data_member_location[DW_OP_plus_uconst 0x0]
    3241        .dwattr $C$DW$244, DW_AT_accessibility(DW_ACCESS_public)
    3242        .dwattr $C$DW$244, DW_AT_decl_file("/opt/ti/ccsv6/ccs_base/pru/include/pru_intc.h")
    3243        .dwattr $C$DW$244, DW_AT_decl_line(0x1a3)
    3244        .dwattr $C$DW$244, DW_AT_decl_column(0x0d)
    3245$C$DW$245       .dwtag  DW_TAG_member
    3246        .dwattr $C$DW$245, DW_AT_type(*$C$DW$T$11)
    3247        .dwattr $C$DW$245, DW_AT_name("CH_MAP_42")
    3248        .dwattr $C$DW$245, DW_AT_TI_symbol_name("CH_MAP_42")
    3249        .dwattr $C$DW$245, DW_AT_bit_offset(0x0c), DW_AT_bit_size(0x04)
    3250        .dwattr $C$DW$245, DW_AT_data_member_location[DW_OP_plus_uconst 0x0]
    3251        .dwattr $C$DW$245, DW_AT_accessibility(DW_ACCESS_public)
    3252        .dwattr $C$DW$245, DW_AT_decl_file("/opt/ti/ccsv6/ccs_base/pru/include/pru_intc.h")
    3253        .dwattr $C$DW$245, DW_AT_decl_line(0x1a4)
    3254        .dwattr $C$DW$245, DW_AT_decl_column(0x0d)
    3255$C$DW$246       .dwtag  DW_TAG_member
    3256        .dwattr $C$DW$246, DW_AT_type(*$C$DW$T$11)
    3257        .dwattr $C$DW$246, DW_AT_name("rsvd20")
    3258        .dwattr $C$DW$246, DW_AT_TI_symbol_name("rsvd20")
    3259        .dwattr $C$DW$246, DW_AT_bit_offset(0x08), DW_AT_bit_size(0x04)
    3260        .dwattr $C$DW$246, DW_AT_data_member_location[DW_OP_plus_uconst 0x0]
    3261        .dwattr $C$DW$246, DW_AT_accessibility(DW_ACCESS_public)
    3262        .dwattr $C$DW$246, DW_AT_decl_file("/opt/ti/ccsv6/ccs_base/pru/include/pru_intc.h")
PRU Assembler Unix v2.1.2 Wed Sep  7 12:11:05 2016

Tools Copyright (c) 2012-2015 Texas Instruments Incorporated
mcp3202.asm                                                          PAGE   62

    3263        .dwattr $C$DW$246, DW_AT_decl_line(0x1a5)
    3264        .dwattr $C$DW$246, DW_AT_decl_column(0x0d)
    3265$C$DW$247       .dwtag  DW_TAG_member
    3266        .dwattr $C$DW$247, DW_AT_type(*$C$DW$T$11)
    3267        .dwattr $C$DW$247, DW_AT_name("CH_MAP_43")
    3268        .dwattr $C$DW$247, DW_AT_TI_symbol_name("CH_MAP_43")
    3269        .dwattr $C$DW$247, DW_AT_bit_offset(0x04), DW_AT_bit_size(0x04)
    3270        .dwattr $C$DW$247, DW_AT_data_member_location[DW_OP_plus_uconst 0x0]
    3271        .dwattr $C$DW$247, DW_AT_accessibility(DW_ACCESS_public)
    3272        .dwattr $C$DW$247, DW_AT_decl_file("/opt/ti/ccsv6/ccs_base/pru/include/pru_intc.h")
    3273        .dwattr $C$DW$247, DW_AT_decl_line(0x1a6)
    3274        .dwattr $C$DW$247, DW_AT_decl_column(0x0d)
    3275$C$DW$248       .dwtag  DW_TAG_member
    3276        .dwattr $C$DW$248, DW_AT_type(*$C$DW$T$11)
    3277        .dwattr $C$DW$248, DW_AT_name("rsvd28")
    3278        .dwattr $C$DW$248, DW_AT_TI_symbol_name("rsvd28")
    3279        .dwattr $C$DW$248, DW_AT_bit_offset(0x00), DW_AT_bit_size(0x04)
    3280        .dwattr $C$DW$248, DW_AT_data_member_location[DW_OP_plus_uconst 0x0]
    3281        .dwattr $C$DW$248, DW_AT_accessibility(DW_ACCESS_public)
    3282        .dwattr $C$DW$248, DW_AT_decl_file("/opt/ti/ccsv6/ccs_base/pru/include/pru_intc.h")
    3283        .dwattr $C$DW$248, DW_AT_decl_line(0x1a7)
    3284        .dwattr $C$DW$248, DW_AT_decl_column(0x0d)
    3285        .dwendtag $C$DW$T$48
    3286
    3287        .dwattr $C$DW$T$48, DW_AT_decl_file("/opt/ti/ccsv6/ccs_base/pru/include/pru_intc.h")
    3288        .dwattr $C$DW$T$48, DW_AT_decl_line(0x19f)
    3289        .dwattr $C$DW$T$48, DW_AT_decl_column(0x12)
    3290$C$DW$T$242     .dwtag  DW_TAG_volatile_type
    3291        .dwattr $C$DW$T$242, DW_AT_type(*$C$DW$T$48)
    3292
    3293$C$DW$T$49      .dwtag  DW_TAG_structure_type
    3294        .dwattr $C$DW$T$49, DW_AT_byte_size(0x04)
    3295$C$DW$249       .dwtag  DW_TAG_member
    3296        .dwattr $C$DW$249, DW_AT_type(*$C$DW$T$11)
    3297        .dwattr $C$DW$249, DW_AT_name("CH_MAP_44")
    3298        .dwattr $C$DW$249, DW_AT_TI_symbol_name("CH_MAP_44")
    3299        .dwattr $C$DW$249, DW_AT_bit_offset(0x1c), DW_AT_bit_size(0x04)
    3300        .dwattr $C$DW$249, DW_AT_data_member_location[DW_OP_plus_uconst 0x0]
    3301        .dwattr $C$DW$249, DW_AT_accessibility(DW_ACCESS_public)
    3302        .dwattr $C$DW$249, DW_AT_decl_file("/opt/ti/ccsv6/ccs_base/pru/include/pru_intc.h")
    3303        .dwattr $C$DW$249, DW_AT_decl_line(0x1b1)
    3304        .dwattr $C$DW$249, DW_AT_decl_column(0x0d)
    3305$C$DW$250       .dwtag  DW_TAG_member
    3306        .dwattr $C$DW$250, DW_AT_type(*$C$DW$T$11)
    3307        .dwattr $C$DW$250, DW_AT_name("rsvd4")
    3308        .dwattr $C$DW$250, DW_AT_TI_symbol_name("rsvd4")
    3309        .dwattr $C$DW$250, DW_AT_bit_offset(0x18), DW_AT_bit_size(0x04)
    3310        .dwattr $C$DW$250, DW_AT_data_member_location[DW_OP_plus_uconst 0x0]
    3311        .dwattr $C$DW$250, DW_AT_accessibility(DW_ACCESS_public)
    3312        .dwattr $C$DW$250, DW_AT_decl_file("/opt/ti/ccsv6/ccs_base/pru/include/pru_intc.h")
    3313        .dwattr $C$DW$250, DW_AT_decl_line(0x1b2)
    3314        .dwattr $C$DW$250, DW_AT_decl_column(0x0d)
    3315$C$DW$251       .dwtag  DW_TAG_member
    3316        .dwattr $C$DW$251, DW_AT_type(*$C$DW$T$11)
    3317        .dwattr $C$DW$251, DW_AT_name("CH_MAP_45")
PRU Assembler Unix v2.1.2 Wed Sep  7 12:11:05 2016

Tools Copyright (c) 2012-2015 Texas Instruments Incorporated
mcp3202.asm                                                          PAGE   63

    3318        .dwattr $C$DW$251, DW_AT_TI_symbol_name("CH_MAP_45")
    3319        .dwattr $C$DW$251, DW_AT_bit_offset(0x14), DW_AT_bit_size(0x04)
    3320        .dwattr $C$DW$251, DW_AT_data_member_location[DW_OP_plus_uconst 0x0]
    3321        .dwattr $C$DW$251, DW_AT_accessibility(DW_ACCESS_public)
    3322        .dwattr $C$DW$251, DW_AT_decl_file("/opt/ti/ccsv6/ccs_base/pru/include/pru_intc.h")
    3323        .dwattr $C$DW$251, DW_AT_decl_line(0x1b3)
    3324        .dwattr $C$DW$251, DW_AT_decl_column(0x0d)
    3325$C$DW$252       .dwtag  DW_TAG_member
    3326        .dwattr $C$DW$252, DW_AT_type(*$C$DW$T$11)
    3327        .dwattr $C$DW$252, DW_AT_name("rsvd12")
    3328        .dwattr $C$DW$252, DW_AT_TI_symbol_name("rsvd12")
    3329        .dwattr $C$DW$252, DW_AT_bit_offset(0x10), DW_AT_bit_size(0x04)
    3330        .dwattr $C$DW$252, DW_AT_data_member_location[DW_OP_plus_uconst 0x0]
    3331        .dwattr $C$DW$252, DW_AT_accessibility(DW_ACCESS_public)
    3332        .dwattr $C$DW$252, DW_AT_decl_file("/opt/ti/ccsv6/ccs_base/pru/include/pru_intc.h")
    3333        .dwattr $C$DW$252, DW_AT_decl_line(0x1b4)
    3334        .dwattr $C$DW$252, DW_AT_decl_column(0x0d)
    3335$C$DW$253       .dwtag  DW_TAG_member
    3336        .dwattr $C$DW$253, DW_AT_type(*$C$DW$T$11)
    3337        .dwattr $C$DW$253, DW_AT_name("CH_MAP_46")
    3338        .dwattr $C$DW$253, DW_AT_TI_symbol_name("CH_MAP_46")
    3339        .dwattr $C$DW$253, DW_AT_bit_offset(0x0c), DW_AT_bit_size(0x04)
    3340        .dwattr $C$DW$253, DW_AT_data_member_location[DW_OP_plus_uconst 0x0]
    3341        .dwattr $C$DW$253, DW_AT_accessibility(DW_ACCESS_public)
    3342        .dwattr $C$DW$253, DW_AT_decl_file("/opt/ti/ccsv6/ccs_base/pru/include/pru_intc.h")
    3343        .dwattr $C$DW$253, DW_AT_decl_line(0x1b5)
    3344        .dwattr $C$DW$253, DW_AT_decl_column(0x0d)
    3345$C$DW$254       .dwtag  DW_TAG_member
    3346        .dwattr $C$DW$254, DW_AT_type(*$C$DW$T$11)
    3347        .dwattr $C$DW$254, DW_AT_name("rsvd20")
    3348        .dwattr $C$DW$254, DW_AT_TI_symbol_name("rsvd20")
    3349        .dwattr $C$DW$254, DW_AT_bit_offset(0x08), DW_AT_bit_size(0x04)
    3350        .dwattr $C$DW$254, DW_AT_data_member_location[DW_OP_plus_uconst 0x0]
    3351        .dwattr $C$DW$254, DW_AT_accessibility(DW_ACCESS_public)
    3352        .dwattr $C$DW$254, DW_AT_decl_file("/opt/ti/ccsv6/ccs_base/pru/include/pru_intc.h")
    3353        .dwattr $C$DW$254, DW_AT_decl_line(0x1b6)
    3354        .dwattr $C$DW$254, DW_AT_decl_column(0x0d)
    3355$C$DW$255       .dwtag  DW_TAG_member
    3356        .dwattr $C$DW$255, DW_AT_type(*$C$DW$T$11)
    3357        .dwattr $C$DW$255, DW_AT_name("CH_MAP_47")
    3358        .dwattr $C$DW$255, DW_AT_TI_symbol_name("CH_MAP_47")
    3359        .dwattr $C$DW$255, DW_AT_bit_offset(0x04), DW_AT_bit_size(0x04)
    3360        .dwattr $C$DW$255, DW_AT_data_member_location[DW_OP_plus_uconst 0x0]
    3361        .dwattr $C$DW$255, DW_AT_accessibility(DW_ACCESS_public)
    3362        .dwattr $C$DW$255, DW_AT_decl_file("/opt/ti/ccsv6/ccs_base/pru/include/pru_intc.h")
    3363        .dwattr $C$DW$255, DW_AT_decl_line(0x1b7)
    3364        .dwattr $C$DW$255, DW_AT_decl_column(0x0d)
    3365$C$DW$256       .dwtag  DW_TAG_member
    3366        .dwattr $C$DW$256, DW_AT_type(*$C$DW$T$11)
    3367        .dwattr $C$DW$256, DW_AT_name("rsvd28")
    3368        .dwattr $C$DW$256, DW_AT_TI_symbol_name("rsvd28")
    3369        .dwattr $C$DW$256, DW_AT_bit_offset(0x00), DW_AT_bit_size(0x04)
    3370        .dwattr $C$DW$256, DW_AT_data_member_location[DW_OP_plus_uconst 0x0]
    3371        .dwattr $C$DW$256, DW_AT_accessibility(DW_ACCESS_public)
    3372        .dwattr $C$DW$256, DW_AT_decl_file("/opt/ti/ccsv6/ccs_base/pru/include/pru_intc.h")
PRU Assembler Unix v2.1.2 Wed Sep  7 12:11:05 2016

Tools Copyright (c) 2012-2015 Texas Instruments Incorporated
mcp3202.asm                                                          PAGE   64

    3373        .dwattr $C$DW$256, DW_AT_decl_line(0x1b8)
    3374        .dwattr $C$DW$256, DW_AT_decl_column(0x0d)
    3375        .dwendtag $C$DW$T$49
    3376
    3377        .dwattr $C$DW$T$49, DW_AT_decl_file("/opt/ti/ccsv6/ccs_base/pru/include/pru_intc.h")
    3378        .dwattr $C$DW$T$49, DW_AT_decl_line(0x1b0)
    3379        .dwattr $C$DW$T$49, DW_AT_decl_column(0x12)
    3380$C$DW$T$244     .dwtag  DW_TAG_volatile_type
    3381        .dwattr $C$DW$T$244, DW_AT_type(*$C$DW$T$49)
    3382
    3383$C$DW$T$50      .dwtag  DW_TAG_structure_type
    3384        .dwattr $C$DW$T$50, DW_AT_byte_size(0x04)
    3385$C$DW$257       .dwtag  DW_TAG_member
    3386        .dwattr $C$DW$257, DW_AT_type(*$C$DW$T$11)
    3387        .dwattr $C$DW$257, DW_AT_name("CH_MAP_48")
