PRU Assembler Unix v2.1.2 Thu Jan 28 12:38:40 2016

Tools Copyright (c) 2012-2015 Texas Instruments Incorporated
spi.asm                                                              PAGE    1

       1;******************************************************************************
       2;* PRU C/C++ Codegen                                              Unix v2.1.2 *
       3;* Date/Time created: Thu Jan 28 12:38:40 2016                                *
       4;******************************************************************************
       5        .compiler_opts --abi=eabi --diag_wrap=off --endian=little --hll_source=on --object_format=elf 
       6
       7$C$DW$CU        .dwtag  DW_TAG_compile_unit
       8        .dwattr $C$DW$CU, DW_AT_name("../spi.c")
       9        .dwattr $C$DW$CU, DW_AT_producer("TI PRU C/C++ Codegen Unix v2.1.2 Copyright (c) 2012-2015 Tex
      10        .dwattr $C$DW$CU, DW_AT_TI_version(0x01)
      11        .dwattr $C$DW$CU, DW_AT_comp_dir("/home/bwilcutt2/workspace_v6_1/PRU_SPIMCP/Debug")
      12;       /opt/ti/ccsv6/tools/compiler/ti-cgt-pru_2.1.2/bin/acpiapru -@/tmp/08344hrIkgY 
      13 00000000                         .sect   ".text:SPI_WordLengthSet"
      14        .clink
      15        .global ||SPI_WordLengthSet||
      16
      17$C$DW$1 .dwtag  DW_TAG_subprogram, DW_AT_name("SPI_WordLengthSet")
      18        .dwattr $C$DW$1, DW_AT_low_pc(||SPI_WordLengthSet||)
      19        .dwattr $C$DW$1, DW_AT_high_pc(0x00)
      20        .dwattr $C$DW$1, DW_AT_TI_symbol_name("SPI_WordLengthSet")
      21        .dwattr $C$DW$1, DW_AT_external
      22        .dwattr $C$DW$1, DW_AT_TI_begin_file("../spi.c")
      23        .dwattr $C$DW$1, DW_AT_TI_begin_line(0x98)
      24        .dwattr $C$DW$1, DW_AT_TI_begin_column(0x0d)
      25        .dwattr $C$DW$1, DW_AT_decl_file("../spi.c")
      26        .dwattr $C$DW$1, DW_AT_decl_line(0x98)
      27        .dwattr $C$DW$1, DW_AT_decl_column(0x0d)
      28        .dwattr $C$DW$1, DW_AT_TI_max_frame_size(0x0c)
      29        .dwpsn  file "../spi.c",line 153,column 1,is_stmt,address ||SPI_WordLengthSet||,isa 0
      30
      31        .dwfde $C$DW$CIE, ||SPI_WordLengthSet||
      32$C$DW$2 .dwtag  DW_TAG_formal_parameter, DW_AT_name("spiAddr")
      33        .dwattr $C$DW$2, DW_AT_TI_symbol_name("spiAddr")
      34        .dwattr $C$DW$2, DW_AT_type(*$C$DW$T$19)
      35        .dwattr $C$DW$2, DW_AT_location[DW_OP_regx 0x38]
      36$C$DW$3 .dwtag  DW_TAG_formal_parameter, DW_AT_name("wordLength")
      37        .dwattr $C$DW$3, DW_AT_TI_symbol_name("wordLength")
      38        .dwattr $C$DW$3, DW_AT_type(*$C$DW$T$19)
      39        .dwattr $C$DW$3, DW_AT_location[DW_OP_regx 0x3c]
      40$C$DW$4 .dwtag  DW_TAG_formal_parameter, DW_AT_name("chNum")
      41        .dwattr $C$DW$4, DW_AT_TI_symbol_name("chNum")
      42        .dwattr $C$DW$4, DW_AT_type(*$C$DW$T$19)
      43        .dwattr $C$DW$4, DW_AT_location[DW_OP_regx 0x40]
      44
      45;***************************************************************
      46;* FNAME: SPI_WordLengthSet             FR SIZE:  12           *
      47;*                                                             *
      48;* FUNCTION ENVIRONMENT                                        *
      49;*                                                             *
      50;* FUNCTION PROPERTIES                                         *
      51;*                           12 Auto,  0 SOE     *
      52;***************************************************************
      53
      54 00000000                 ||SPI_WordLengthSet||:
      55;* --------------------------------------------------------------------------*
PRU Assembler Unix v2.1.2 Thu Jan 28 12:38:40 2016

Tools Copyright (c) 2012-2015 Texas Instruments Incorporated
spi.asm                                                              PAGE    2

      56        .dwcfi  cfa_offset, 0
      57 00000000 000000050CE2E2          SUB       r2, r2, 0x0c          ; [ALU_PRU] 
      58        .dwcfi  cfa_offset, 12
      59$C$DW$5 .dwtag  DW_TAG_variable, DW_AT_name("spiAddr")
      60        .dwattr $C$DW$5, DW_AT_TI_symbol_name("spiAddr")
      61        .dwattr $C$DW$5, DW_AT_type(*$C$DW$T$19)
      62        .dwattr $C$DW$5, DW_AT_location[DW_OP_breg8 0]
      63 00000004 00000010000000          NOP                             ; [ALU_PRU] 
      64$C$DW$6 .dwtag  DW_TAG_variable, DW_AT_name("wordLength")
      65        .dwattr $C$DW$6, DW_AT_TI_symbol_name("wordLength")
      66        .dwattr $C$DW$6, DW_AT_type(*$C$DW$T$19)
      67        .dwattr $C$DW$6, DW_AT_location[DW_OP_breg8 4]
      68 00000008 00000010000000          NOP                             ; [ALU_PRU] 
      69$C$DW$7 .dwtag  DW_TAG_variable, DW_AT_name("chNum")
      70        .dwattr $C$DW$7, DW_AT_TI_symbol_name("chNum")
      71        .dwattr $C$DW$7, DW_AT_type(*$C$DW$T$19)
      72        .dwattr $C$DW$7, DW_AT_location[DW_OP_breg8 8]
      73 0000000c 00000010000000          NOP                             ; [ALU_PRU] 
      74 00000010 000000E1082290          SBBO      &r16, r2, 8, 4        ; [ALU_PRU] |153| chNum
      75 00000014 000000E104228F          SBBO      &r15, r2, 4, 4        ; [ALU_PRU] |153| wordLength
      76 00000018 000000E100228E          SBBO      &r14, r2, 0, 4        ; [ALU_PRU] |153| spiAddr
      77        .dwpsn  file "../spi.c",line 154,column 2,is_stmt,isa 0
      78 0000001c 000000F1082280          LBBO      &r0, r2, 8, 4         ; [ALU_PRU] |154| chNum
      79 00000020 0000000902E0E1          LSL       r1, r0, 0x02          ; [ALU_PRU] |154| 
      80 00000024 0000000904E0E0          LSL       r0, r0, 0x04          ; [ALU_PRU] |154| 
      81 00000028 00000000E1E0E0          ADD       r0, r0, r1            ; [ALU_PRU] |154| 
      82 0000002c 000000F1002281          LBBO      &r1, r2, 0, 4         ; [ALU_PRU] |154| spiAddr
      83 00000030 00000000E0E1E1          ADD       r1, r1, r0            ; [ALU_PRU] |154| 
      84 00000034 00000024012CE0          LDI       r0, 0x012c            ; [ALU_PRU] |154| 
      85 00000038 00000000E0E1E0          ADD       r0, r1, r0            ; [ALU_PRU] |154| 
      86 0000003c F07F8124FFFFC1          LDI32     r1, 0xfffff07f        ; [ALU_PRU] |154| 
         00000043 00000000004024 
      87 00000044 000000F100208E          LBBO      &r14, r0, 0, 4        ; [ALU_PRU] |154| 
      88 00000048 00000010E1EEE1          AND       r1, r14, r1           ; [ALU_PRU] |154| 
      89 0000004c 000000E1002081          SBBO      &r1, r0, 0, 4         ; [ALU_PRU] |154| 
      90        .dwpsn  file "../spi.c",line 155,column 2,is_stmt,isa 0
      91 00000050 000000F1082280          LBBO      &r0, r2, 8, 4         ; [ALU_PRU] |155| chNum
      92 00000054 000000F104228E          LBBO      &r14, r2, 4, 4        ; [ALU_PRU] |155| wordLength
      93 00000058 0000000902E0E1          LSL       r1, r0, 0x02          ; [ALU_PRU] |155| 
      94 0000005c 0000000904E0E0          LSL       r0, r0, 0x04          ; [ALU_PRU] |155| 
      95 00000060 00000000E1E0E0          ADD       r0, r0, r1            ; [ALU_PRU] |155| 
      96 00000064 000000F1002281          LBBO      &r1, r2, 0, 4         ; [ALU_PRU] |155| spiAddr
      97 00000068 00000000E0E1E1          ADD       r1, r1, r0            ; [ALU_PRU] |155| 
      98 0000006c 00000024012CE0          LDI       r0, 0x012c            ; [ALU_PRU] |155| 
      99 00000070 00000000E0E1E0          ADD       r0, r1, r0            ; [ALU_PRU] |155| 
     100 00000074 000000240F80E1          LDI       r1, 0x0f80            ; [ALU_PRU] |155| 
     101 00000078 00000010E1EEE1          AND       r1, r14, r1           ; [ALU_PRU] |155| 
     102 0000007c 000000F100208E          LBBO      &r14, r0, 0, 4        ; [ALU_PRU] |155| 
     103 00000080 00000012E1EEE1          OR        r1, r14, r1           ; [ALU_PRU] |155| 
     104 00000084 000000E1002081          SBBO      &r1, r0, 0, 4         ; [ALU_PRU] |155| 
     105        .dwpsn  file "../spi.c",line 156,column 1,is_stmt,isa 0
     106 00000088 000000010CE2E2          ADD       r2, r2, 0x0c          ; [ALU_PRU] 
     107        .dwcfi  cfa_offset, 0
     108$C$DW$8 .dwtag  DW_TAG_TI_branch
     109        .dwattr $C$DW$8, DW_AT_low_pc(0x00)
PRU Assembler Unix v2.1.2 Thu Jan 28 12:38:40 2016

Tools Copyright (c) 2012-2015 Texas Instruments Incorporated
spi.asm                                                              PAGE    3

     110        .dwattr $C$DW$8, DW_AT_TI_return
     111 0000008c 00000020C30000          JMP       r3.w2                 ; [ALU_PRU] 
     112        .dwattr $C$DW$1, DW_AT_TI_end_file("../spi.c")
     113        .dwattr $C$DW$1, DW_AT_TI_end_line(0x9c)
     114        .dwattr $C$DW$1, DW_AT_TI_end_column(0x01)
     115        .dwendentry
     116        .dwendtag $C$DW$1
     117
     118 00000000                         .sect   ".text:SPI_CSPolarityConfig"
     119        .clink
     120        .global ||SPI_CSPolarityConfig||
     121
     122$C$DW$9 .dwtag  DW_TAG_subprogram, DW_AT_name("SPI_CSPolarityConfig")
     123        .dwattr $C$DW$9, DW_AT_low_pc(||SPI_CSPolarityConfig||)
     124        .dwattr $C$DW$9, DW_AT_high_pc(0x00)
     125        .dwattr $C$DW$9, DW_AT_TI_symbol_name("SPI_CSPolarityConfig")
     126        .dwattr $C$DW$9, DW_AT_external
     127        .dwattr $C$DW$9, DW_AT_TI_begin_file("../spi.c")
     128        .dwattr $C$DW$9, DW_AT_TI_begin_line(0xbe)
     129        .dwattr $C$DW$9, DW_AT_TI_begin_column(0x0d)
     130        .dwattr $C$DW$9, DW_AT_decl_file("../spi.c")
     131        .dwattr $C$DW$9, DW_AT_decl_line(0xbe)
     132        .dwattr $C$DW$9, DW_AT_decl_column(0x0d)
     133        .dwattr $C$DW$9, DW_AT_TI_max_frame_size(0x0c)
     134        .dwpsn  file "../spi.c",line 191,column 1,is_stmt,address ||SPI_CSPolarityConfig||,isa 0
     135
     136        .dwfde $C$DW$CIE, ||SPI_CSPolarityConfig||
     137$C$DW$10        .dwtag  DW_TAG_formal_parameter, DW_AT_name("spiAddr")
     138        .dwattr $C$DW$10, DW_AT_TI_symbol_name("spiAddr")
     139        .dwattr $C$DW$10, DW_AT_type(*$C$DW$T$19)
     140        .dwattr $C$DW$10, DW_AT_location[DW_OP_regx 0x38]
     141$C$DW$11        .dwtag  DW_TAG_formal_parameter, DW_AT_name("spiEnPol")
     142        .dwattr $C$DW$11, DW_AT_TI_symbol_name("spiEnPol")
     143        .dwattr $C$DW$11, DW_AT_type(*$C$DW$T$19)
     144        .dwattr $C$DW$11, DW_AT_location[DW_OP_regx 0x3c]
     145$C$DW$12        .dwtag  DW_TAG_formal_parameter, DW_AT_name("chNum")
     146        .dwattr $C$DW$12, DW_AT_TI_symbol_name("chNum")
     147        .dwattr $C$DW$12, DW_AT_type(*$C$DW$T$19)
     148        .dwattr $C$DW$12, DW_AT_location[DW_OP_regx 0x40]
     149
     150;***************************************************************
     151;* FNAME: SPI_CSPolarityConfig          FR SIZE:  12           *
     152;*                                                             *
     153;* FUNCTION ENVIRONMENT                                        *
     154;*                                                             *
     155;* FUNCTION PROPERTIES                                         *
     156;*                           12 Auto,  0 SOE     *
     157;***************************************************************
     158
     159 00000000                 ||SPI_CSPolarityConfig||:
     160;* --------------------------------------------------------------------------*
     161        .dwcfi  cfa_offset, 0
     162 00000000 000000050CE2E2          SUB       r2, r2, 0x0c          ; [ALU_PRU] 
     163        .dwcfi  cfa_offset, 12
     164$C$DW$13        .dwtag  DW_TAG_variable, DW_AT_name("spiAddr")
PRU Assembler Unix v2.1.2 Thu Jan 28 12:38:40 2016

Tools Copyright (c) 2012-2015 Texas Instruments Incorporated
spi.asm                                                              PAGE    4

     165        .dwattr $C$DW$13, DW_AT_TI_symbol_name("spiAddr")
     166        .dwattr $C$DW$13, DW_AT_type(*$C$DW$T$19)
     167        .dwattr $C$DW$13, DW_AT_location[DW_OP_breg8 0]
     168 00000004 00000010000000          NOP                             ; [ALU_PRU] 
     169$C$DW$14        .dwtag  DW_TAG_variable, DW_AT_name("spiEnPol")
     170        .dwattr $C$DW$14, DW_AT_TI_symbol_name("spiEnPol")
     171        .dwattr $C$DW$14, DW_AT_type(*$C$DW$T$19)
     172        .dwattr $C$DW$14, DW_AT_location[DW_OP_breg8 4]
     173 00000008 00000010000000          NOP                             ; [ALU_PRU] 
     174$C$DW$15        .dwtag  DW_TAG_variable, DW_AT_name("chNum")
     175        .dwattr $C$DW$15, DW_AT_TI_symbol_name("chNum")
     176        .dwattr $C$DW$15, DW_AT_type(*$C$DW$T$19)
     177        .dwattr $C$DW$15, DW_AT_location[DW_OP_breg8 8]
     178 0000000c 00000010000000          NOP                             ; [ALU_PRU] 
     179 00000010 000000E1082290          SBBO      &r16, r2, 8, 4        ; [ALU_PRU] |191| chNum
     180 00000014 000000E104228F          SBBO      &r15, r2, 4, 4        ; [ALU_PRU] |191| spiEnPol
     181 00000018 000000E100228E          SBBO      &r14, r2, 0, 4        ; [ALU_PRU] |191| spiAddr
     182        .dwpsn  file "../spi.c",line 192,column 2,is_stmt,isa 0
     183 0000001c 000000F1082280          LBBO      &r0, r2, 8, 4         ; [ALU_PRU] |192| chNum
     184 00000020 0000000902E0E1          LSL       r1, r0, 0x02          ; [ALU_PRU] |192| 
     185 00000024 0000000904E0E0          LSL       r0, r0, 0x04          ; [ALU_PRU] |192| 
     186 00000028 00000000E1E0E0          ADD       r0, r0, r1            ; [ALU_PRU] |192| 
     187 0000002c 000000F1002281          LBBO      &r1, r2, 0, 4         ; [ALU_PRU] |192| spiAddr
     188 00000030 00000000E0E1E1          ADD       r1, r1, r0            ; [ALU_PRU] |192| 
     189 00000034 00000024012CE0          LDI       r0, 0x012c            ; [ALU_PRU] |192| 
     190 00000038 00000000E0E1E0          ADD       r0, r1, r0            ; [ALU_PRU] |192| 
     191 0000003c 000000F1002081          LBBO      &r1, r0, 0, 4         ; [ALU_PRU] |192| 
     192 00000040 0000001D06E1E1          CLR       r1, r1, 0x00000006    ; [ALU_PRU] |192| 
     193 00000044 000000E1002081          SBBO      &r1, r0, 0, 4         ; [ALU_PRU] |192| 
     194        .dwpsn  file "../spi.c",line 193,column 2,is_stmt,isa 0
     195 00000048 000000F1082280          LBBO      &r0, r2, 8, 4         ; [ALU_PRU] |193| chNum
     196 0000004c 0000000902E0E1          LSL       r1, r0, 0x02          ; [ALU_PRU] |193| 
     197 00000050 0000000904E0E0          LSL       r0, r0, 0x04          ; [ALU_PRU] |193| 
     198 00000054 00000000E1E0E0          ADD       r0, r0, r1            ; [ALU_PRU] |193| 
     199 00000058 000000F1002281          LBBO      &r1, r2, 0, 4         ; [ALU_PRU] |193| spiAddr
     200 0000005c 00000000E0E1E1          ADD       r1, r1, r0            ; [ALU_PRU] |193| 
     201 00000060 00000024012CE0          LDI       r0, 0x012c            ; [ALU_PRU] |193| 
     202 00000064 00000000E0E1E0          ADD       r0, r1, r0            ; [ALU_PRU] |193| 
     203 00000068 000000F100208E          LBBO      &r14, r0, 0, 4        ; [ALU_PRU] |193| 
     204 0000006c 000000F1042281          LBBO      &r1, r2, 4, 4         ; [ALU_PRU] |193| spiEnPol
     205 00000070 0000001140E1E1          AND       r1, r1, 0x40          ; [ALU_PRU] |193| 
     206 00000074 00000012E1EEE1          OR        r1, r14, r1           ; [ALU_PRU] |193| 
     207 00000078 000000E1002081          SBBO      &r1, r0, 0, 4         ; [ALU_PRU] |193| 
     208        .dwpsn  file "../spi.c",line 194,column 1,is_stmt,isa 0
     209 0000007c 000000010CE2E2          ADD       r2, r2, 0x0c          ; [ALU_PRU] 
     210        .dwcfi  cfa_offset, 0
     211$C$DW$16        .dwtag  DW_TAG_TI_branch
     212        .dwattr $C$DW$16, DW_AT_low_pc(0x00)
     213        .dwattr $C$DW$16, DW_AT_TI_return
     214 00000080 00000020C30000          JMP       r3.w2                 ; [ALU_PRU] 
     215        .dwattr $C$DW$9, DW_AT_TI_end_file("../spi.c")
     216        .dwattr $C$DW$9, DW_AT_TI_end_line(0xc2)
     217        .dwattr $C$DW$9, DW_AT_TI_end_column(0x01)
     218        .dwendentry
     219        .dwendtag $C$DW$9
PRU Assembler Unix v2.1.2 Thu Jan 28 12:38:40 2016

Tools Copyright (c) 2012-2015 Texas Instruments Incorporated
spi.asm                                                              PAGE    5

     220
     221 00000000                         .sect   ".text:SPI_CSTimeControlSet"
     222        .clink
     223        .global ||SPI_CSTimeControlSet||
     224
     225$C$DW$17        .dwtag  DW_TAG_subprogram, DW_AT_name("SPI_CSTimeControlSet")
     226        .dwattr $C$DW$17, DW_AT_low_pc(||SPI_CSTimeControlSet||)
     227        .dwattr $C$DW$17, DW_AT_high_pc(0x00)
     228        .dwattr $C$DW$17, DW_AT_TI_symbol_name("SPI_CSTimeControlSet")
     229        .dwattr $C$DW$17, DW_AT_external
     230        .dwattr $C$DW$17, DW_AT_TI_begin_file("../spi.c")
     231        .dwattr $C$DW$17, DW_AT_TI_begin_line(0xcf)
     232        .dwattr $C$DW$17, DW_AT_TI_begin_column(0x0d)
     233        .dwattr $C$DW$17, DW_AT_decl_file("../spi.c")
     234        .dwattr $C$DW$17, DW_AT_decl_line(0xcf)
     235        .dwattr $C$DW$17, DW_AT_decl_column(0x0d)
     236        .dwattr $C$DW$17, DW_AT_TI_max_frame_size(0x0c)
     237        .dwpsn  file "../spi.c",line 208,column 1,is_stmt,address ||SPI_CSTimeControlSet||,isa 0
     238
     239        .dwfde $C$DW$CIE, ||SPI_CSTimeControlSet||
     240$C$DW$18        .dwtag  DW_TAG_formal_parameter, DW_AT_name("spiAddr")
     241        .dwattr $C$DW$18, DW_AT_TI_symbol_name("spiAddr")
     242        .dwattr $C$DW$18, DW_AT_type(*$C$DW$T$19)
     243        .dwattr $C$DW$18, DW_AT_location[DW_OP_regx 0x38]
     244$C$DW$19        .dwtag  DW_TAG_formal_parameter, DW_AT_name("csTimeControl")
     245        .dwattr $C$DW$19, DW_AT_TI_symbol_name("csTimeControl")
     246        .dwattr $C$DW$19, DW_AT_type(*$C$DW$T$19)
     247        .dwattr $C$DW$19, DW_AT_location[DW_OP_regx 0x3c]
     248$C$DW$20        .dwtag  DW_TAG_formal_parameter, DW_AT_name("chNum")
     249        .dwattr $C$DW$20, DW_AT_TI_symbol_name("chNum")
     250        .dwattr $C$DW$20, DW_AT_type(*$C$DW$T$19)
     251        .dwattr $C$DW$20, DW_AT_location[DW_OP_regx 0x40]
     252
     253;***************************************************************
     254;* FNAME: SPI_CSTimeControlSet          FR SIZE:  12           *
     255;*                                                             *
     256;* FUNCTION ENVIRONMENT                                        *
     257;*                                                             *
     258;* FUNCTION PROPERTIES                                         *
     259;*                           12 Auto,  0 SOE     *
     260;***************************************************************
     261
     262 00000000                 ||SPI_CSTimeControlSet||:
     263;* --------------------------------------------------------------------------*
     264        .dwcfi  cfa_offset, 0
     265 00000000 000000050CE2E2          SUB       r2, r2, 0x0c          ; [ALU_PRU] 
     266        .dwcfi  cfa_offset, 12
     267$C$DW$21        .dwtag  DW_TAG_variable, DW_AT_name("spiAddr")
     268        .dwattr $C$DW$21, DW_AT_TI_symbol_name("spiAddr")
     269        .dwattr $C$DW$21, DW_AT_type(*$C$DW$T$19)
     270        .dwattr $C$DW$21, DW_AT_location[DW_OP_breg8 0]
     271 00000004 00000010000000          NOP                             ; [ALU_PRU] 
     272$C$DW$22        .dwtag  DW_TAG_variable, DW_AT_name("csTimeControl")
     273        .dwattr $C$DW$22, DW_AT_TI_symbol_name("csTimeControl")
     274        .dwattr $C$DW$22, DW_AT_type(*$C$DW$T$19)
PRU Assembler Unix v2.1.2 Thu Jan 28 12:38:40 2016

Tools Copyright (c) 2012-2015 Texas Instruments Incorporated
spi.asm                                                              PAGE    6

     275        .dwattr $C$DW$22, DW_AT_location[DW_OP_breg8 4]
     276 00000008 00000010000000          NOP                             ; [ALU_PRU] 
     277$C$DW$23        .dwtag  DW_TAG_variable, DW_AT_name("chNum")
     278        .dwattr $C$DW$23, DW_AT_TI_symbol_name("chNum")
     279        .dwattr $C$DW$23, DW_AT_type(*$C$DW$T$19)
     280        .dwattr $C$DW$23, DW_AT_location[DW_OP_breg8 8]
     281 0000000c 00000010000000          NOP                             ; [ALU_PRU] 
     282 00000010 000000E1082290          SBBO      &r16, r2, 8, 4        ; [ALU_PRU] |208| chNum
     283 00000014 000000E104228F          SBBO      &r15, r2, 4, 4        ; [ALU_PRU] |208| csTimeControl
     284 00000018 000000E100228E          SBBO      &r14, r2, 0, 4        ; [ALU_PRU] |208| spiAddr
     285        .dwpsn  file "../spi.c",line 209,column 2,is_stmt,isa 0
     286 0000001c 000000F1082280          LBBO      &r0, r2, 8, 4         ; [ALU_PRU] |209| chNum
     287 00000020 0000000902E0E1          LSL       r1, r0, 0x02          ; [ALU_PRU] |209| 
     288 00000024 0000000904E0E0          LSL       r0, r0, 0x04          ; [ALU_PRU] |209| 
     289 00000028 00000000E1E0E0          ADD       r0, r0, r1            ; [ALU_PRU] |209| 
     290 0000002c 000000F1002281          LBBO      &r1, r2, 0, 4         ; [ALU_PRU] |209| spiAddr
     291 00000030 00000000E0E1E1          ADD       r1, r1, r0            ; [ALU_PRU] |209| 
     292 00000034 00000024012CE0          LDI       r0, 0x012c            ; [ALU_PRU] |209| 
     293 00000038 00000000E0E1E0          ADD       r0, r1, r0            ; [ALU_PRU] |209| 
     294 0000003c FFFF8124F9FFC1          LDI32     r1, 0xf9ffffff        ; [ALU_PRU] |209| 
         00000043 00000000004024 
     295 00000044 000000F100208E          LBBO      &r14, r0, 0, 4        ; [ALU_PRU] |209| 
     296 00000048 00000010E1EEE1          AND       r1, r14, r1           ; [ALU_PRU] |209| 
     297 0000004c 000000E1002081          SBBO      &r1, r0, 0, 4         ; [ALU_PRU] |209| 
     298        .dwpsn  file "../spi.c",line 210,column 2,is_stmt,isa 0
     299 00000050 000000F1082280          LBBO      &r0, r2, 8, 4         ; [ALU_PRU] |210| chNum
     300 00000054 000000F104228E          LBBO      &r14, r2, 4, 4        ; [ALU_PRU] |210| csTimeControl
     301 00000058 0000000902E0E1          LSL       r1, r0, 0x02          ; [ALU_PRU] |210| 
     302 0000005c 0000000904E0E0          LSL       r0, r0, 0x04          ; [ALU_PRU] |210| 
     303 00000060 00000000E1E0E0          ADD       r0, r0, r1            ; [ALU_PRU] |210| 
     304 00000064 000000F1002281          LBBO      &r1, r2, 0, 4         ; [ALU_PRU] |210| spiAddr
     305 00000068 00000000E0E1E1          ADD       r1, r1, r0            ; [ALU_PRU] |210| 
     306 0000006c 00000024012CE0          LDI       r0, 0x012c            ; [ALU_PRU] |210| 
     307 00000070 00000000E0E1E0          ADD       r0, r1, r0            ; [ALU_PRU] |210| 
     308 00000074 000081240600C1          LDI32     r1, 0x06000000        ; [ALU_PRU] |210| 
         0000007b 00000000004024 
     309 0000007c 00000010E1EEE1          AND       r1, r14, r1           ; [ALU_PRU] |210| 
     310 00000080 000000F100208E          LBBO      &r14, r0, 0, 4        ; [ALU_PRU] |210| 
     311 00000084 00000012E1EEE1          OR        r1, r14, r1           ; [ALU_PRU] |210| 
     312 00000088 000000E1002081          SBBO      &r1, r0, 0, 4         ; [ALU_PRU] |210| 
     313        .dwpsn  file "../spi.c",line 211,column 1,is_stmt,isa 0
     314 0000008c 000000010CE2E2          ADD       r2, r2, 0x0c          ; [ALU_PRU] 
     315        .dwcfi  cfa_offset, 0
     316$C$DW$24        .dwtag  DW_TAG_TI_branch
     317        .dwattr $C$DW$24, DW_AT_low_pc(0x00)
     318        .dwattr $C$DW$24, DW_AT_TI_return
     319 00000090 00000020C30000          JMP       r3.w2                 ; [ALU_PRU] 
     320        .dwattr $C$DW$17, DW_AT_TI_end_file("../spi.c")
     321        .dwattr $C$DW$17, DW_AT_TI_end_line(0xd3)
     322        .dwattr $C$DW$17, DW_AT_TI_end_column(0x01)
     323        .dwendentry
     324        .dwendtag $C$DW$17
     325
     326 00000000                         .sect   ".text:SPI_CSAssert"
     327        .clink
PRU Assembler Unix v2.1.2 Thu Jan 28 12:38:40 2016

Tools Copyright (c) 2012-2015 Texas Instruments Incorporated
spi.asm                                                              PAGE    7

     328        .global ||SPI_CSAssert||
     329
     330$C$DW$25        .dwtag  DW_TAG_subprogram, DW_AT_name("SPI_CSAssert")
     331        .dwattr $C$DW$25, DW_AT_low_pc(||SPI_CSAssert||)
     332        .dwattr $C$DW$25, DW_AT_high_pc(0x00)
     333        .dwattr $C$DW$25, DW_AT_TI_symbol_name("SPI_CSAssert")
     334        .dwattr $C$DW$25, DW_AT_external
     335        .dwattr $C$DW$25, DW_AT_TI_begin_file("../spi.c")
     336        .dwattr $C$DW$25, DW_AT_TI_begin_line(0xde)
     337        .dwattr $C$DW$25, DW_AT_TI_begin_column(0x0d)
     338        .dwattr $C$DW$25, DW_AT_decl_file("../spi.c")
     339        .dwattr $C$DW$25, DW_AT_decl_line(0xde)
     340        .dwattr $C$DW$25, DW_AT_decl_column(0x0d)
     341        .dwattr $C$DW$25, DW_AT_TI_max_frame_size(0x08)
     342        .dwpsn  file "../spi.c",line 223,column 1,is_stmt,address ||SPI_CSAssert||,isa 0
     343
     344        .dwfde $C$DW$CIE, ||SPI_CSAssert||
     345$C$DW$26        .dwtag  DW_TAG_formal_parameter, DW_AT_name("spiAddr")
     346        .dwattr $C$DW$26, DW_AT_TI_symbol_name("spiAddr")
     347        .dwattr $C$DW$26, DW_AT_type(*$C$DW$T$19)
     348        .dwattr $C$DW$26, DW_AT_location[DW_OP_regx 0x38]
     349$C$DW$27        .dwtag  DW_TAG_formal_parameter, DW_AT_name("chNum")
     350        .dwattr $C$DW$27, DW_AT_TI_symbol_name("chNum")
     351        .dwattr $C$DW$27, DW_AT_type(*$C$DW$T$19)
     352        .dwattr $C$DW$27, DW_AT_location[DW_OP_regx 0x3c]
     353
     354;***************************************************************
     355;* FNAME: SPI_CSAssert                  FR SIZE:   8           *
     356;*                                                             *
     357;* FUNCTION ENVIRONMENT                                        *
     358;*                                                             *
     359;* FUNCTION PROPERTIES                                         *
     360;*                            8 Auto,  0 SOE     *
     361;***************************************************************
     362
     363 00000000                 ||SPI_CSAssert||:
     364;* --------------------------------------------------------------------------*
     365        .dwcfi  cfa_offset, 0
     366 00000000 0000000508E2E2          SUB       r2, r2, 0x08          ; [ALU_PRU] 
     367        .dwcfi  cfa_offset, 8
     368$C$DW$28        .dwtag  DW_TAG_variable, DW_AT_name("spiAddr")
     369        .dwattr $C$DW$28, DW_AT_TI_symbol_name("spiAddr")
     370        .dwattr $C$DW$28, DW_AT_type(*$C$DW$T$19)
     371        .dwattr $C$DW$28, DW_AT_location[DW_OP_breg8 0]
     372 00000004 00000010000000          NOP                             ; [ALU_PRU] 
     373$C$DW$29        .dwtag  DW_TAG_variable, DW_AT_name("chNum")
     374        .dwattr $C$DW$29, DW_AT_TI_symbol_name("chNum")
     375        .dwattr $C$DW$29, DW_AT_type(*$C$DW$T$19)
     376        .dwattr $C$DW$29, DW_AT_location[DW_OP_breg8 4]
     377 00000008 00000010000000          NOP                             ; [ALU_PRU] 
     378 0000000c 000000E104228F          SBBO      &r15, r2, 4, 4        ; [ALU_PRU] |223| chNum
     379 00000010 000000E100228E          SBBO      &r14, r2, 0, 4        ; [ALU_PRU] |223| spiAddr
     380        .dwpsn  file "../spi.c",line 224,column 2,is_stmt,isa 0
     381 00000014 000000F1042280          LBBO      &r0, r2, 4, 4         ; [ALU_PRU] |224| chNum
     382 00000018 0000000902E0E1          LSL       r1, r0, 0x02          ; [ALU_PRU] |224| 
PRU Assembler Unix v2.1.2 Thu Jan 28 12:38:40 2016

Tools Copyright (c) 2012-2015 Texas Instruments Incorporated
spi.asm                                                              PAGE    8

     383 0000001c 0000000904E0E0          LSL       r0, r0, 0x04          ; [ALU_PRU] |224| 
     384 00000020 00000000E1E0E0          ADD       r0, r0, r1            ; [ALU_PRU] |224| 
     385 00000024 000000F1002281          LBBO      &r1, r2, 0, 4         ; [ALU_PRU] |224| spiAddr
     386 00000028 00000000E0E1E1          ADD       r1, r1, r0            ; [ALU_PRU] |224| 
     387 0000002c 00000024012CE0          LDI       r0, 0x012c            ; [ALU_PRU] |224| 
     388 00000030 00000000E0E1E0          ADD       r0, r1, r0            ; [ALU_PRU] |224| 
     389 00000034 000000F1002081          LBBO      &r1, r0, 0, 4         ; [ALU_PRU] |224| 
     390 00000038 0000001F14E1E1          SET       r1, r1, 0x00000014    ; [ALU_PRU] |224| 
     391 0000003c 000000E1002081          SBBO      &r1, r0, 0, 4         ; [ALU_PRU] |224| 
     392        .dwpsn  file "../spi.c",line 225,column 1,is_stmt,isa 0
     393 00000040 0000000108E2E2          ADD       r2, r2, 0x08          ; [ALU_PRU] 
     394        .dwcfi  cfa_offset, 0
     395$C$DW$30        .dwtag  DW_TAG_TI_branch
     396        .dwattr $C$DW$30, DW_AT_low_pc(0x00)
     397        .dwattr $C$DW$30, DW_AT_TI_return
     398 00000044 00000020C30000          JMP       r3.w2                 ; [ALU_PRU] 
     399        .dwattr $C$DW$25, DW_AT_TI_end_file("../spi.c")
     400        .dwattr $C$DW$25, DW_AT_TI_end_line(0xe1)
     401        .dwattr $C$DW$25, DW_AT_TI_end_column(0x01)
     402        .dwendentry
     403        .dwendtag $C$DW$25
     404
     405 00000000                         .sect   ".text:SPI_CSDeAssert"
     406        .clink
     407        .global ||SPI_CSDeAssert||
     408
     409$C$DW$31        .dwtag  DW_TAG_subprogram, DW_AT_name("SPI_CSDeAssert")
     410        .dwattr $C$DW$31, DW_AT_low_pc(||SPI_CSDeAssert||)
     411        .dwattr $C$DW$31, DW_AT_high_pc(0x00)
     412        .dwattr $C$DW$31, DW_AT_TI_symbol_name("SPI_CSDeAssert")
     413        .dwattr $C$DW$31, DW_AT_external
     414        .dwattr $C$DW$31, DW_AT_TI_begin_file("../spi.c")
     415        .dwattr $C$DW$31, DW_AT_TI_begin_line(0xeb)
     416        .dwattr $C$DW$31, DW_AT_TI_begin_column(0x0d)
     417        .dwattr $C$DW$31, DW_AT_decl_file("../spi.c")
     418        .dwattr $C$DW$31, DW_AT_decl_line(0xeb)
     419        .dwattr $C$DW$31, DW_AT_decl_column(0x0d)
     420        .dwattr $C$DW$31, DW_AT_TI_max_frame_size(0x08)
     421        .dwpsn  file "../spi.c",line 236,column 1,is_stmt,address ||SPI_CSDeAssert||,isa 0
     422
     423        .dwfde $C$DW$CIE, ||SPI_CSDeAssert||
     424$C$DW$32        .dwtag  DW_TAG_formal_parameter, DW_AT_name("spiAddr")
     425        .dwattr $C$DW$32, DW_AT_TI_symbol_name("spiAddr")
     426        .dwattr $C$DW$32, DW_AT_type(*$C$DW$T$19)
     427        .dwattr $C$DW$32, DW_AT_location[DW_OP_regx 0x38]
     428$C$DW$33        .dwtag  DW_TAG_formal_parameter, DW_AT_name("chNum")
     429        .dwattr $C$DW$33, DW_AT_TI_symbol_name("chNum")
     430        .dwattr $C$DW$33, DW_AT_type(*$C$DW$T$19)
     431        .dwattr $C$DW$33, DW_AT_location[DW_OP_regx 0x3c]
     432
     433;***************************************************************
     434;* FNAME: SPI_CSDeAssert                FR SIZE:   8           *
     435;*                                                             *
     436;* FUNCTION ENVIRONMENT                                        *
     437;*                                                             *
PRU Assembler Unix v2.1.2 Thu Jan 28 12:38:40 2016

Tools Copyright (c) 2012-2015 Texas Instruments Incorporated
spi.asm                                                              PAGE    9

     438;* FUNCTION PROPERTIES                                         *
     439;*                            8 Auto,  0 SOE     *
     440;***************************************************************
     441
     442 00000000                 ||SPI_CSDeAssert||:
     443;* --------------------------------------------------------------------------*
     444        .dwcfi  cfa_offset, 0
     445 00000000 0000000508E2E2          SUB       r2, r2, 0x08          ; [ALU_PRU] 
     446        .dwcfi  cfa_offset, 8
     447$C$DW$34        .dwtag  DW_TAG_variable, DW_AT_name("spiAddr")
     448        .dwattr $C$DW$34, DW_AT_TI_symbol_name("spiAddr")
     449        .dwattr $C$DW$34, DW_AT_type(*$C$DW$T$19)
     450        .dwattr $C$DW$34, DW_AT_location[DW_OP_breg8 0]
     451 00000004 00000010000000          NOP                             ; [ALU_PRU] 
     452$C$DW$35        .dwtag  DW_TAG_variable, DW_AT_name("chNum")
     453        .dwattr $C$DW$35, DW_AT_TI_symbol_name("chNum")
     454        .dwattr $C$DW$35, DW_AT_type(*$C$DW$T$19)
     455        .dwattr $C$DW$35, DW_AT_location[DW_OP_breg8 4]
     456 00000008 00000010000000          NOP                             ; [ALU_PRU] 
     457 0000000c 000000E104228F          SBBO      &r15, r2, 4, 4        ; [ALU_PRU] |236| chNum
     458 00000010 000000E100228E          SBBO      &r14, r2, 0, 4        ; [ALU_PRU] |236| spiAddr
     459        .dwpsn  file "../spi.c",line 237,column 2,is_stmt,isa 0
     460 00000014 000000F1042280          LBBO      &r0, r2, 4, 4         ; [ALU_PRU] |237| chNum
     461 00000018 0000000902E0E1          LSL       r1, r0, 0x02          ; [ALU_PRU] |237| 
     462 0000001c 0000000904E0E0          LSL       r0, r0, 0x04          ; [ALU_PRU] |237| 
     463 00000020 00000000E1E0E0          ADD       r0, r0, r1            ; [ALU_PRU] |237| 
     464 00000024 000000F1002281          LBBO      &r1, r2, 0, 4         ; [ALU_PRU] |237| spiAddr
     465 00000028 00000000E0E1E1          ADD       r1, r1, r0            ; [ALU_PRU] |237| 
     466 0000002c 00000024012CE0          LDI       r0, 0x012c            ; [ALU_PRU] |237| 
     467 00000030 00000000E0E1E0          ADD       r0, r1, r0            ; [ALU_PRU] |237| 
     468 00000034 000000F1002081          LBBO      &r1, r0, 0, 4         ; [ALU_PRU] |237| 
     469 00000038 0000001D14E1E1          CLR       r1, r1, 0x00000014    ; [ALU_PRU] |237| 
     470 0000003c 000000E1002081          SBBO      &r1, r0, 0, 4         ; [ALU_PRU] |237| 
     471        .dwpsn  file "../spi.c",line 238,column 1,is_stmt,isa 0
     472 00000040 0000000108E2E2          ADD       r2, r2, 0x08          ; [ALU_PRU] 
     473        .dwcfi  cfa_offset, 0
     474$C$DW$36        .dwtag  DW_TAG_TI_branch
     475        .dwattr $C$DW$36, DW_AT_low_pc(0x00)
     476        .dwattr $C$DW$36, DW_AT_TI_return
     477 00000044 00000020C30000          JMP       r3.w2                 ; [ALU_PRU] 
     478        .dwattr $C$DW$31, DW_AT_TI_end_file("../spi.c")
     479        .dwattr $C$DW$31, DW_AT_TI_end_line(0xee)
     480        .dwattr $C$DW$31, DW_AT_TI_end_column(0x01)
     481        .dwendentry
     482        .dwendtag $C$DW$31
     483
     484 00000000                         .sect   ".text:SPI_StartBitEnable"
     485        .clink
     486        .global ||SPI_StartBitEnable||
     487
     488$C$DW$37        .dwtag  DW_TAG_subprogram, DW_AT_name("SPI_StartBitEnable")
     489        .dwattr $C$DW$37, DW_AT_low_pc(||SPI_StartBitEnable||)
     490        .dwattr $C$DW$37, DW_AT_high_pc(0x00)
     491        .dwattr $C$DW$37, DW_AT_TI_symbol_name("SPI_StartBitEnable")
     492        .dwattr $C$DW$37, DW_AT_external
PRU Assembler Unix v2.1.2 Thu Jan 28 12:38:40 2016

Tools Copyright (c) 2012-2015 Texas Instruments Incorporated
spi.asm                                                              PAGE   10

     493        .dwattr $C$DW$37, DW_AT_TI_begin_file("../spi.c")
     494        .dwattr $C$DW$37, DW_AT_TI_begin_line(0xf9)
     495        .dwattr $C$DW$37, DW_AT_TI_begin_column(0x0d)
     496        .dwattr $C$DW$37, DW_AT_decl_file("../spi.c")
     497        .dwattr $C$DW$37, DW_AT_decl_line(0xf9)
     498        .dwattr $C$DW$37, DW_AT_decl_column(0x0d)
     499        .dwattr $C$DW$37, DW_AT_TI_max_frame_size(0x08)
     500        .dwpsn  file "../spi.c",line 250,column 1,is_stmt,address ||SPI_StartBitEnable||,isa 0
     501
     502        .dwfde $C$DW$CIE, ||SPI_StartBitEnable||
     503$C$DW$38        .dwtag  DW_TAG_formal_parameter, DW_AT_name("spiAddr")
     504        .dwattr $C$DW$38, DW_AT_TI_symbol_name("spiAddr")
     505        .dwattr $C$DW$38, DW_AT_type(*$C$DW$T$19)
     506        .dwattr $C$DW$38, DW_AT_location[DW_OP_regx 0x38]
     507$C$DW$39        .dwtag  DW_TAG_formal_parameter, DW_AT_name("chNum")
     508        .dwattr $C$DW$39, DW_AT_TI_symbol_name("chNum")
     509        .dwattr $C$DW$39, DW_AT_type(*$C$DW$T$19)
     510        .dwattr $C$DW$39, DW_AT_location[DW_OP_regx 0x3c]
     511
     512;***************************************************************
     513;* FNAME: SPI_StartBitEnable            FR SIZE:   8           *
     514;*                                                             *
     515;* FUNCTION ENVIRONMENT                                        *
     516;*                                                             *
     517;* FUNCTION PROPERTIES                                         *
     518;*                            8 Auto,  0 SOE     *
     519;***************************************************************
     520
     521 00000000                 ||SPI_StartBitEnable||:
     522;* --------------------------------------------------------------------------*
     523        .dwcfi  cfa_offset, 0
     524 00000000 0000000508E2E2          SUB       r2, r2, 0x08          ; [ALU_PRU] 
     525        .dwcfi  cfa_offset, 8
     526$C$DW$40        .dwtag  DW_TAG_variable, DW_AT_name("spiAddr")
     527        .dwattr $C$DW$40, DW_AT_TI_symbol_name("spiAddr")
     528        .dwattr $C$DW$40, DW_AT_type(*$C$DW$T$19)
     529        .dwattr $C$DW$40, DW_AT_location[DW_OP_breg8 0]
     530 00000004 00000010000000          NOP                             ; [ALU_PRU] 
     531$C$DW$41        .dwtag  DW_TAG_variable, DW_AT_name("chNum")
     532        .dwattr $C$DW$41, DW_AT_TI_symbol_name("chNum")
     533        .dwattr $C$DW$41, DW_AT_type(*$C$DW$T$19)
     534        .dwattr $C$DW$41, DW_AT_location[DW_OP_breg8 4]
     535 00000008 00000010000000          NOP                             ; [ALU_PRU] 
     536 0000000c 000000E104228F          SBBO      &r15, r2, 4, 4        ; [ALU_PRU] |250| chNum
     537 00000010 000000E100228E          SBBO      &r14, r2, 0, 4        ; [ALU_PRU] |250| spiAddr
     538        .dwpsn  file "../spi.c",line 251,column 2,is_stmt,isa 0
     539 00000014 000000F1042280          LBBO      &r0, r2, 4, 4         ; [ALU_PRU] |251| chNum
     540 00000018 0000000902E0E1          LSL       r1, r0, 0x02          ; [ALU_PRU] |251| 
     541 0000001c 0000000904E0E0          LSL       r0, r0, 0x04          ; [ALU_PRU] |251| 
     542 00000020 00000000E1E0E0          ADD       r0, r0, r1            ; [ALU_PRU] |251| 
     543 00000024 000000F1002281          LBBO      &r1, r2, 0, 4         ; [ALU_PRU] |251| spiAddr
     544 00000028 00000000E0E1E1          ADD       r1, r1, r0            ; [ALU_PRU] |251| 
     545 0000002c 00000024012CE0          LDI       r0, 0x012c            ; [ALU_PRU] |251| 
     546 00000030 00000000E0E1E0          ADD       r0, r1, r0            ; [ALU_PRU] |251| 
     547 00000034 000000F1002081          LBBO      &r1, r0, 0, 4         ; [ALU_PRU] |251| 
PRU Assembler Unix v2.1.2 Thu Jan 28 12:38:40 2016

Tools Copyright (c) 2012-2015 Texas Instruments Incorporated
spi.asm                                                              PAGE   11

     548 00000038 0000001F17E1E1          SET       r1, r1, 0x00000017    ; [ALU_PRU] |251| 
     549 0000003c 000000E1002081          SBBO      &r1, r0, 0, 4         ; [ALU_PRU] |251| 
     550        .dwpsn  file "../spi.c",line 252,column 1,is_stmt,isa 0
     551 00000040 0000000108E2E2          ADD       r2, r2, 0x08          ; [ALU_PRU] 
     552        .dwcfi  cfa_offset, 0
     553$C$DW$42        .dwtag  DW_TAG_TI_branch
     554        .dwattr $C$DW$42, DW_AT_low_pc(0x00)
     555        .dwattr $C$DW$42, DW_AT_TI_return
     556 00000044 00000020C30000          JMP       r3.w2                 ; [ALU_PRU] 
     557        .dwattr $C$DW$37, DW_AT_TI_end_file("../spi.c")
     558        .dwattr $C$DW$37, DW_AT_TI_end_line(0xfc)
     559        .dwattr $C$DW$37, DW_AT_TI_end_column(0x01)
     560        .dwendentry
     561        .dwendtag $C$DW$37
     562
     563 00000000                         .sect   ".text:SPI_StartBitPolarityConfig"
     564        .clink
     565        .global ||SPI_StartBitPolarityConfig||
     566
     567$C$DW$43        .dwtag  DW_TAG_subprogram, DW_AT_name("SPI_StartBitPolarityConfig")
     568        .dwattr $C$DW$43, DW_AT_low_pc(||SPI_StartBitPolarityConfig||)
     569        .dwattr $C$DW$43, DW_AT_high_pc(0x00)
     570        .dwattr $C$DW$43, DW_AT_TI_symbol_name("SPI_StartBitPolarityConfig")
     571        .dwattr $C$DW$43, DW_AT_external
     572        .dwattr $C$DW$43, DW_AT_TI_begin_file("../spi.c")
     573        .dwattr $C$DW$43, DW_AT_TI_begin_line(0x109)
     574        .dwattr $C$DW$43, DW_AT_TI_begin_column(0x0d)
     575        .dwattr $C$DW$43, DW_AT_decl_file("../spi.c")
     576        .dwattr $C$DW$43, DW_AT_decl_line(0x109)
     577        .dwattr $C$DW$43, DW_AT_decl_column(0x0d)
     578        .dwattr $C$DW$43, DW_AT_TI_max_frame_size(0x0c)
     579        .dwpsn  file "../spi.c",line 266,column 1,is_stmt,address ||SPI_StartBitPolarityConfig||,isa 0
     580
     581        .dwfde $C$DW$CIE, ||SPI_StartBitPolarityConfig||
     582$C$DW$44        .dwtag  DW_TAG_formal_parameter, DW_AT_name("spiAddr")
     583        .dwattr $C$DW$44, DW_AT_TI_symbol_name("spiAddr")
     584        .dwattr $C$DW$44, DW_AT_type(*$C$DW$T$19)
     585        .dwattr $C$DW$44, DW_AT_location[DW_OP_regx 0x38]
     586$C$DW$45        .dwtag  DW_TAG_formal_parameter, DW_AT_name("startBitPol")
     587        .dwattr $C$DW$45, DW_AT_TI_symbol_name("startBitPol")
     588        .dwattr $C$DW$45, DW_AT_type(*$C$DW$T$19)
     589        .dwattr $C$DW$45, DW_AT_location[DW_OP_regx 0x3c]
     590$C$DW$46        .dwtag  DW_TAG_formal_parameter, DW_AT_name("chNum")
     591        .dwattr $C$DW$46, DW_AT_TI_symbol_name("chNum")
     592        .dwattr $C$DW$46, DW_AT_type(*$C$DW$T$19)
     593        .dwattr $C$DW$46, DW_AT_location[DW_OP_regx 0x40]
     594
     595;***************************************************************
     596;* FNAME: SPI_StartBitPolarityConfig    FR SIZE:  12           *
     597;*                                                             *
     598;* FUNCTION ENVIRONMENT                                        *
     599;*                                                             *
     600;* FUNCTION PROPERTIES                                         *
     601;*                           12 Auto,  0 SOE     *
     602;***************************************************************
PRU Assembler Unix v2.1.2 Thu Jan 28 12:38:40 2016

Tools Copyright (c) 2012-2015 Texas Instruments Incorporated
spi.asm                                                              PAGE   12

     603
     604 00000000                 ||SPI_StartBitPolarityConfig||:
     605;* --------------------------------------------------------------------------*
     606        .dwcfi  cfa_offset, 0
     607 00000000 000000050CE2E2          SUB       r2, r2, 0x0c          ; [ALU_PRU] 
     608        .dwcfi  cfa_offset, 12
     609$C$DW$47        .dwtag  DW_TAG_variable, DW_AT_name("spiAddr")
     610        .dwattr $C$DW$47, DW_AT_TI_symbol_name("spiAddr")
     611        .dwattr $C$DW$47, DW_AT_type(*$C$DW$T$19)
     612        .dwattr $C$DW$47, DW_AT_location[DW_OP_breg8 0]
     613 00000004 00000010000000          NOP                             ; [ALU_PRU] 
     614$C$DW$48        .dwtag  DW_TAG_variable, DW_AT_name("startBitPol")
     615        .dwattr $C$DW$48, DW_AT_TI_symbol_name("startBitPol")
     616        .dwattr $C$DW$48, DW_AT_type(*$C$DW$T$19)
     617        .dwattr $C$DW$48, DW_AT_location[DW_OP_breg8 4]
     618 00000008 00000010000000          NOP                             ; [ALU_PRU] 
     619$C$DW$49        .dwtag  DW_TAG_variable, DW_AT_name("chNum")
     620        .dwattr $C$DW$49, DW_AT_TI_symbol_name("chNum")
     621        .dwattr $C$DW$49, DW_AT_type(*$C$DW$T$19)
     622        .dwattr $C$DW$49, DW_AT_location[DW_OP_breg8 8]
     623 0000000c 00000010000000          NOP                             ; [ALU_PRU] 
     624 00000010 000000E1082290          SBBO      &r16, r2, 8, 4        ; [ALU_PRU] |266| chNum
     625 00000014 000000E104228F          SBBO      &r15, r2, 4, 4        ; [ALU_PRU] |266| startBitPol
     626 00000018 000000E100228E          SBBO      &r14, r2, 0, 4        ; [ALU_PRU] |266| spiAddr
     627        .dwpsn  file "../spi.c",line 267,column 2,is_stmt,isa 0
     628 0000001c 000000F1082280          LBBO      &r0, r2, 8, 4         ; [ALU_PRU] |267| chNum
     629 00000020 0000000902E0E1          LSL       r1, r0, 0x02          ; [ALU_PRU] |267| 
     630 00000024 0000000904E0E0          LSL       r0, r0, 0x04          ; [ALU_PRU] |267| 
     631 00000028 00000000E1E0E0          ADD       r0, r0, r1            ; [ALU_PRU] |267| 
     632 0000002c 000000F1002281          LBBO      &r1, r2, 0, 4         ; [ALU_PRU] |267| spiAddr
     633 00000030 00000000E0E1E1          ADD       r1, r1, r0            ; [ALU_PRU] |267| 
     634 00000034 00000024012CE0          LDI       r0, 0x012c            ; [ALU_PRU] |267| 
     635 00000038 00000000E0E1E0          ADD       r0, r1, r0            ; [ALU_PRU] |267| 
     636 0000003c 000000F1002081          LBBO      &r1, r0, 0, 4         ; [ALU_PRU] |267| 
     637 00000040 0000001D18E1E1          CLR       r1, r1, 0x00000018    ; [ALU_PRU] |267| 
     638 00000044 000000E1002081          SBBO      &r1, r0, 0, 4         ; [ALU_PRU] |267| 
     639        .dwpsn  file "../spi.c",line 268,column 2,is_stmt,isa 0
     640 00000048 000000F104228E          LBBO      &r14, r2, 4, 4        ; [ALU_PRU] |268| startBitPol
     641 0000004c 000000F1082280          LBBO      &r0, r2, 8, 4         ; [ALU_PRU] |268| chNum
     642 00000050 0000000902E0E1          LSL       r1, r0, 0x02          ; [ALU_PRU] |268| 
     643 00000054 0000000904E0E0          LSL       r0, r0, 0x04          ; [ALU_PRU] |268| 
     644 00000058 00000000E1E0E0          ADD       r0, r0, r1            ; [ALU_PRU] |268| 
     645 0000005c 000000F1002281          LBBO      &r1, r2, 0, 4         ; [ALU_PRU] |268| spiAddr
     646 00000060 00000000E0E1E1          ADD       r1, r1, r0            ; [ALU_PRU] |268| 
     647 00000064 00000024012CE0          LDI       r0, 0x012c            ; [ALU_PRU] |268| 
     648 00000068 00000000E0E1E0          ADD       r0, r1, r0            ; [ALU_PRU] |268| 
     649 0000006c 000081240100C1          LDI32     r1, 0x01000000        ; [ALU_PRU] |268| 
         00000073 00000000004024 
     650 00000074 00000010E1EEE1          AND       r1, r14, r1           ; [ALU_PRU] |268| 
     651 00000078 000000F100208E          LBBO      &r14, r0, 0, 4        ; [ALU_PRU] |268| 
     652 0000007c 00000012E1EEE1          OR        r1, r14, r1           ; [ALU_PRU] |268| 
     653 00000080 000000E1002081          SBBO      &r1, r0, 0, 4         ; [ALU_PRU] |268| 
     654        .dwpsn  file "../spi.c",line 269,column 1,is_stmt,isa 0
     655 00000084 000000010CE2E2          ADD       r2, r2, 0x0c          ; [ALU_PRU] 
     656        .dwcfi  cfa_offset, 0
PRU Assembler Unix v2.1.2 Thu Jan 28 12:38:40 2016

Tools Copyright (c) 2012-2015 Texas Instruments Incorporated
spi.asm                                                              PAGE   13

     657$C$DW$50        .dwtag  DW_TAG_TI_branch
     658        .dwattr $C$DW$50, DW_AT_low_pc(0x00)
     659        .dwattr $C$DW$50, DW_AT_TI_return
     660 00000088 00000020C30000          JMP       r3.w2                 ; [ALU_PRU] 
     661        .dwattr $C$DW$43, DW_AT_TI_end_file("../spi.c")
     662        .dwattr $C$DW$43, DW_AT_TI_end_line(0x10d)
     663        .dwattr $C$DW$43, DW_AT_TI_end_column(0x01)
     664        .dwendentry
     665        .dwendtag $C$DW$43
     666
     667 00000000                         .sect   ".text:SPI_StartBitDisable"
     668        .clink
     669        .global ||SPI_StartBitDisable||
     670
     671$C$DW$51        .dwtag  DW_TAG_subprogram, DW_AT_name("SPI_StartBitDisable")
     672        .dwattr $C$DW$51, DW_AT_low_pc(||SPI_StartBitDisable||)
     673        .dwattr $C$DW$51, DW_AT_high_pc(0x00)
     674        .dwattr $C$DW$51, DW_AT_TI_symbol_name("SPI_StartBitDisable")
     675        .dwattr $C$DW$51, DW_AT_external
     676        .dwattr $C$DW$51, DW_AT_TI_begin_file("../spi.c")
     677        .dwattr $C$DW$51, DW_AT_TI_begin_line(0x118)
     678        .dwattr $C$DW$51, DW_AT_TI_begin_column(0x0d)
     679        .dwattr $C$DW$51, DW_AT_decl_file("../spi.c")
     680        .dwattr $C$DW$51, DW_AT_decl_line(0x118)
     681        .dwattr $C$DW$51, DW_AT_decl_column(0x0d)
     682        .dwattr $C$DW$51, DW_AT_TI_max_frame_size(0x08)
     683        .dwpsn  file "../spi.c",line 281,column 1,is_stmt,address ||SPI_StartBitDisable||,isa 0
     684
     685        .dwfde $C$DW$CIE, ||SPI_StartBitDisable||
     686$C$DW$52        .dwtag  DW_TAG_formal_parameter, DW_AT_name("spiAddr")
     687        .dwattr $C$DW$52, DW_AT_TI_symbol_name("spiAddr")
     688        .dwattr $C$DW$52, DW_AT_type(*$C$DW$T$19)
     689        .dwattr $C$DW$52, DW_AT_location[DW_OP_regx 0x38]
     690$C$DW$53        .dwtag  DW_TAG_formal_parameter, DW_AT_name("chNum")
     691        .dwattr $C$DW$53, DW_AT_TI_symbol_name("chNum")
     692        .dwattr $C$DW$53, DW_AT_type(*$C$DW$T$19)
     693        .dwattr $C$DW$53, DW_AT_location[DW_OP_regx 0x3c]
     694
     695;***************************************************************
     696;* FNAME: SPI_StartBitDisable           FR SIZE:   8           *
     697;*                                                             *
     698;* FUNCTION ENVIRONMENT                                        *
     699;*                                                             *
     700;* FUNCTION PROPERTIES                                         *
     701;*                            8 Auto,  0 SOE     *
     702;***************************************************************
     703
     704 00000000                 ||SPI_StartBitDisable||:
     705;* --------------------------------------------------------------------------*
     706        .dwcfi  cfa_offset, 0
     707 00000000 0000000508E2E2          SUB       r2, r2, 0x08          ; [ALU_PRU] 
     708        .dwcfi  cfa_offset, 8
     709$C$DW$54        .dwtag  DW_TAG_variable, DW_AT_name("spiAddr")
     710        .dwattr $C$DW$54, DW_AT_TI_symbol_name("spiAddr")
     711        .dwattr $C$DW$54, DW_AT_type(*$C$DW$T$19)
PRU Assembler Unix v2.1.2 Thu Jan 28 12:38:40 2016

Tools Copyright (c) 2012-2015 Texas Instruments Incorporated
spi.asm                                                              PAGE   14

     712        .dwattr $C$DW$54, DW_AT_location[DW_OP_breg8 0]
     713 00000004 00000010000000          NOP                             ; [ALU_PRU] 
     714$C$DW$55        .dwtag  DW_TAG_variable, DW_AT_name("chNum")
     715        .dwattr $C$DW$55, DW_AT_TI_symbol_name("chNum")
     716        .dwattr $C$DW$55, DW_AT_type(*$C$DW$T$19)
     717        .dwattr $C$DW$55, DW_AT_location[DW_OP_breg8 4]
     718 00000008 00000010000000          NOP                             ; [ALU_PRU] 
     719 0000000c 000000E104228F          SBBO      &r15, r2, 4, 4        ; [ALU_PRU] |281| chNum
     720 00000010 000000E100228E          SBBO      &r14, r2, 0, 4        ; [ALU_PRU] |281| spiAddr
     721        .dwpsn  file "../spi.c",line 282,column 2,is_stmt,isa 0
     722 00000014 000000F1042280          LBBO      &r0, r2, 4, 4         ; [ALU_PRU] |282| chNum
     723 00000018 0000000902E0E1          LSL       r1, r0, 0x02          ; [ALU_PRU] |282| 
     724 0000001c 0000000904E0E0          LSL       r0, r0, 0x04          ; [ALU_PRU] |282| 
     725 00000020 00000000E1E0E0          ADD       r0, r0, r1            ; [ALU_PRU] |282| 
     726 00000024 000000F1002281          LBBO      &r1, r2, 0, 4         ; [ALU_PRU] |282| spiAddr
     727 00000028 00000000E0E1E1          ADD       r1, r1, r0            ; [ALU_PRU] |282| 
     728 0000002c 00000024012CE0          LDI       r0, 0x012c            ; [ALU_PRU] |282| 
     729 00000030 00000000E0E1E0          ADD       r0, r1, r0            ; [ALU_PRU] |282| 
     730 00000034 000000F1002081          LBBO      &r1, r0, 0, 4         ; [ALU_PRU] |282| 
     731 00000038 0000001D17E1E1          CLR       r1, r1, 0x00000017    ; [ALU_PRU] |282| 
     732 0000003c 000000E1002081          SBBO      &r1, r0, 0, 4         ; [ALU_PRU] |282| 
     733        .dwpsn  file "../spi.c",line 283,column 1,is_stmt,isa 0
     734 00000040 0000000108E2E2          ADD       r2, r2, 0x08          ; [ALU_PRU] 
     735        .dwcfi  cfa_offset, 0
     736$C$DW$56        .dwtag  DW_TAG_TI_branch
     737        .dwattr $C$DW$56, DW_AT_low_pc(0x00)
     738        .dwattr $C$DW$56, DW_AT_TI_return
     739 00000044 00000020C30000          JMP       r3.w2                 ; [ALU_PRU] 
     740        .dwattr $C$DW$51, DW_AT_TI_end_file("../spi.c")
     741        .dwattr $C$DW$51, DW_AT_TI_end_line(0x11b)
     742        .dwattr $C$DW$51, DW_AT_TI_end_column(0x01)
     743        .dwendentry
     744        .dwendtag $C$DW$51
     745
     746 00000000                         .sect   ".text:SPI_MasterModeEnable"
     747        .clink
     748        .global ||SPI_MasterModeEnable||
     749
     750$C$DW$57        .dwtag  DW_TAG_subprogram, DW_AT_name("SPI_MasterModeEnable")
     751        .dwattr $C$DW$57, DW_AT_low_pc(||SPI_MasterModeEnable||)
     752        .dwattr $C$DW$57, DW_AT_high_pc(0x00)
     753        .dwattr $C$DW$57, DW_AT_TI_symbol_name("SPI_MasterModeEnable")
     754        .dwattr $C$DW$57, DW_AT_external
     755        .dwattr $C$DW$57, DW_AT_TI_begin_file("../spi.c")
     756        .dwattr $C$DW$57, DW_AT_TI_begin_line(0x125)
     757        .dwattr $C$DW$57, DW_AT_TI_begin_column(0x0d)
     758        .dwattr $C$DW$57, DW_AT_decl_file("../spi.c")
     759        .dwattr $C$DW$57, DW_AT_decl_line(0x125)
     760        .dwattr $C$DW$57, DW_AT_decl_column(0x0d)
     761        .dwattr $C$DW$57, DW_AT_TI_max_frame_size(0x04)
     762        .dwpsn  file "../spi.c",line 294,column 1,is_stmt,address ||SPI_MasterModeEnable||,isa 0
     763
     764        .dwfde $C$DW$CIE, ||SPI_MasterModeEnable||
     765$C$DW$58        .dwtag  DW_TAG_formal_parameter, DW_AT_name("spiAddr")
     766        .dwattr $C$DW$58, DW_AT_TI_symbol_name("spiAddr")
PRU Assembler Unix v2.1.2 Thu Jan 28 12:38:40 2016

Tools Copyright (c) 2012-2015 Texas Instruments Incorporated
spi.asm                                                              PAGE   15

     767        .dwattr $C$DW$58, DW_AT_type(*$C$DW$T$19)
     768        .dwattr $C$DW$58, DW_AT_location[DW_OP_regx 0x38]
     769
     770;***************************************************************
     771;* FNAME: SPI_MasterModeEnable          FR SIZE:   4           *
     772;*                                                             *
     773;* FUNCTION ENVIRONMENT                                        *
     774;*                                                             *
     775;* FUNCTION PROPERTIES                                         *
     776;*                            4 Auto,  0 SOE     *
     777;***************************************************************
     778
     779 00000000                 ||SPI_MasterModeEnable||:
     780;* --------------------------------------------------------------------------*
     781        .dwcfi  cfa_offset, 0
     782 00000000 0000000504E2E2          SUB       r2, r2, 0x04          ; [ALU_PRU] 
     783        .dwcfi  cfa_offset, 4
     784$C$DW$59        .dwtag  DW_TAG_variable, DW_AT_name("spiAddr")
     785        .dwattr $C$DW$59, DW_AT_TI_symbol_name("spiAddr")
     786        .dwattr $C$DW$59, DW_AT_type(*$C$DW$T$19)
     787        .dwattr $C$DW$59, DW_AT_location[DW_OP_breg8 0]
     788 00000004 00000010000000          NOP                             ; [ALU_PRU] 
     789 00000008 000000E100228E          SBBO      &r14, r2, 0, 4        ; [ALU_PRU] |294| spiAddr
     790        .dwpsn  file "../spi.c",line 295,column 2,is_stmt,isa 0
     791 0000000c 000000240128E0          LDI       r0, 0x0128            ; [ALU_PRU] |295| 
     792 00000010 000000F1002281          LBBO      &r1, r2, 0, 4         ; [ALU_PRU] |295| spiAddr
     793 00000014 00000000E0E1E0          ADD       r0, r1, r0            ; [ALU_PRU] |295| 
     794 00000018 000000F1002081          LBBO      &r1, r0, 0, 4         ; [ALU_PRU] |295| 
     795 0000001c 0000001D02E1E1          CLR       r1, r1, 0x00000002    ; [ALU_PRU] |295| 
     796 00000020 000000E1002081          SBBO      &r1, r0, 0, 4         ; [ALU_PRU] |295| 
     797        .dwpsn  file "../spi.c",line 296,column 1,is_stmt,isa 0
     798 00000024 0000000104E2E2          ADD       r2, r2, 0x04          ; [ALU_PRU] 
     799        .dwcfi  cfa_offset, 0
     800$C$DW$60        .dwtag  DW_TAG_TI_branch
     801        .dwattr $C$DW$60, DW_AT_low_pc(0x00)
     802        .dwattr $C$DW$60, DW_AT_TI_return
     803 00000028 00000020C30000          JMP       r3.w2                 ; [ALU_PRU] 
     804        .dwattr $C$DW$57, DW_AT_TI_end_file("../spi.c")
     805        .dwattr $C$DW$57, DW_AT_TI_end_line(0x128)
     806        .dwattr $C$DW$57, DW_AT_TI_end_column(0x01)
     807        .dwendentry
     808        .dwendtag $C$DW$57
     809
     810 00000000                         .sect   ".text:SPI_SlaveModeEnable"
     811        .clink
     812        .global ||SPI_SlaveModeEnable||
     813
     814$C$DW$61        .dwtag  DW_TAG_subprogram, DW_AT_name("SPI_SlaveModeEnable")
     815        .dwattr $C$DW$61, DW_AT_low_pc(||SPI_SlaveModeEnable||)
     816        .dwattr $C$DW$61, DW_AT_high_pc(0x00)
     817        .dwattr $C$DW$61, DW_AT_TI_symbol_name("SPI_SlaveModeEnable")
     818        .dwattr $C$DW$61, DW_AT_external
     819        .dwattr $C$DW$61, DW_AT_TI_begin_file("../spi.c")
     820        .dwattr $C$DW$61, DW_AT_TI_begin_line(0x132)
     821        .dwattr $C$DW$61, DW_AT_TI_begin_column(0x0d)
PRU Assembler Unix v2.1.2 Thu Jan 28 12:38:40 2016

Tools Copyright (c) 2012-2015 Texas Instruments Incorporated
spi.asm                                                              PAGE   16

     822        .dwattr $C$DW$61, DW_AT_decl_file("../spi.c")
     823        .dwattr $C$DW$61, DW_AT_decl_line(0x132)
     824        .dwattr $C$DW$61, DW_AT_decl_column(0x0d)
     825        .dwattr $C$DW$61, DW_AT_TI_max_frame_size(0x04)
     826        .dwpsn  file "../spi.c",line 307,column 1,is_stmt,address ||SPI_SlaveModeEnable||,isa 0
     827
     828        .dwfde $C$DW$CIE, ||SPI_SlaveModeEnable||
     829$C$DW$62        .dwtag  DW_TAG_formal_parameter, DW_AT_name("spiAddr")
     830        .dwattr $C$DW$62, DW_AT_TI_symbol_name("spiAddr")
     831        .dwattr $C$DW$62, DW_AT_type(*$C$DW$T$19)
     832        .dwattr $C$DW$62, DW_AT_location[DW_OP_regx 0x38]
     833
     834;***************************************************************
     835;* FNAME: SPI_SlaveModeEnable           FR SIZE:   4           *
     836;*                                                             *
     837;* FUNCTION ENVIRONMENT                                        *
     838;*                                                             *
     839;* FUNCTION PROPERTIES                                         *
     840;*                            4 Auto,  0 SOE     *
     841;***************************************************************
     842
     843 00000000                 ||SPI_SlaveModeEnable||:
     844;* --------------------------------------------------------------------------*
     845        .dwcfi  cfa_offset, 0
     846 00000000 0000000504E2E2          SUB       r2, r2, 0x04          ; [ALU_PRU] 
     847        .dwcfi  cfa_offset, 4
     848$C$DW$63        .dwtag  DW_TAG_variable, DW_AT_name("spiAddr")
     849        .dwattr $C$DW$63, DW_AT_TI_symbol_name("spiAddr")
     850        .dwattr $C$DW$63, DW_AT_type(*$C$DW$T$19)
     851        .dwattr $C$DW$63, DW_AT_location[DW_OP_breg8 0]
     852 00000004 00000010000000          NOP                             ; [ALU_PRU] 
     853 00000008 000000E100228E          SBBO      &r14, r2, 0, 4        ; [ALU_PRU] |307| spiAddr
     854        .dwpsn  file "../spi.c",line 308,column 2,is_stmt,isa 0
     855 0000000c 000000240128E0          LDI       r0, 0x0128            ; [ALU_PRU] |308| 
     856 00000010 000000F1002281          LBBO      &r1, r2, 0, 4         ; [ALU_PRU] |308| spiAddr
     857 00000014 00000000E0E1E0          ADD       r0, r1, r0            ; [ALU_PRU] |308| 
     858 00000018 000000F1002081          LBBO      &r1, r0, 0, 4         ; [ALU_PRU] |308| 
     859 0000001c 0000001F02E1E1          SET       r1, r1, 0x00000002    ; [ALU_PRU] |308| 
     860 00000020 000000E1002081          SBBO      &r1, r0, 0, 4         ; [ALU_PRU] |308| 
     861        .dwpsn  file "../spi.c",line 309,column 1,is_stmt,isa 0
     862 00000024 0000000104E2E2          ADD       r2, r2, 0x04          ; [ALU_PRU] 
     863        .dwcfi  cfa_offset, 0
     864$C$DW$64        .dwtag  DW_TAG_TI_branch
     865        .dwattr $C$DW$64, DW_AT_low_pc(0x00)
     866        .dwattr $C$DW$64, DW_AT_TI_return
     867 00000028 00000020C30000          JMP       r3.w2                 ; [ALU_PRU] 
     868        .dwattr $C$DW$61, DW_AT_TI_end_file("../spi.c")
     869        .dwattr $C$DW$61, DW_AT_TI_end_line(0x135)
     870        .dwattr $C$DW$61, DW_AT_TI_end_column(0x01)
     871        .dwendentry
     872        .dwendtag $C$DW$61
     873
     874 00000000                         .sect   ".text:SPI_ChannelSet"
     875        .clink
     876        .global ||SPI_ChannelSet||
PRU Assembler Unix v2.1.2 Thu Jan 28 12:38:40 2016

Tools Copyright (c) 2012-2015 Texas Instruments Incorporated
spi.asm                                                              PAGE   17

     877
     878$C$DW$65        .dwtag  DW_TAG_subprogram, DW_AT_name("SPI_ChannelSet")
     879        .dwattr $C$DW$65, DW_AT_low_pc(||SPI_ChannelSet||)
     880        .dwattr $C$DW$65, DW_AT_high_pc(0x00)
     881        .dwattr $C$DW$65, DW_AT_TI_symbol_name("SPI_ChannelSet")
     882        .dwattr $C$DW$65, DW_AT_external
     883        .dwattr $C$DW$65, DW_AT_TI_begin_file("../spi.c")
     884        .dwattr $C$DW$65, DW_AT_TI_begin_line(0x1a4)
     885        .dwattr $C$DW$65, DW_AT_TI_begin_column(0x0d)
     886        .dwattr $C$DW$65, DW_AT_decl_file("../spi.c")
     887        .dwattr $C$DW$65, DW_AT_decl_line(0x1a4)
     888        .dwattr $C$DW$65, DW_AT_decl_column(0x0d)
     889        .dwattr $C$DW$65, DW_AT_TI_max_frame_size(0x0c)
     890        .dwpsn  file "../spi.c",line 421,column 1,is_stmt,address ||SPI_ChannelSet||,isa 0
     891
     892        .dwfde $C$DW$CIE, ||SPI_ChannelSet||
     893$C$DW$66        .dwtag  DW_TAG_formal_parameter, DW_AT_name("spiAddr")
     894        .dwattr $C$DW$66, DW_AT_TI_symbol_name("spiAddr")
     895        .dwattr $C$DW$66, DW_AT_type(*$C$DW$T$19)
     896        .dwattr $C$DW$66, DW_AT_location[DW_OP_regx 0x38]
     897$C$DW$67        .dwtag  DW_TAG_formal_parameter, DW_AT_name("mode")
     898        .dwattr $C$DW$67, DW_AT_TI_symbol_name("mode")
     899        .dwattr $C$DW$67, DW_AT_type(*$C$DW$T$19)
     900        .dwattr $C$DW$67, DW_AT_location[DW_OP_regx 0x3c]
     901$C$DW$68        .dwtag  DW_TAG_formal_parameter, DW_AT_name("chNum")
     902        .dwattr $C$DW$68, DW_AT_TI_symbol_name("chNum")
     903        .dwattr $C$DW$68, DW_AT_type(*$C$DW$T$19)
     904        .dwattr $C$DW$68, DW_AT_location[DW_OP_regx 0x40]
     905
     906;***************************************************************
     907;* FNAME: SPI_ChannelSet                FR SIZE:  12           *
     908;*                                                             *
     909;* FUNCTION ENVIRONMENT                                        *
     910;*                                                             *
     911;* FUNCTION PROPERTIES                                         *
     912;*                           12 Auto,  0 SOE     *
     913;***************************************************************
     914
     915 00000000                 ||SPI_ChannelSet||:
     916;* --------------------------------------------------------------------------*
     917        .dwcfi  cfa_offset, 0
     918 00000000 000000050CE2E2          SUB       r2, r2, 0x0c          ; [ALU_PRU] 
     919        .dwcfi  cfa_offset, 12
     920$C$DW$69        .dwtag  DW_TAG_variable, DW_AT_name("spiAddr")
     921        .dwattr $C$DW$69, DW_AT_TI_symbol_name("spiAddr")
     922        .dwattr $C$DW$69, DW_AT_type(*$C$DW$T$19)
     923        .dwattr $C$DW$69, DW_AT_location[DW_OP_breg8 0]
     924 00000004 00000010000000          NOP                             ; [ALU_PRU] 
     925$C$DW$70        .dwtag  DW_TAG_variable, DW_AT_name("mode")
     926        .dwattr $C$DW$70, DW_AT_TI_symbol_name("mode")
     927        .dwattr $C$DW$70, DW_AT_type(*$C$DW$T$19)
     928        .dwattr $C$DW$70, DW_AT_location[DW_OP_breg8 4]
     929 00000008 00000010000000          NOP                             ; [ALU_PRU] 
     930$C$DW$71        .dwtag  DW_TAG_variable, DW_AT_name("chNum")
     931        .dwattr $C$DW$71, DW_AT_TI_symbol_name("chNum")
PRU Assembler Unix v2.1.2 Thu Jan 28 12:38:40 2016

Tools Copyright (c) 2012-2015 Texas Instruments Incorporated
spi.asm                                                              PAGE   18

     932        .dwattr $C$DW$71, DW_AT_type(*$C$DW$T$19)
     933        .dwattr $C$DW$71, DW_AT_location[DW_OP_breg8 8]
     934 0000000c 00000010000000          NOP                             ; [ALU_PRU] 
     935 00000010 000000E1082290          SBBO      &r16, r2, 8, 4        ; [ALU_PRU] |421| chNum
     936 00000014 000000E104228F          SBBO      &r15, r2, 4, 4        ; [ALU_PRU] |421| mode
     937 00000018 000000E100228E          SBBO      &r14, r2, 0, 4        ; [ALU_PRU] |421| spiAddr
     938        .dwpsn  file "../spi.c",line 422,column 2,is_stmt,isa 0
     939 0000001c 000000F1042280          LBBO      &r0, r2, 4, 4         ; [ALU_PRU] |422| mode
     940 00000020 0000006901E00D          QBNE      ||$C$L1||, r0, 0x01   ; [ALU_PRU] |422| 
     941;* --------------------------------------------------------------------------*
     942        .dwpsn  file "../spi.c",line 424,column 3,is_stmt,isa 0
     943 00000024 000000F1082280          LBBO      &r0, r2, 8, 4         ; [ALU_PRU] |424| chNum
     944 00000028 0000000902E0E1          LSL       r1, r0, 0x02          ; [ALU_PRU] |424| 
     945 0000002c 0000000904E0E0          LSL       r0, r0, 0x04          ; [ALU_PRU] |424| 
     946 00000030 00000000E1E0E0          ADD       r0, r0, r1            ; [ALU_PRU] |424| 
     947 00000034 000000F1002281          LBBO      &r1, r2, 0, 4         ; [ALU_PRU] |424| spiAddr
     948 00000038 00000000E0E1E1          ADD       r1, r1, r0            ; [ALU_PRU] |424| 
     949 0000003c 000000240134E0          LDI       r0, 0x0134            ; [ALU_PRU] |424| 
     950 00000040 00000000E0E1E0          ADD       r0, r1, r0            ; [ALU_PRU] |424| 
     951 00000044 000000F1002081          LBBO      &r1, r0, 0, 4         ; [ALU_PRU] |424| 
     952 00000048 0000001F00E1E1          SET       r1, r1, 0x00000000    ; [ALU_PRU] |424| 
     953 0000004c 000000E1002081          SBBO      &r1, r0, 0, 4         ; [ALU_PRU] |424| 
     954        .dwpsn  file "../spi.c",line 425,column 2,is_stmt,isa 0
     955 00000050 00000021000000!         JMP       ||$C$L2||             ; [ALU_PRU] |425| 
     956;* --------------------------------------------------------------------------*
     957 00000054                 ||$C$L1||:    
     958        .dwpsn  file "../spi.c",line 425,column 9,is_stmt,isa 0
     959 00000054 0000006900E00C          QBNE      ||$C$L2||, r0, 0x00   ; [ALU_PRU] |425| 
     960;* --------------------------------------------------------------------------*
     961        .dwpsn  file "../spi.c",line 426,column 3,is_stmt,isa 0
     962 00000058 000000F1082280          LBBO      &r0, r2, 8, 4         ; [ALU_PRU] |426| chNum
     963 0000005c 0000000902E0E1          LSL       r1, r0, 0x02          ; [ALU_PRU] |426| 
     964 00000060 0000000904E0E0          LSL       r0, r0, 0x04          ; [ALU_PRU] |426| 
     965 00000064 00000000E1E0E0          ADD       r0, r0, r1            ; [ALU_PRU] |426| 
     966 00000068 000000F1002281          LBBO      &r1, r2, 0, 4         ; [ALU_PRU] |426| spiAddr
     967 0000006c 00000000E0E1E1          ADD       r1, r1, r0            ; [ALU_PRU] |426| 
     968 00000070 000000240134E0          LDI       r0, 0x0134            ; [ALU_PRU] |426| 
     969 00000074 00000000E0E1E0          ADD       r0, r1, r0            ; [ALU_PRU] |426| 
     970 00000078 000000F1002081          LBBO      &r1, r0, 0, 4         ; [ALU_PRU] |426| 
     971 0000007c 0000001D00E1E1          CLR       r1, r1, 0x00000000    ; [ALU_PRU] |426| 
     972 00000080 000000E1002081          SBBO      &r1, r0, 0, 4         ; [ALU_PRU] |426| 
     973        .dwpsn  file "../spi.c",line 428,column 1,is_stmt,isa 0
     974;* --------------------------------------------------------------------------*
     975 00000084                 ||$C$L2||:    
     976 00000084 000000010CE2E2          ADD       r2, r2, 0x0c          ; [ALU_PRU] 
     977        .dwcfi  cfa_offset, 0
     978$C$DW$72        .dwtag  DW_TAG_TI_branch
     979        .dwattr $C$DW$72, DW_AT_low_pc(0x00)
     980        .dwattr $C$DW$72, DW_AT_TI_return
     981 00000088 00000020C30000          JMP       r3.w2                 ; [ALU_PRU] 
     982        .dwattr $C$DW$65, DW_AT_TI_end_file("../spi.c")
     983        .dwattr $C$DW$65, DW_AT_TI_end_line(0x1ac)
     984        .dwattr $C$DW$65, DW_AT_TI_end_column(0x01)
     985        .dwendentry
     986        .dwendtag $C$DW$65
PRU Assembler Unix v2.1.2 Thu Jan 28 12:38:40 2016

Tools Copyright (c) 2012-2015 Texas Instruments Incorporated
spi.asm                                                              PAGE   19

     987
     988 00000000                         .sect   ".text:SPI_Reset"
     989        .clink
     990        .global ||SPI_Reset||
     991
     992$C$DW$73        .dwtag  DW_TAG_subprogram, DW_AT_name("SPI_Reset")
     993        .dwattr $C$DW$73, DW_AT_low_pc(||SPI_Reset||)
     994        .dwattr $C$DW$73, DW_AT_high_pc(0x00)
     995        .dwattr $C$DW$73, DW_AT_TI_symbol_name("SPI_Reset")
     996        .dwattr $C$DW$73, DW_AT_external
     997        .dwattr $C$DW$73, DW_AT_TI_begin_file("../spi.c")
     998        .dwattr $C$DW$73, DW_AT_TI_begin_line(0x1b8)
     999        .dwattr $C$DW$73, DW_AT_TI_begin_column(0x0d)
    1000        .dwattr $C$DW$73, DW_AT_decl_file("../spi.c")
    1001        .dwattr $C$DW$73, DW_AT_decl_line(0x1b8)
    1002        .dwattr $C$DW$73, DW_AT_decl_column(0x0d)
    1003        .dwattr $C$DW$73, DW_AT_TI_max_frame_size(0x04)
    1004        .dwpsn  file "../spi.c",line 441,column 1,is_stmt,address ||SPI_Reset||,isa 0
    1005
    1006        .dwfde $C$DW$CIE, ||SPI_Reset||
    1007$C$DW$74        .dwtag  DW_TAG_formal_parameter, DW_AT_name("spiAddr")
    1008        .dwattr $C$DW$74, DW_AT_TI_symbol_name("spiAddr")
    1009        .dwattr $C$DW$74, DW_AT_type(*$C$DW$T$19)
    1010        .dwattr $C$DW$74, DW_AT_location[DW_OP_regx 0x38]
    1011
    1012;***************************************************************
    1013;* FNAME: SPI_Reset                     FR SIZE:   4           *
    1014;*                                                             *
    1015;* FUNCTION ENVIRONMENT                                        *
    1016;*                                                             *
    1017;* FUNCTION PROPERTIES                                         *
    1018;*                            4 Auto,  0 SOE     *
    1019;***************************************************************
    1020
    1021 00000000                 ||SPI_Reset||:
    1022;* --------------------------------------------------------------------------*
    1023        .dwcfi  cfa_offset, 0
    1024 00000000 0000000504E2E2          SUB       r2, r2, 0x04          ; [ALU_PRU] 
    1025        .dwcfi  cfa_offset, 4
    1026$C$DW$75        .dwtag  DW_TAG_variable, DW_AT_name("spiAddr")
    1027        .dwattr $C$DW$75, DW_AT_TI_symbol_name("spiAddr")
    1028        .dwattr $C$DW$75, DW_AT_type(*$C$DW$T$19)
    1029        .dwattr $C$DW$75, DW_AT_location[DW_OP_breg8 0]
    1030 00000004 00000010000000          NOP                             ; [ALU_PRU] 
    1031 00000008 000000E100228E          SBBO      &r14, r2, 0, 4        ; [ALU_PRU] |441| spiAddr
    1032        .dwpsn  file "../spi.c",line 442,column 2,is_stmt,isa 0
    1033 0000000c 000000240110E0          LDI       r0, 0x0110            ; [ALU_PRU] |442| 
    1034 00000010 000000F1002281          LBBO      &r1, r2, 0, 4         ; [ALU_PRU] |442| spiAddr
    1035 00000014 00000000E0E1E0          ADD       r0, r1, r0            ; [ALU_PRU] |442| 
    1036 00000018 000000F1002081          LBBO      &r1, r0, 0, 4         ; [ALU_PRU] |442| 
    1037 0000001c 0000001F01E1E1          SET       r1, r1, 0x00000001    ; [ALU_PRU] |442| 
    1038 00000020 000000E1002081          SBBO      &r1, r0, 0, 4         ; [ALU_PRU] |442| 
    1039        .dwpsn  file "../spi.c",line 443,column 2,is_stmt,isa 0
    1040 00000024 00000024011481          LDI       r1.w0, 0x0114         ; [ALU_PRU] |443| 
    1041;* --------------------------------------------------------------------------*
PRU Assembler Unix v2.1.2 Thu Jan 28 12:38:40 2016

Tools Copyright (c) 2012-2015 Texas Instruments Incorporated
spi.asm                                                              PAGE   20

    1042;*   BEGIN LOOP ||$C$L3||
    1043;*
    1044;*   Loop source line                : 443
    1045;*   Loop closing brace source line  : 443
    1046;*   Known Minimum Trip Count        : 1
    1047;*   Known Maximum Trip Count        : 4294967295
    1048;*   Known Max Trip Count Factor     : 1
    1049;* --------------------------------------------------------------------------*
    1050 00000028                 ||$C$L3||:    
    1051        .dwpsn  file "../spi.c",line 443,column 8,is_stmt,isa 0
    1052 00000028 000000F1002280          LBBO      &r0, r2, 0, 4         ; [ALU_PRU] |443| spiAddr
    1053 0000002c 000000F0812080          LBBO      &r0, r0, r1.w0, 4     ; [ALU_PRU] |443| 
    1054 00000030 000000CF00E0FE          QBBC      ||$C$L3||, r0, 0x00   ; [ALU_PRU] |443| 
    1055;* --------------------------------------------------------------------------*
    1056        .dwpsn  file "../spi.c",line 444,column 1,is_stmt,isa 0
    1057 00000034 0000000104E2E2          ADD       r2, r2, 0x04          ; [ALU_PRU] 
    1058        .dwcfi  cfa_offset, 0
    1059$C$DW$76        .dwtag  DW_TAG_TI_branch
    1060        .dwattr $C$DW$76, DW_AT_low_pc(0x00)
    1061        .dwattr $C$DW$76, DW_AT_TI_return
    1062 00000038 00000020C30000          JMP       r3.w2                 ; [ALU_PRU] 
    1063        .dwattr $C$DW$73, DW_AT_TI_end_file("../spi.c")
    1064        .dwattr $C$DW$73, DW_AT_TI_end_line(0x1bc)
    1065        .dwattr $C$DW$73, DW_AT_TI_end_column(0x01)
    1066        .dwendentry
    1067        .dwendtag $C$DW$73
    1068
    1069 00000000                         .sect   ".text:SPI_TurboModeSet"
    1070        .clink
    1071        .global ||SPI_TurboModeSet||
    1072
    1073$C$DW$77        .dwtag  DW_TAG_subprogram, DW_AT_name("SPI_TurboModeSet")
    1074        .dwattr $C$DW$77, DW_AT_low_pc(||SPI_TurboModeSet||)
    1075        .dwattr $C$DW$77, DW_AT_high_pc(0x00)
    1076        .dwattr $C$DW$77, DW_AT_TI_symbol_name("SPI_TurboModeSet")
    1077        .dwattr $C$DW$77, DW_AT_external
    1078        .dwattr $C$DW$77, DW_AT_TI_begin_file("../spi.c")
    1079        .dwattr $C$DW$77, DW_AT_TI_begin_line(0x1c9)
    1080        .dwattr $C$DW$77, DW_AT_TI_begin_column(0x0d)
    1081        .dwattr $C$DW$77, DW_AT_decl_file("../spi.c")
    1082        .dwattr $C$DW$77, DW_AT_decl_line(0x1c9)
    1083        .dwattr $C$DW$77, DW_AT_decl_column(0x0d)
    1084        .dwattr $C$DW$77, DW_AT_TI_max_frame_size(0x0c)
    1085        .dwpsn  file "../spi.c",line 458,column 1,is_stmt,address ||SPI_TurboModeSet||,isa 0
    1086
    1087        .dwfde $C$DW$CIE, ||SPI_TurboModeSet||
    1088$C$DW$78        .dwtag  DW_TAG_formal_parameter, DW_AT_name("spiAddr")
    1089        .dwattr $C$DW$78, DW_AT_TI_symbol_name("spiAddr")
    1090        .dwattr $C$DW$78, DW_AT_type(*$C$DW$T$19)
    1091        .dwattr $C$DW$78, DW_AT_location[DW_OP_regx 0x38]
    1092$C$DW$79        .dwtag  DW_TAG_formal_parameter, DW_AT_name("mode")
    1093        .dwattr $C$DW$79, DW_AT_TI_symbol_name("mode")
    1094        .dwattr $C$DW$79, DW_AT_type(*$C$DW$T$19)
    1095        .dwattr $C$DW$79, DW_AT_location[DW_OP_regx 0x3c]
    1096$C$DW$80        .dwtag  DW_TAG_formal_parameter, DW_AT_name("chNum")
PRU Assembler Unix v2.1.2 Thu Jan 28 12:38:40 2016

Tools Copyright (c) 2012-2015 Texas Instruments Incorporated
spi.asm                                                              PAGE   21

    1097        .dwattr $C$DW$80, DW_AT_TI_symbol_name("chNum")
    1098        .dwattr $C$DW$80, DW_AT_type(*$C$DW$T$19)
    1099        .dwattr $C$DW$80, DW_AT_location[DW_OP_regx 0x40]
    1100
    1101;***************************************************************
    1102;* FNAME: SPI_TurboModeSet              FR SIZE:  12           *
    1103;*                                                             *
    1104;* FUNCTION ENVIRONMENT                                        *
    1105;*                                                             *
    1106;* FUNCTION PROPERTIES                                         *
    1107;*                           12 Auto,  0 SOE     *
    1108;***************************************************************
    1109
    1110 00000000                 ||SPI_TurboModeSet||:
    1111;* --------------------------------------------------------------------------*
    1112        .dwcfi  cfa_offset, 0
    1113 00000000 000000050CE2E2          SUB       r2, r2, 0x0c          ; [ALU_PRU] 
    1114        .dwcfi  cfa_offset, 12
    1115$C$DW$81        .dwtag  DW_TAG_variable, DW_AT_name("spiAddr")
    1116        .dwattr $C$DW$81, DW_AT_TI_symbol_name("spiAddr")
    1117        .dwattr $C$DW$81, DW_AT_type(*$C$DW$T$19)
    1118        .dwattr $C$DW$81, DW_AT_location[DW_OP_breg8 0]
    1119 00000004 00000010000000          NOP                             ; [ALU_PRU] 
    1120$C$DW$82        .dwtag  DW_TAG_variable, DW_AT_name("mode")
    1121        .dwattr $C$DW$82, DW_AT_TI_symbol_name("mode")
    1122        .dwattr $C$DW$82, DW_AT_type(*$C$DW$T$19)
    1123        .dwattr $C$DW$82, DW_AT_location[DW_OP_breg8 4]
    1124 00000008 00000010000000          NOP                             ; [ALU_PRU] 
    1125$C$DW$83        .dwtag  DW_TAG_variable, DW_AT_name("chNum")
    1126        .dwattr $C$DW$83, DW_AT_TI_symbol_name("chNum")
    1127        .dwattr $C$DW$83, DW_AT_type(*$C$DW$T$19)
    1128        .dwattr $C$DW$83, DW_AT_location[DW_OP_breg8 8]
    1129 0000000c 00000010000000          NOP                             ; [ALU_PRU] 
    1130 00000010 000000E1082290          SBBO      &r16, r2, 8, 4        ; [ALU_PRU] |458| chNum
    1131 00000014 000000E104228F          SBBO      &r15, r2, 4, 4        ; [ALU_PRU] |458| mode
    1132 00000018 000000E100228E          SBBO      &r14, r2, 0, 4        ; [ALU_PRU] |458| spiAddr
    1133        .dwpsn  file "../spi.c",line 459,column 2,is_stmt,isa 0
    1134 0000001c 000000F1042280          LBBO      &r0, r2, 4, 4         ; [ALU_PRU] |459| mode
    1135 00000020 0000006901E00D          QBNE      ||$C$L4||, r0, 0x01   ; [ALU_PRU] |459| 
    1136;* --------------------------------------------------------------------------*
    1137        .dwpsn  file "../spi.c",line 461,column 3,is_stmt,isa 0
    1138 00000024 000000F1082280          LBBO      &r0, r2, 8, 4         ; [ALU_PRU] |461| chNum
    1139 00000028 0000000902E0E1          LSL       r1, r0, 0x02          ; [ALU_PRU] |461| 
    1140 0000002c 0000000904E0E0          LSL       r0, r0, 0x04          ; [ALU_PRU] |461| 
    1141 00000030 00000000E1E0E0          ADD       r0, r0, r1            ; [ALU_PRU] |461| 
    1142 00000034 000000F1002281          LBBO      &r1, r2, 0, 4         ; [ALU_PRU] |461| spiAddr
    1143 00000038 00000000E0E1E1          ADD       r1, r1, r0            ; [ALU_PRU] |461| 
    1144 0000003c 00000024012CE0          LDI       r0, 0x012c            ; [ALU_PRU] |461| 
    1145 00000040 00000000E0E1E0          ADD       r0, r1, r0            ; [ALU_PRU] |461| 
    1146 00000044 000000F1002081          LBBO      &r1, r0, 0, 4         ; [ALU_PRU] |461| 
    1147 00000048 0000001F13E1E1          SET       r1, r1, 0x00000013    ; [ALU_PRU] |461| 
    1148 0000004c 000000E1002081          SBBO      &r1, r0, 0, 4         ; [ALU_PRU] |461| 
    1149        .dwpsn  file "../spi.c",line 462,column 2,is_stmt,isa 0
    1150 00000050 00000021000000!         JMP       ||$C$L5||             ; [ALU_PRU] |462| 
    1151;* --------------------------------------------------------------------------*
PRU Assembler Unix v2.1.2 Thu Jan 28 12:38:40 2016

Tools Copyright (c) 2012-2015 Texas Instruments Incorporated
spi.asm                                                              PAGE   22

    1152 00000054                 ||$C$L4||:    
    1153        .dwpsn  file "../spi.c",line 462,column 9,is_stmt,isa 0
    1154 00000054 0000006900E00C          QBNE      ||$C$L5||, r0, 0x00   ; [ALU_PRU] |462| 
    1155;* --------------------------------------------------------------------------*
    1156        .dwpsn  file "../spi.c",line 463,column 3,is_stmt,isa 0
    1157 00000058 000000F1082280          LBBO      &r0, r2, 8, 4         ; [ALU_PRU] |463| chNum
    1158 0000005c 0000000902E0E1          LSL       r1, r0, 0x02          ; [ALU_PRU] |463| 
    1159 00000060 0000000904E0E0          LSL       r0, r0, 0x04          ; [ALU_PRU] |463| 
    1160 00000064 00000000E1E0E0          ADD       r0, r0, r1            ; [ALU_PRU] |463| 
    1161 00000068 000000F1002281          LBBO      &r1, r2, 0, 4         ; [ALU_PRU] |463| spiAddr
    1162 0000006c 00000000E0E1E1          ADD       r1, r1, r0            ; [ALU_PRU] |463| 
    1163 00000070 00000024012CE0          LDI       r0, 0x012c            ; [ALU_PRU] |463| 
    1164 00000074 00000000E0E1E0          ADD       r0, r1, r0            ; [ALU_PRU] |463| 
    1165 00000078 000000F1002081          LBBO      &r1, r0, 0, 4         ; [ALU_PRU] |463| 
    1166 0000007c 0000001D13E1E1          CLR       r1, r1, 0x00000013    ; [ALU_PRU] |463| 
    1167 00000080 000000E1002081          SBBO      &r1, r0, 0, 4         ; [ALU_PRU] |463| 
    1168        .dwpsn  file "../spi.c",line 465,column 1,is_stmt,isa 0
    1169;* --------------------------------------------------------------------------*
    1170 00000084                 ||$C$L5||:    
    1171 00000084 000000010CE2E2          ADD       r2, r2, 0x0c          ; [ALU_PRU] 
    1172        .dwcfi  cfa_offset, 0
    1173$C$DW$84        .dwtag  DW_TAG_TI_branch
    1174        .dwattr $C$DW$84, DW_AT_low_pc(0x00)
    1175        .dwattr $C$DW$84, DW_AT_TI_return
    1176 00000088 00000020C30000          JMP       r3.w2                 ; [ALU_PRU] 
    1177        .dwattr $C$DW$77, DW_AT_TI_end_file("../spi.c")
    1178        .dwattr $C$DW$77, DW_AT_TI_end_line(0x1d1)
    1179        .dwattr $C$DW$77, DW_AT_TI_end_column(0x01)
    1180        .dwendentry
    1181        .dwendtag $C$DW$77
    1182
    1183 00000000                         .sect   ".text:SPI_DataPinDirectionConfig"
    1184        .clink
    1185        .global ||SPI_DataPinDirectionConfig||
    1186
    1187$C$DW$85        .dwtag  DW_TAG_subprogram, DW_AT_name("SPI_DataPinDirectionConfig")
    1188        .dwattr $C$DW$85, DW_AT_low_pc(||SPI_DataPinDirectionConfig||)
    1189        .dwattr $C$DW$85, DW_AT_high_pc(0x00)
    1190        .dwattr $C$DW$85, DW_AT_TI_symbol_name("SPI_DataPinDirectionConfig")
    1191        .dwattr $C$DW$85, DW_AT_external
    1192        .dwattr $C$DW$85, DW_AT_TI_begin_file("../spi.c")
    1193        .dwattr $C$DW$85, DW_AT_TI_begin_line(0x1dd)
    1194        .dwattr $C$DW$85, DW_AT_TI_begin_column(0x0d)
    1195        .dwattr $C$DW$85, DW_AT_decl_file("../spi.c")
    1196        .dwattr $C$DW$85, DW_AT_decl_line(0x1dd)
    1197        .dwattr $C$DW$85, DW_AT_decl_column(0x0d)
    1198        .dwattr $C$DW$85, DW_AT_TI_max_frame_size(0x08)
    1199        .dwpsn  file "../spi.c",line 478,column 1,is_stmt,address ||SPI_DataPinDirectionConfig||,isa 0
    1200
    1201        .dwfde $C$DW$CIE, ||SPI_DataPinDirectionConfig||
    1202$C$DW$86        .dwtag  DW_TAG_formal_parameter, DW_AT_name("spiAddr")
    1203        .dwattr $C$DW$86, DW_AT_TI_symbol_name("spiAddr")
    1204        .dwattr $C$DW$86, DW_AT_type(*$C$DW$T$19)
    1205        .dwattr $C$DW$86, DW_AT_location[DW_OP_regx 0x38]
    1206$C$DW$87        .dwtag  DW_TAG_formal_parameter, DW_AT_name("datDirection")
PRU Assembler Unix v2.1.2 Thu Jan 28 12:38:40 2016

Tools Copyright (c) 2012-2015 Texas Instruments Incorporated
spi.asm                                                              PAGE   23

    1207        .dwattr $C$DW$87, DW_AT_TI_symbol_name("datDirection")
    1208        .dwattr $C$DW$87, DW_AT_type(*$C$DW$T$19)
    1209        .dwattr $C$DW$87, DW_AT_location[DW_OP_regx 0x3c]
    1210
    1211;***************************************************************
    1212;* FNAME: SPI_DataPinDirectionConfig    FR SIZE:   8           *
    1213;*                                                             *
    1214;* FUNCTION ENVIRONMENT                                        *
    1215;*                                                             *
    1216;* FUNCTION PROPERTIES                                         *
    1217;*                            8 Auto,  0 SOE     *
    1218;***************************************************************
    1219
    1220 00000000                 ||SPI_DataPinDirectionConfig||:
    1221;* --------------------------------------------------------------------------*
    1222        .dwcfi  cfa_offset, 0
    1223 00000000 0000000508E2E2          SUB       r2, r2, 0x08          ; [ALU_PRU] 
    1224        .dwcfi  cfa_offset, 8
    1225$C$DW$88        .dwtag  DW_TAG_variable, DW_AT_name("spiAddr")
    1226        .dwattr $C$DW$88, DW_AT_TI_symbol_name("spiAddr")
    1227        .dwattr $C$DW$88, DW_AT_type(*$C$DW$T$19)
    1228        .dwattr $C$DW$88, DW_AT_location[DW_OP_breg8 0]
    1229 00000004 00000010000000          NOP                             ; [ALU_PRU] 
    1230$C$DW$89        .dwtag  DW_TAG_variable, DW_AT_name("datDirection")
    1231        .dwattr $C$DW$89, DW_AT_TI_symbol_name("datDirection")
    1232        .dwattr $C$DW$89, DW_AT_type(*$C$DW$T$19)
    1233        .dwattr $C$DW$89, DW_AT_location[DW_OP_breg8 4]
    1234 00000008 00000010000000          NOP                             ; [ALU_PRU] 
    1235 0000000c 000000E104228F          SBBO      &r15, r2, 4, 4        ; [ALU_PRU] |478| datDirection
    1236 00000010 000000E100228E          SBBO      &r14, r2, 0, 4        ; [ALU_PRU] |478| spiAddr
    1237        .dwpsn  file "../spi.c",line 479,column 2,is_stmt,isa 0
    1238 00000014 000000240124E0          LDI       r0, 0x0124            ; [ALU_PRU] |479| 
    1239 00000018 000000F1002281          LBBO      &r1, r2, 0, 4         ; [ALU_PRU] |479| spiAddr
    1240 0000001c 00000000E0E1E0          ADD       r0, r1, r0            ; [ALU_PRU] |479| 
    1241 00000020 FCFF8124FFFFC1          LDI32     r1, 0xfffffcff        ; [ALU_PRU] |479| 
         00000027 00000000004024 
    1242 00000028 000000F100208E          LBBO      &r14, r0, 0, 4        ; [ALU_PRU] |479| 
    1243 0000002c 00000010E1EEE1          AND       r1, r14, r1           ; [ALU_PRU] |479| 
    1244 00000030 000000E1002081          SBBO      &r1, r0, 0, 4         ; [ALU_PRU] |479| 
    1245        .dwpsn  file "../spi.c",line 480,column 2,is_stmt,isa 0
    1246 00000034 000000240124E0          LDI       r0, 0x0124            ; [ALU_PRU] |480| 
    1247 00000038 000000F1002281          LBBO      &r1, r2, 0, 4         ; [ALU_PRU] |480| spiAddr
    1248 0000003c 000000F104228E          LBBO      &r14, r2, 4, 4        ; [ALU_PRU] |480| datDirection
    1249 00000040 00000000E0E1E0          ADD       r0, r1, r0            ; [ALU_PRU] |480| 
    1250 00000044 000000240300E1          LDI       r1, 0x0300            ; [ALU_PRU] |480| 
    1251 00000048 00000010E1EEE1          AND       r1, r14, r1           ; [ALU_PRU] |480| 
    1252 0000004c 000000F100208E          LBBO      &r14, r0, 0, 4        ; [ALU_PRU] |480| 
    1253 00000050 00000012E1EEE1          OR        r1, r14, r1           ; [ALU_PRU] |480| 
    1254 00000054 000000E1002081          SBBO      &r1, r0, 0, 4         ; [ALU_PRU] |480| 
    1255        .dwpsn  file "../spi.c",line 481,column 1,is_stmt,isa 0
    1256 00000058 0000000108E2E2          ADD       r2, r2, 0x08          ; [ALU_PRU] 
    1257        .dwcfi  cfa_offset, 0
    1258$C$DW$90        .dwtag  DW_TAG_TI_branch
    1259        .dwattr $C$DW$90, DW_AT_low_pc(0x00)
    1260        .dwattr $C$DW$90, DW_AT_TI_return
PRU Assembler Unix v2.1.2 Thu Jan 28 12:38:40 2016

Tools Copyright (c) 2012-2015 Texas Instruments Incorporated
spi.asm                                                              PAGE   24

    1261 0000005c 00000020C30000          JMP       r3.w2                 ; [ALU_PRU] 
    1262        .dwattr $C$DW$85, DW_AT_TI_end_file("../spi.c")
    1263        .dwattr $C$DW$85, DW_AT_TI_end_line(0x1e1)
    1264        .dwattr $C$DW$85, DW_AT_TI_end_column(0x01)
    1265        .dwendentry
    1266        .dwendtag $C$DW$85
    1267
    1268 00000000                         .sect   ".text:SPI_TxFIFOConfig"
    1269        .clink
    1270        .global ||SPI_TxFIFOConfig||
    1271
    1272$C$DW$91        .dwtag  DW_TAG_subprogram, DW_AT_name("SPI_TxFIFOConfig")
    1273        .dwattr $C$DW$91, DW_AT_low_pc(||SPI_TxFIFOConfig||)
    1274        .dwattr $C$DW$91, DW_AT_high_pc(0x00)
    1275        .dwattr $C$DW$91, DW_AT_TI_symbol_name("SPI_TxFIFOConfig")
    1276        .dwattr $C$DW$91, DW_AT_external
    1277        .dwattr $C$DW$91, DW_AT_TI_begin_file("../spi.c")
    1278        .dwattr $C$DW$91, DW_AT_TI_begin_line(0x1ee)
    1279        .dwattr $C$DW$91, DW_AT_TI_begin_column(0x0d)
    1280        .dwattr $C$DW$91, DW_AT_decl_file("../spi.c")
    1281        .dwattr $C$DW$91, DW_AT_decl_line(0x1ee)
    1282        .dwattr $C$DW$91, DW_AT_decl_column(0x0d)
    1283        .dwattr $C$DW$91, DW_AT_TI_max_frame_size(0x0c)
    1284        .dwpsn  file "../spi.c",line 495,column 1,is_stmt,address ||SPI_TxFIFOConfig||,isa 0
    1285
    1286        .dwfde $C$DW$CIE, ||SPI_TxFIFOConfig||
    1287$C$DW$92        .dwtag  DW_TAG_formal_parameter, DW_AT_name("spiAddr")
    1288        .dwattr $C$DW$92, DW_AT_TI_symbol_name("spiAddr")
    1289        .dwattr $C$DW$92, DW_AT_type(*$C$DW$T$19)
    1290        .dwattr $C$DW$92, DW_AT_location[DW_OP_regx 0x38]
    1291$C$DW$93        .dwtag  DW_TAG_formal_parameter, DW_AT_name("txFifo")
    1292        .dwattr $C$DW$93, DW_AT_TI_symbol_name("txFifo")
    1293        .dwattr $C$DW$93, DW_AT_type(*$C$DW$T$19)
    1294        .dwattr $C$DW$93, DW_AT_location[DW_OP_regx 0x3c]
    1295$C$DW$94        .dwtag  DW_TAG_formal_parameter, DW_AT_name("chNum")
    1296        .dwattr $C$DW$94, DW_AT_TI_symbol_name("chNum")
    1297        .dwattr $C$DW$94, DW_AT_type(*$C$DW$T$19)
    1298        .dwattr $C$DW$94, DW_AT_location[DW_OP_regx 0x40]
    1299
    1300;***************************************************************
    1301;* FNAME: SPI_TxFIFOConfig              FR SIZE:  12           *
    1302;*                                                             *
    1303;* FUNCTION ENVIRONMENT                                        *
    1304;*                                                             *
    1305;* FUNCTION PROPERTIES                                         *
    1306;*                           12 Auto,  0 SOE     *
    1307;***************************************************************
    1308
    1309 00000000                 ||SPI_TxFIFOConfig||:
    1310;* --------------------------------------------------------------------------*
    1311        .dwcfi  cfa_offset, 0
    1312 00000000 000000050CE2E2          SUB       r2, r2, 0x0c          ; [ALU_PRU] 
    1313        .dwcfi  cfa_offset, 12
    1314$C$DW$95        .dwtag  DW_TAG_variable, DW_AT_name("spiAddr")
    1315        .dwattr $C$DW$95, DW_AT_TI_symbol_name("spiAddr")
PRU Assembler Unix v2.1.2 Thu Jan 28 12:38:40 2016

Tools Copyright (c) 2012-2015 Texas Instruments Incorporated
spi.asm                                                              PAGE   25

    1316        .dwattr $C$DW$95, DW_AT_type(*$C$DW$T$19)
    1317        .dwattr $C$DW$95, DW_AT_location[DW_OP_breg8 0]
    1318 00000004 00000010000000          NOP                             ; [ALU_PRU] 
    1319$C$DW$96        .dwtag  DW_TAG_variable, DW_AT_name("txFifo")
    1320        .dwattr $C$DW$96, DW_AT_TI_symbol_name("txFifo")
    1321        .dwattr $C$DW$96, DW_AT_type(*$C$DW$T$19)
    1322        .dwattr $C$DW$96, DW_AT_location[DW_OP_breg8 4]
    1323 00000008 00000010000000          NOP                             ; [ALU_PRU] 
    1324$C$DW$97        .dwtag  DW_TAG_variable, DW_AT_name("chNum")
    1325        .dwattr $C$DW$97, DW_AT_TI_symbol_name("chNum")
    1326        .dwattr $C$DW$97, DW_AT_type(*$C$DW$T$19)
    1327        .dwattr $C$DW$97, DW_AT_location[DW_OP_breg8 8]
    1328 0000000c 00000010000000          NOP                             ; [ALU_PRU] 
    1329 00000010 000000E1082290          SBBO      &r16, r2, 8, 4        ; [ALU_PRU] |495| chNum
    1330 00000014 000000E104228F          SBBO      &r15, r2, 4, 4        ; [ALU_PRU] |495| txFifo
    1331 00000018 000000E100228E          SBBO      &r14, r2, 0, 4        ; [ALU_PRU] |495| spiAddr
    1332        .dwpsn  file "../spi.c",line 496,column 2,is_stmt,isa 0
    1333 0000001c 000000F1082280          LBBO      &r0, r2, 8, 4         ; [ALU_PRU] |496| chNum
    1334 00000020 0000000902E0E1          LSL       r1, r0, 0x02          ; [ALU_PRU] |496| 
    1335 00000024 0000000904E0E0          LSL       r0, r0, 0x04          ; [ALU_PRU] |496| 
    1336 00000028 00000000E1E0E0          ADD       r0, r0, r1            ; [ALU_PRU] |496| 
    1337 0000002c 000000F1002281          LBBO      &r1, r2, 0, 4         ; [ALU_PRU] |496| spiAddr
    1338 00000030 00000000E0E1E1          ADD       r1, r1, r0            ; [ALU_PRU] |496| 
    1339 00000034 00000024012CE0          LDI       r0, 0x012c            ; [ALU_PRU] |496| 
    1340 00000038 00000000E0E1E0          ADD       r0, r1, r0            ; [ALU_PRU] |496| 
    1341 0000003c 000000F1002081          LBBO      &r1, r0, 0, 4         ; [ALU_PRU] |496| 
    1342 00000040 0000001D1BE1E1          CLR       r1, r1, 0x0000001b    ; [ALU_PRU] |496| 
    1343 00000044 000000E1002081          SBBO      &r1, r0, 0, 4         ; [ALU_PRU] |496| 
    1344        .dwpsn  file "../spi.c",line 497,column 2,is_stmt,isa 0
    1345 00000048 000000F104228E          LBBO      &r14, r2, 4, 4        ; [ALU_PRU] |497| txFifo
    1346 0000004c 000000F1082280          LBBO      &r0, r2, 8, 4         ; [ALU_PRU] |497| chNum
    1347 00000050 0000000902E0E1          LSL       r1, r0, 0x02          ; [ALU_PRU] |497| 
    1348 00000054 0000000904E0E0          LSL       r0, r0, 0x04          ; [ALU_PRU] |497| 
    1349 00000058 00000000E1E0E0          ADD       r0, r0, r1            ; [ALU_PRU] |497| 
    1350 0000005c 000000F1002281          LBBO      &r1, r2, 0, 4         ; [ALU_PRU] |497| spiAddr
    1351 00000060 00000000E0E1E1          ADD       r1, r1, r0            ; [ALU_PRU] |497| 
    1352 00000064 00000024012CE0          LDI       r0, 0x012c            ; [ALU_PRU] |497| 
    1353 00000068 00000000E0E1E0          ADD       r0, r1, r0            ; [ALU_PRU] |497| 
    1354 0000006c 000081240800C1          LDI32     r1, 0x08000000        ; [ALU_PRU] |497| 
         00000073 00000000004024 
    1355 00000074 00000010E1EEE1          AND       r1, r14, r1           ; [ALU_PRU] |497| 
    1356 00000078 000000F100208E          LBBO      &r14, r0, 0, 4        ; [ALU_PRU] |497| 
    1357 0000007c 00000012E1EEE1          OR        r1, r14, r1           ; [ALU_PRU] |497| 
    1358 00000080 000000E1002081          SBBO      &r1, r0, 0, 4         ; [ALU_PRU] |497| 
    1359        .dwpsn  file "../spi.c",line 498,column 1,is_stmt,isa 0
    1360 00000084 000000010CE2E2          ADD       r2, r2, 0x0c          ; [ALU_PRU] 
    1361        .dwcfi  cfa_offset, 0
    1362$C$DW$98        .dwtag  DW_TAG_TI_branch
    1363        .dwattr $C$DW$98, DW_AT_low_pc(0x00)
    1364        .dwattr $C$DW$98, DW_AT_TI_return
    1365 00000088 00000020C30000          JMP       r3.w2                 ; [ALU_PRU] 
    1366        .dwattr $C$DW$91, DW_AT_TI_end_file("../spi.c")
    1367        .dwattr $C$DW$91, DW_AT_TI_end_line(0x1f2)
    1368        .dwattr $C$DW$91, DW_AT_TI_end_column(0x01)
    1369        .dwendentry
PRU Assembler Unix v2.1.2 Thu Jan 28 12:38:40 2016

Tools Copyright (c) 2012-2015 Texas Instruments Incorporated
spi.asm                                                              PAGE   26

    1370        .dwendtag $C$DW$91
    1371
    1372 00000000                         .sect   ".text:SPI_RxFIFOConfig"
    1373        .clink
    1374        .global ||SPI_RxFIFOConfig||
    1375
    1376$C$DW$99        .dwtag  DW_TAG_subprogram, DW_AT_name("SPI_RxFIFOConfig")
    1377        .dwattr $C$DW$99, DW_AT_low_pc(||SPI_RxFIFOConfig||)
    1378        .dwattr $C$DW$99, DW_AT_high_pc(0x00)
    1379        .dwattr $C$DW$99, DW_AT_TI_symbol_name("SPI_RxFIFOConfig")
    1380        .dwattr $C$DW$99, DW_AT_external
    1381        .dwattr $C$DW$99, DW_AT_TI_begin_file("../spi.c")
    1382        .dwattr $C$DW$99, DW_AT_TI_begin_line(0x1ff)
    1383        .dwattr $C$DW$99, DW_AT_TI_begin_column(0x0d)
    1384        .dwattr $C$DW$99, DW_AT_decl_file("../spi.c")
    1385        .dwattr $C$DW$99, DW_AT_decl_line(0x1ff)
    1386        .dwattr $C$DW$99, DW_AT_decl_column(0x0d)
    1387        .dwattr $C$DW$99, DW_AT_TI_max_frame_size(0x0c)
    1388        .dwpsn  file "../spi.c",line 512,column 1,is_stmt,address ||SPI_RxFIFOConfig||,isa 0
    1389
    1390        .dwfde $C$DW$CIE, ||SPI_RxFIFOConfig||
    1391$C$DW$100       .dwtag  DW_TAG_formal_parameter, DW_AT_name("spiAddr")
    1392        .dwattr $C$DW$100, DW_AT_TI_symbol_name("spiAddr")
    1393        .dwattr $C$DW$100, DW_AT_type(*$C$DW$T$19)
    1394        .dwattr $C$DW$100, DW_AT_location[DW_OP_regx 0x38]
    1395$C$DW$101       .dwtag  DW_TAG_formal_parameter, DW_AT_name("rxFifo")
    1396        .dwattr $C$DW$101, DW_AT_TI_symbol_name("rxFifo")
    1397        .dwattr $C$DW$101, DW_AT_type(*$C$DW$T$19)
    1398        .dwattr $C$DW$101, DW_AT_location[DW_OP_regx 0x3c]
    1399$C$DW$102       .dwtag  DW_TAG_formal_parameter, DW_AT_name("chNum")
    1400        .dwattr $C$DW$102, DW_AT_TI_symbol_name("chNum")
    1401        .dwattr $C$DW$102, DW_AT_type(*$C$DW$T$19)
    1402        .dwattr $C$DW$102, DW_AT_location[DW_OP_regx 0x40]
    1403
    1404;***************************************************************
    1405;* FNAME: SPI_RxFIFOConfig              FR SIZE:  12           *
    1406;*                                                             *
    1407;* FUNCTION ENVIRONMENT                                        *
    1408;*                                                             *
    1409;* FUNCTION PROPERTIES                                         *
    1410;*                           12 Auto,  0 SOE     *
    1411;***************************************************************
    1412
    1413 00000000                 ||SPI_RxFIFOConfig||:
    1414;* --------------------------------------------------------------------------*
    1415        .dwcfi  cfa_offset, 0
    1416 00000000 000000050CE2E2          SUB       r2, r2, 0x0c          ; [ALU_PRU] 
    1417        .dwcfi  cfa_offset, 12
    1418$C$DW$103       .dwtag  DW_TAG_variable, DW_AT_name("spiAddr")
    1419        .dwattr $C$DW$103, DW_AT_TI_symbol_name("spiAddr")
    1420        .dwattr $C$DW$103, DW_AT_type(*$C$DW$T$19)
    1421        .dwattr $C$DW$103, DW_AT_location[DW_OP_breg8 0]
    1422 00000004 00000010000000          NOP                             ; [ALU_PRU] 
    1423$C$DW$104       .dwtag  DW_TAG_variable, DW_AT_name("rxFifo")
    1424        .dwattr $C$DW$104, DW_AT_TI_symbol_name("rxFifo")
PRU Assembler Unix v2.1.2 Thu Jan 28 12:38:40 2016

Tools Copyright (c) 2012-2015 Texas Instruments Incorporated
spi.asm                                                              PAGE   27

    1425        .dwattr $C$DW$104, DW_AT_type(*$C$DW$T$19)
    1426        .dwattr $C$DW$104, DW_AT_location[DW_OP_breg8 4]
    1427 00000008 00000010000000          NOP                             ; [ALU_PRU] 
    1428$C$DW$105       .dwtag  DW_TAG_variable, DW_AT_name("chNum")
    1429        .dwattr $C$DW$105, DW_AT_TI_symbol_name("chNum")
    1430        .dwattr $C$DW$105, DW_AT_type(*$C$DW$T$19)
    1431        .dwattr $C$DW$105, DW_AT_location[DW_OP_breg8 8]
    1432 0000000c 00000010000000          NOP                             ; [ALU_PRU] 
    1433 00000010 000000E1082290          SBBO      &r16, r2, 8, 4        ; [ALU_PRU] |512| chNum
    1434 00000014 000000E104228F          SBBO      &r15, r2, 4, 4        ; [ALU_PRU] |512| rxFifo
    1435 00000018 000000E100228E          SBBO      &r14, r2, 0, 4        ; [ALU_PRU] |512| spiAddr
    1436        .dwpsn  file "../spi.c",line 513,column 2,is_stmt,isa 0
    1437 0000001c 000000F1082280          LBBO      &r0, r2, 8, 4         ; [ALU_PRU] |513| chNum
    1438 00000020 0000000902E0E1          LSL       r1, r0, 0x02          ; [ALU_PRU] |513| 
    1439 00000024 0000000904E0E0          LSL       r0, r0, 0x04          ; [ALU_PRU] |513| 
    1440 00000028 00000000E1E0E0          ADD       r0, r0, r1            ; [ALU_PRU] |513| 
    1441 0000002c 000000F1002281          LBBO      &r1, r2, 0, 4         ; [ALU_PRU] |513| spiAddr
    1442 00000030 00000000E0E1E1          ADD       r1, r1, r0            ; [ALU_PRU] |513| 
    1443 00000034 00000024012CE0          LDI       r0, 0x012c            ; [ALU_PRU] |513| 
    1444 00000038 00000000E0E1E0          ADD       r0, r1, r0            ; [ALU_PRU] |513| 
    1445 0000003c 000000F1002081          LBBO      &r1, r0, 0, 4         ; [ALU_PRU] |513| 
    1446 00000040 0000001D1CE1E1          CLR       r1, r1, 0x0000001c    ; [ALU_PRU] |513| 
    1447 00000044 000000E1002081          SBBO      &r1, r0, 0, 4         ; [ALU_PRU] |513| 
    1448        .dwpsn  file "../spi.c",line 514,column 2,is_stmt,isa 0
    1449 00000048 000000F104228E          LBBO      &r14, r2, 4, 4        ; [ALU_PRU] |514| rxFifo
    1450 0000004c 000000F1082280          LBBO      &r0, r2, 8, 4         ; [ALU_PRU] |514| chNum
    1451 00000050 0000000902E0E1          LSL       r1, r0, 0x02          ; [ALU_PRU] |514| 
    1452 00000054 0000000904E0E0          LSL       r0, r0, 0x04          ; [ALU_PRU] |514| 
    1453 00000058 00000000E1E0E0          ADD       r0, r0, r1            ; [ALU_PRU] |514| 
    1454 0000005c 000000F1002281          LBBO      &r1, r2, 0, 4         ; [ALU_PRU] |514| spiAddr
    1455 00000060 00000000E0E1E1          ADD       r1, r1, r0            ; [ALU_PRU] |514| 
    1456 00000064 00000024012CE0          LDI       r0, 0x012c            ; [ALU_PRU] |514| 
    1457 00000068 00000000E0E1E0          ADD       r0, r1, r0            ; [ALU_PRU] |514| 
    1458 0000006c 000081241000C1          LDI32     r1, 0x10000000        ; [ALU_PRU] |514| 
         00000073 00000000004024 
    1459 00000074 00000010E1EEE1          AND       r1, r14, r1           ; [ALU_PRU] |514| 
    1460 00000078 000000F100208E          LBBO      &r14, r0, 0, 4        ; [ALU_PRU] |514| 
    1461 0000007c 00000012E1EEE1          OR        r1, r14, r1           ; [ALU_PRU] |514| 
    1462 00000080 000000E1002081          SBBO      &r1, r0, 0, 4         ; [ALU_PRU] |514| 
    1463        .dwpsn  file "../spi.c",line 515,column 1,is_stmt,isa 0
    1464 00000084 000000010CE2E2          ADD       r2, r2, 0x0c          ; [ALU_PRU] 
    1465        .dwcfi  cfa_offset, 0
    1466$C$DW$106       .dwtag  DW_TAG_TI_branch
    1467        .dwattr $C$DW$106, DW_AT_low_pc(0x00)
    1468        .dwattr $C$DW$106, DW_AT_TI_return
    1469 00000088 00000020C30000          JMP       r3.w2                 ; [ALU_PRU] 
    1470        .dwattr $C$DW$99, DW_AT_TI_end_file("../spi.c")
    1471        .dwattr $C$DW$99, DW_AT_TI_end_line(0x203)
    1472        .dwattr $C$DW$99, DW_AT_TI_end_column(0x01)
    1473        .dwendentry
    1474        .dwendtag $C$DW$99
    1475
    1476 00000000                         .sect   ".text:SPI_WordCountSet"
    1477        .clink
    1478        .global ||SPI_WordCountSet||
PRU Assembler Unix v2.1.2 Thu Jan 28 12:38:40 2016

Tools Copyright (c) 2012-2015 Texas Instruments Incorporated
spi.asm                                                              PAGE   28

    1479
    1480$C$DW$107       .dwtag  DW_TAG_subprogram, DW_AT_name("SPI_WordCountSet")
    1481        .dwattr $C$DW$107, DW_AT_low_pc(||SPI_WordCountSet||)
    1482        .dwattr $C$DW$107, DW_AT_high_pc(0x00)
    1483        .dwattr $C$DW$107, DW_AT_TI_symbol_name("SPI_WordCountSet")
    1484        .dwattr $C$DW$107, DW_AT_external
    1485        .dwattr $C$DW$107, DW_AT_TI_begin_file("../spi.c")
    1486        .dwattr $C$DW$107, DW_AT_TI_begin_line(0x242)
    1487        .dwattr $C$DW$107, DW_AT_TI_begin_column(0x0d)
    1488        .dwattr $C$DW$107, DW_AT_decl_file("../spi.c")
    1489        .dwattr $C$DW$107, DW_AT_decl_line(0x242)
    1490        .dwattr $C$DW$107, DW_AT_decl_column(0x0d)
    1491        .dwattr $C$DW$107, DW_AT_TI_max_frame_size(0x06)
    1492        .dwpsn  file "../spi.c",line 579,column 1,is_stmt,address ||SPI_WordCountSet||,isa 0
    1493
    1494        .dwfde $C$DW$CIE, ||SPI_WordCountSet||
    1495$C$DW$108       .dwtag  DW_TAG_formal_parameter, DW_AT_name("spiAddr")
    1496        .dwattr $C$DW$108, DW_AT_TI_symbol_name("spiAddr")
    1497        .dwattr $C$DW$108, DW_AT_type(*$C$DW$T$19)
    1498        .dwattr $C$DW$108, DW_AT_location[DW_OP_regx 0x38]
    1499$C$DW$109       .dwtag  DW_TAG_formal_parameter, DW_AT_name("wCnt")
    1500        .dwattr $C$DW$109, DW_AT_TI_symbol_name("wCnt")
    1501        .dwattr $C$DW$109, DW_AT_type(*$C$DW$T$9)
    1502        .dwattr $C$DW$109, DW_AT_location[DW_OP_regx 0x3c]
    1503
    1504;***************************************************************
    1505;* FNAME: SPI_WordCountSet              FR SIZE:   6           *
    1506;*                                                             *
    1507;* FUNCTION ENVIRONMENT                                        *
    1508;*                                                             *
    1509;* FUNCTION PROPERTIES                                         *
    1510;*                            6 Auto,  0 SOE     *
    1511;***************************************************************
    1512
    1513 00000000                 ||SPI_WordCountSet||:
    1514;* --------------------------------------------------------------------------*
    1515        .dwcfi  cfa_offset, 0
    1516 00000000 0000000506E2E2          SUB       r2, r2, 0x06          ; [ALU_PRU] 
    1517        .dwcfi  cfa_offset, 6
    1518$C$DW$110       .dwtag  DW_TAG_variable, DW_AT_name("spiAddr")
    1519        .dwattr $C$DW$110, DW_AT_TI_symbol_name("spiAddr")
    1520        .dwattr $C$DW$110, DW_AT_type(*$C$DW$T$19)
    1521        .dwattr $C$DW$110, DW_AT_location[DW_OP_breg8 0]
    1522 00000004 00000010000000          NOP                             ; [ALU_PRU] 
    1523$C$DW$111       .dwtag  DW_TAG_variable, DW_AT_name("wCnt")
    1524        .dwattr $C$DW$111, DW_AT_TI_symbol_name("wCnt")
    1525        .dwattr $C$DW$111, DW_AT_type(*$C$DW$T$9)
    1526        .dwattr $C$DW$111, DW_AT_location[DW_OP_breg8 4]
    1527 00000008 00000010000000          NOP                             ; [ALU_PRU] 
    1528 0000000c 000000E104028F          SBBO      &r15.w0, r2, 4, 2     ; [ALU_PRU] |579| wCnt
    1529 00000010 000000E100228E          SBBO      &r14, r2, 0, 4        ; [ALU_PRU] |579| spiAddr
    1530        .dwpsn  file "../spi.c",line 580,column 2,is_stmt,isa 0
    1531 00000014 00000024017CE0          LDI       r0, 0x017c            ; [ALU_PRU] |580| 
    1532 00000018 000000F1002281          LBBO      &r1, r2, 0, 4         ; [ALU_PRU] |580| spiAddr
    1533 0000001c 00000000E0E1E0          ADD       r0, r1, r0            ; [ALU_PRU] |580| 
PRU Assembler Unix v2.1.2 Thu Jan 28 12:38:40 2016

Tools Copyright (c) 2012-2015 Texas Instruments Incorporated
spi.asm                                                              PAGE   29

    1534 00000020 00000024FFFFE1          LDI       r1, 0xffff            ; [ALU_PRU] |580| 
    1535 00000024 000000F100208E          LBBO      &r14, r0, 0, 4        ; [ALU_PRU] |580| 
    1536 00000028 00000010E1EEE1          AND       r1, r14, r1           ; [ALU_PRU] |580| 
    1537 0000002c 000000E1002081          SBBO      &r1, r0, 0, 4         ; [ALU_PRU] |580| 
    1538        .dwpsn  file "../spi.c",line 581,column 2,is_stmt,isa 0
    1539 00000030 00000024017CE0          LDI       r0, 0x017c            ; [ALU_PRU] |581| 
    1540 00000034 000000F1002281          LBBO      &r1, r2, 0, 4         ; [ALU_PRU] |581| spiAddr
    1541 00000038 00000000E0E1E0          ADD       r0, r1, r0            ; [ALU_PRU] |581| 
    1542 0000003c 000000F1040281          LBBO      &r1.w0, r2, 4, 2      ; [ALU_PRU] |581| wCnt
    1543 00000040 000000F100208E          LBBO      &r14, r0, 0, 4        ; [ALU_PRU] |581| 
    1544 00000044 000000091081E1          LSL       r1, r1.w0, 0x10       ; [ALU_PRU] |581| 
    1545 00000048 00000012E1EEE1          OR        r1, r14, r1           ; [ALU_PRU] |581| 
    1546 0000004c 000000E1002081          SBBO      &r1, r0, 0, 4         ; [ALU_PRU] |581| 
    1547        .dwpsn  file "../spi.c",line 582,column 1,is_stmt,isa 0
    1548 00000050 0000000106E2E2          ADD       r2, r2, 0x06          ; [ALU_PRU] 
    1549        .dwcfi  cfa_offset, 0
    1550$C$DW$112       .dwtag  DW_TAG_TI_branch
    1551        .dwattr $C$DW$112, DW_AT_low_pc(0x00)
    1552        .dwattr $C$DW$112, DW_AT_TI_return
    1553 00000054 00000020C30000          JMP       r3.w2                 ; [ALU_PRU] 
    1554        .dwattr $C$DW$107, DW_AT_TI_end_file("../spi.c")
    1555        .dwattr $C$DW$107, DW_AT_TI_end_line(0x246)
    1556        .dwattr $C$DW$107, DW_AT_TI_end_column(0x01)
    1557        .dwendentry
    1558        .dwendtag $C$DW$107
    1559
    1560 00000000                         .sect   ".text:SPI_DMASet"
    1561        .clink
    1562        .global ||SPI_DMASet||
    1563
    1564$C$DW$113       .dwtag  DW_TAG_subprogram, DW_AT_name("SPI_DMASet")
    1565        .dwattr $C$DW$113, DW_AT_low_pc(||SPI_DMASet||)
    1566        .dwattr $C$DW$113, DW_AT_high_pc(0x00)
    1567        .dwattr $C$DW$113, DW_AT_TI_symbol_name("SPI_DMASet")
    1568        .dwattr $C$DW$113, DW_AT_external
    1569        .dwattr $C$DW$113, DW_AT_TI_begin_file("../spi.c")
    1570        .dwattr $C$DW$113, DW_AT_TI_begin_line(0x255)
    1571        .dwattr $C$DW$113, DW_AT_TI_begin_column(0x0d)
    1572        .dwattr $C$DW$113, DW_AT_decl_file("../spi.c")
    1573        .dwattr $C$DW$113, DW_AT_decl_line(0x255)
    1574        .dwattr $C$DW$113, DW_AT_decl_column(0x0d)
    1575        .dwattr $C$DW$113, DW_AT_TI_max_frame_size(0x10)
    1576        .dwpsn  file "../spi.c",line 598,column 1,is_stmt,address ||SPI_DMASet||,isa 0
    1577
    1578        .dwfde $C$DW$CIE, ||SPI_DMASet||
    1579$C$DW$114       .dwtag  DW_TAG_formal_parameter, DW_AT_name("spiAddr")
    1580        .dwattr $C$DW$114, DW_AT_TI_symbol_name("spiAddr")
    1581        .dwattr $C$DW$114, DW_AT_type(*$C$DW$T$19)
    1582        .dwattr $C$DW$114, DW_AT_location[DW_OP_regx 0x38]
    1583$C$DW$115       .dwtag  DW_TAG_formal_parameter, DW_AT_name("mode")
    1584        .dwattr $C$DW$115, DW_AT_TI_symbol_name("mode")
    1585        .dwattr $C$DW$115, DW_AT_type(*$C$DW$T$19)
    1586        .dwattr $C$DW$115, DW_AT_location[DW_OP_regx 0x3c]
    1587$C$DW$116       .dwtag  DW_TAG_formal_parameter, DW_AT_name("dmaFlags")
    1588        .dwattr $C$DW$116, DW_AT_TI_symbol_name("dmaFlags")
PRU Assembler Unix v2.1.2 Thu Jan 28 12:38:40 2016

Tools Copyright (c) 2012-2015 Texas Instruments Incorporated
spi.asm                                                              PAGE   30

    1589        .dwattr $C$DW$116, DW_AT_type(*$C$DW$T$19)
    1590        .dwattr $C$DW$116, DW_AT_location[DW_OP_regx 0x40]
    1591$C$DW$117       .dwtag  DW_TAG_formal_parameter, DW_AT_name("chNum")
    1592        .dwattr $C$DW$117, DW_AT_TI_symbol_name("chNum")
    1593        .dwattr $C$DW$117, DW_AT_type(*$C$DW$T$19)
    1594        .dwattr $C$DW$117, DW_AT_location[DW_OP_regx 0x44]
    1595
    1596;***************************************************************
    1597;* FNAME: SPI_DMASet                    FR SIZE:  16           *
    1598;*                                                             *
    1599;* FUNCTION ENVIRONMENT                                        *
    1600;*                                                             *
    1601;* FUNCTION PROPERTIES                                         *
    1602;*                           16 Auto,  0 SOE     *
    1603;***************************************************************
    1604
    1605 00000000                 ||SPI_DMASet||:
    1606;* --------------------------------------------------------------------------*
    1607        .dwcfi  cfa_offset, 0
    1608 00000000 0000000510E2E2          SUB       r2, r2, 0x10          ; [ALU_PRU] 
    1609        .dwcfi  cfa_offset, 16
    1610$C$DW$118       .dwtag  DW_TAG_variable, DW_AT_name("spiAddr")
    1611        .dwattr $C$DW$118, DW_AT_TI_symbol_name("spiAddr")
    1612        .dwattr $C$DW$118, DW_AT_type(*$C$DW$T$19)
    1613        .dwattr $C$DW$118, DW_AT_location[DW_OP_breg8 0]
    1614 00000004 00000010000000          NOP                             ; [ALU_PRU] 
    1615$C$DW$119       .dwtag  DW_TAG_variable, DW_AT_name("mode")
    1616        .dwattr $C$DW$119, DW_AT_TI_symbol_name("mode")
    1617        .dwattr $C$DW$119, DW_AT_type(*$C$DW$T$19)
    1618        .dwattr $C$DW$119, DW_AT_location[DW_OP_breg8 4]
    1619 00000008 00000010000000          NOP                             ; [ALU_PRU] 
    1620$C$DW$120       .dwtag  DW_TAG_variable, DW_AT_name("dmaFlags")
    1621        .dwattr $C$DW$120, DW_AT_TI_symbol_name("dmaFlags")
    1622        .dwattr $C$DW$120, DW_AT_type(*$C$DW$T$19)
    1623        .dwattr $C$DW$120, DW_AT_location[DW_OP_breg8 8]
    1624 0000000c 00000010000000          NOP                             ; [ALU_PRU] 
    1625$C$DW$121       .dwtag  DW_TAG_variable, DW_AT_name("chNum")
    1626        .dwattr $C$DW$121, DW_AT_TI_symbol_name("chNum")
    1627        .dwattr $C$DW$121, DW_AT_type(*$C$DW$T$19)
    1628        .dwattr $C$DW$121, DW_AT_location[DW_OP_breg8 12]
    1629 00000010 00000010000000          NOP                             ; [ALU_PRU] 
    1630 00000014 000000E10C2291          SBBO      &r17, r2, 12, 4       ; [ALU_PRU] |598| chNum
    1631 00000018 000000E1082290          SBBO      &r16, r2, 8, 4        ; [ALU_PRU] |598| dmaFlags
    1632 0000001c 000000E104228F          SBBO      &r15, r2, 4, 4        ; [ALU_PRU] |598| mode
    1633 00000020 000000E100228E          SBBO      &r14, r2, 0, 4        ; [ALU_PRU] |598| spiAddr
    1634        .dwpsn  file "../spi.c",line 599,column 2,is_stmt,isa 0
    1635 00000024 000000F1042280          LBBO      &r0, r2, 4, 4         ; [ALU_PRU] |599| mode
    1636 00000028 0000006901E010          QBNE      ||$C$L6||, r0, 0x01   ; [ALU_PRU] |599| 
    1637;* --------------------------------------------------------------------------*
    1638        .dwpsn  file "../spi.c",line 601,column 3,is_stmt,isa 0
    1639 0000002c 000000F10C2280          LBBO      &r0, r2, 12, 4        ; [ALU_PRU] |601| chNum
    1640 00000030 000000F108228E          LBBO      &r14, r2, 8, 4        ; [ALU_PRU] |601| dmaFlags
    1641 00000034 0000000902E0E1          LSL       r1, r0, 0x02          ; [ALU_PRU] |601| 
    1642 00000038 0000000904E0E0          LSL       r0, r0, 0x04          ; [ALU_PRU] |601| 
    1643 0000003c 00000000E1E0E0          ADD       r0, r0, r1            ; [ALU_PRU] |601| 
PRU Assembler Unix v2.1.2 Thu Jan 28 12:38:40 2016

Tools Copyright (c) 2012-2015 Texas Instruments Incorporated
spi.asm                                                              PAGE   31

    1644 00000040 000000F1002281          LBBO      &r1, r2, 0, 4         ; [ALU_PRU] |601| spiAddr
    1645 00000044 00000000E0E1E1          ADD       r1, r1, r0            ; [ALU_PRU] |601| 
    1646 00000048 00000024012CE0          LDI       r0, 0x012c            ; [ALU_PRU] |601| 
    1647 0000004c 00000000E0E1E0          ADD       r0, r1, r0            ; [ALU_PRU] |601| 
    1648 00000050 00000024C000E1          LDI       r1, 0xc000            ; [ALU_PRU] |601| 
    1649 00000054 00000010E1EEE1          AND       r1, r14, r1           ; [ALU_PRU] |601| 
    1650 00000058 000000F100208E          LBBO      &r14, r0, 0, 4        ; [ALU_PRU] |601| 
    1651 0000005c 00000012E1EEE1          OR        r1, r14, r1           ; [ALU_PRU] |601| 
    1652 00000060 000000E1002081          SBBO      &r1, r0, 0, 4         ; [ALU_PRU] |601| 
    1653        .dwpsn  file "../spi.c",line 602,column 2,is_stmt,isa 0
    1654 00000064 00000021000000!         JMP       ||$C$L7||             ; [ALU_PRU] |602| 
    1655;* --------------------------------------------------------------------------*
    1656 00000068                 ||$C$L6||:    
    1657        .dwpsn  file "../spi.c",line 602,column 9,is_stmt,isa 0
    1658 00000068 0000006900E010          QBNE      ||$C$L7||, r0, 0x00   ; [ALU_PRU] |602| 
    1659;* --------------------------------------------------------------------------*
    1660        .dwpsn  file "../spi.c",line 603,column 3,is_stmt,isa 0
    1661 0000006c 000000F10C2280          LBBO      &r0, r2, 12, 4        ; [ALU_PRU] |603| chNum
    1662 00000070 000000F108228E          LBBO      &r14, r2, 8, 4        ; [ALU_PRU] |603| dmaFlags
    1663 00000074 0000000902E0E1          LSL       r1, r0, 0x02          ; [ALU_PRU] |603| 
    1664 00000078 0000000904E0E0          LSL       r0, r0, 0x04          ; [ALU_PRU] |603| 
    1665 0000007c 00000000E1E0E0          ADD       r0, r0, r1            ; [ALU_PRU] |603| 
    1666 00000080 000000F1002281          LBBO      &r1, r2, 0, 4         ; [ALU_PRU] |603| spiAddr
    1667 00000084 00000000E0E1E1          ADD       r1, r1, r0            ; [ALU_PRU] |603| 
    1668 00000088 00000024012CE0          LDI       r0, 0x012c            ; [ALU_PRU] |603| 
    1669 0000008c 00000000E0E1E0          ADD       r0, r1, r0            ; [ALU_PRU] |603| 
    1670 00000090 00000024C000E1          LDI       r1, 0xc000            ; [ALU_PRU] |603| 
    1671 00000094 00000010E1EEE1          AND       r1, r14, r1           ; [ALU_PRU] |603| 
    1672 00000098 0000001600E1E1          NOT       r1, r1                ; [ALU_PRU] |603| 
    1673 0000009c 000000F100208E          LBBO      &r14, r0, 0, 4        ; [ALU_PRU] |603| 
    1674 000000a0 00000010E1EEE1          AND       r1, r14, r1           ; [ALU_PRU] |603| 
    1675 000000a4 000000E1002081          SBBO      &r1, r0, 0, 4         ; [ALU_PRU] |603| 
    1676        .dwpsn  file "../spi.c",line 605,column 1,is_stmt,isa 0
    1677;* --------------------------------------------------------------------------*
    1678 000000a8                 ||$C$L7||:    
    1679 000000a8 0000000110E2E2          ADD       r2, r2, 0x10          ; [ALU_PRU] 
    1680        .dwcfi  cfa_offset, 0
    1681$C$DW$122       .dwtag  DW_TAG_TI_branch
    1682        .dwattr $C$DW$122, DW_AT_low_pc(0x00)
    1683        .dwattr $C$DW$122, DW_AT_TI_return
    1684 000000ac 00000020C30000          JMP       r3.w2                 ; [ALU_PRU] 
    1685        .dwattr $C$DW$113, DW_AT_TI_end_file("../spi.c")
    1686        .dwattr $C$DW$113, DW_AT_TI_end_line(0x25d)
    1687        .dwattr $C$DW$113, DW_AT_TI_end_column(0x01)
    1688        .dwendentry
    1689        .dwendtag $C$DW$113
    1690
    1691 00000000                         .sect   ".text:SPI_IntSet"
    1692        .clink
    1693        .global ||SPI_IntSet||
    1694
    1695$C$DW$123       .dwtag  DW_TAG_subprogram, DW_AT_name("SPI_IntSet")
    1696        .dwattr $C$DW$123, DW_AT_low_pc(||SPI_IntSet||)
    1697        .dwattr $C$DW$123, DW_AT_high_pc(0x00)
    1698        .dwattr $C$DW$123, DW_AT_TI_symbol_name("SPI_IntSet")
PRU Assembler Unix v2.1.2 Thu Jan 28 12:38:40 2016

Tools Copyright (c) 2012-2015 Texas Instruments Incorporated
spi.asm                                                              PAGE   32

    1699        .dwattr $C$DW$123, DW_AT_external
    1700        .dwattr $C$DW$123, DW_AT_TI_begin_file("../spi.c")
    1701        .dwattr $C$DW$123, DW_AT_TI_begin_line(0x26d)
    1702        .dwattr $C$DW$123, DW_AT_TI_begin_column(0x0d)
    1703        .dwattr $C$DW$123, DW_AT_decl_file("../spi.c")
    1704        .dwattr $C$DW$123, DW_AT_decl_line(0x26d)
    1705        .dwattr $C$DW$123, DW_AT_decl_column(0x0d)
    1706        .dwattr $C$DW$123, DW_AT_TI_max_frame_size(0x0c)
    1707        .dwpsn  file "../spi.c",line 622,column 1,is_stmt,address ||SPI_IntSet||,isa 0
    1708
    1709        .dwfde $C$DW$CIE, ||SPI_IntSet||
    1710$C$DW$124       .dwtag  DW_TAG_formal_parameter, DW_AT_name("spiAddr")
    1711        .dwattr $C$DW$124, DW_AT_TI_symbol_name("spiAddr")
    1712        .dwattr $C$DW$124, DW_AT_type(*$C$DW$T$19)
    1713        .dwattr $C$DW$124, DW_AT_location[DW_OP_regx 0x38]
    1714$C$DW$125       .dwtag  DW_TAG_formal_parameter, DW_AT_name("mode")
    1715        .dwattr $C$DW$125, DW_AT_TI_symbol_name("mode")
    1716        .dwattr $C$DW$125, DW_AT_type(*$C$DW$T$19)
    1717        .dwattr $C$DW$125, DW_AT_location[DW_OP_regx 0x3c]
    1718$C$DW$126       .dwtag  DW_TAG_formal_parameter, DW_AT_name("intFlags")
    1719        .dwattr $C$DW$126, DW_AT_TI_symbol_name("intFlags")
    1720        .dwattr $C$DW$126, DW_AT_type(*$C$DW$T$19)
    1721        .dwattr $C$DW$126, DW_AT_location[DW_OP_regx 0x40]
    1722
    1723;***************************************************************
    1724;* FNAME: SPI_IntSet                    FR SIZE:  12           *
    1725;*                                                             *
    1726;* FUNCTION ENVIRONMENT                                        *
    1727;*                                                             *
    1728;* FUNCTION PROPERTIES                                         *
    1729;*                           12 Auto,  0 SOE     *
    1730;***************************************************************
    1731
    1732 00000000                 ||SPI_IntSet||:
    1733;* --------------------------------------------------------------------------*
    1734        .dwcfi  cfa_offset, 0
    1735 00000000 000000050CE2E2          SUB       r2, r2, 0x0c          ; [ALU_PRU] 
    1736        .dwcfi  cfa_offset, 12
    1737$C$DW$127       .dwtag  DW_TAG_variable, DW_AT_name("spiAddr")
    1738        .dwattr $C$DW$127, DW_AT_TI_symbol_name("spiAddr")
    1739        .dwattr $C$DW$127, DW_AT_type(*$C$DW$T$19)
    1740        .dwattr $C$DW$127, DW_AT_location[DW_OP_breg8 0]
    1741 00000004 00000010000000          NOP                             ; [ALU_PRU] 
    1742$C$DW$128       .dwtag  DW_TAG_variable, DW_AT_name("mode")
    1743        .dwattr $C$DW$128, DW_AT_TI_symbol_name("mode")
    1744        .dwattr $C$DW$128, DW_AT_type(*$C$DW$T$19)
    1745        .dwattr $C$DW$128, DW_AT_location[DW_OP_breg8 4]
    1746 00000008 00000010000000          NOP                             ; [ALU_PRU] 
    1747$C$DW$129       .dwtag  DW_TAG_variable, DW_AT_name("intFlags")
    1748        .dwattr $C$DW$129, DW_AT_TI_symbol_name("intFlags")
    1749        .dwattr $C$DW$129, DW_AT_type(*$C$DW$T$19)
    1750        .dwattr $C$DW$129, DW_AT_location[DW_OP_breg8 8]
    1751 0000000c 00000010000000          NOP                             ; [ALU_PRU] 
    1752 00000010 000000E1082290          SBBO      &r16, r2, 8, 4        ; [ALU_PRU] |622| intFlags
    1753 00000014 000000E104228F          SBBO      &r15, r2, 4, 4        ; [ALU_PRU] |622| mode
PRU Assembler Unix v2.1.2 Thu Jan 28 12:38:40 2016

Tools Copyright (c) 2012-2015 Texas Instruments Incorporated
spi.asm                                                              PAGE   33

    1754 00000018 000000E100228E          SBBO      &r14, r2, 0, 4        ; [ALU_PRU] |622| spiAddr
    1755        .dwpsn  file "../spi.c",line 623,column 2,is_stmt,isa 0
    1756 0000001c 000000F1042280          LBBO      &r0, r2, 4, 4         ; [ALU_PRU] |623| mode
    1757 00000020 0000006901E009          QBNE      ||$C$L8||, r0, 0x01   ; [ALU_PRU] |623| 
    1758;* --------------------------------------------------------------------------*
    1759        .dwpsn  file "../spi.c",line 625,column 3,is_stmt,isa 0
    1760 00000024 00000024011CE0          LDI       r0, 0x011c            ; [ALU_PRU] |625| 
    1761 00000028 000000F1002281          LBBO      &r1, r2, 0, 4         ; [ALU_PRU] |625| spiAddr
    1762 0000002c 00000000E0E1E0          ADD       r0, r1, r0            ; [ALU_PRU] |625| 
    1763 00000030 000000F100208E          LBBO      &r14, r0, 0, 4        ; [ALU_PRU] |625| 
    1764 00000034 000000F1082281          LBBO      &r1, r2, 8, 4         ; [ALU_PRU] |625| intFlags
    1765 00000038 00000012E1EEE1          OR        r1, r14, r1           ; [ALU_PRU] |625| 
    1766 0000003c 000000E1002081          SBBO      &r1, r0, 0, 4         ; [ALU_PRU] |625| 
    1767        .dwpsn  file "../spi.c",line 626,column 2,is_stmt,isa 0
    1768 00000040 00000021000000!         JMP       ||$C$L9||             ; [ALU_PRU] |626| 
    1769;* --------------------------------------------------------------------------*
    1770 00000044                 ||$C$L8||:    
    1771        .dwpsn  file "../spi.c",line 626,column 9,is_stmt,isa 0
    1772 00000044 0000006900E009          QBNE      ||$C$L9||, r0, 0x00   ; [ALU_PRU] |626| 
    1773;* --------------------------------------------------------------------------*
    1774        .dwpsn  file "../spi.c",line 627,column 3,is_stmt,isa 0
    1775 00000048 00000024011CE0          LDI       r0, 0x011c            ; [ALU_PRU] |627| 
    1776 0000004c 000000F1002281          LBBO      &r1, r2, 0, 4         ; [ALU_PRU] |627| spiAddr
    1777 00000050 00000000E0E1E0          ADD       r0, r1, r0            ; [ALU_PRU] |627| 
    1778 00000054 000000F100208E          LBBO      &r14, r0, 0, 4        ; [ALU_PRU] |627| 
    1779 00000058 000000F1082281          LBBO      &r1, r2, 8, 4         ; [ALU_PRU] |627| intFlags
    1780 0000005c 0000001600E1E1          NOT       r1, r1                ; [ALU_PRU] |627| 
    1781 00000060 00000010E1EEE1          AND       r1, r14, r1           ; [ALU_PRU] |627| 
    1782 00000064 000000E1002081          SBBO      &r1, r0, 0, 4         ; [ALU_PRU] |627| 
    1783        .dwpsn  file "../spi.c",line 629,column 1,is_stmt,isa 0
    1784;* --------------------------------------------------------------------------*
    1785 00000068                 ||$C$L9||:    
    1786 00000068 000000010CE2E2          ADD       r2, r2, 0x0c          ; [ALU_PRU] 
    1787        .dwcfi  cfa_offset, 0
    1788$C$DW$130       .dwtag  DW_TAG_TI_branch
    1789        .dwattr $C$DW$130, DW_AT_low_pc(0x00)
    1790        .dwattr $C$DW$130, DW_AT_TI_return
    1791 0000006c 00000020C30000          JMP       r3.w2                 ; [ALU_PRU] 
    1792        .dwattr $C$DW$123, DW_AT_TI_end_file("../spi.c")
    1793        .dwattr $C$DW$123, DW_AT_TI_end_line(0x275)
    1794        .dwattr $C$DW$123, DW_AT_TI_end_column(0x01)
    1795        .dwendentry
    1796        .dwendtag $C$DW$123
    1797
    1798 00000000                         .sect   ".text:SPI_InitDelayConfig"
    1799        .clink
    1800        .global ||SPI_InitDelayConfig||
    1801
    1802$C$DW$131       .dwtag  DW_TAG_subprogram, DW_AT_name("SPI_InitDelayConfig")
    1803        .dwattr $C$DW$131, DW_AT_low_pc(||SPI_InitDelayConfig||)
    1804        .dwattr $C$DW$131, DW_AT_high_pc(0x00)
    1805        .dwattr $C$DW$131, DW_AT_TI_symbol_name("SPI_InitDelayConfig")
    1806        .dwattr $C$DW$131, DW_AT_external
    1807        .dwattr $C$DW$131, DW_AT_TI_begin_file("../spi.c")
    1808        .dwattr $C$DW$131, DW_AT_TI_begin_line(0x283)
PRU Assembler Unix v2.1.2 Thu Jan 28 12:38:40 2016

Tools Copyright (c) 2012-2015 Texas Instruments Incorporated
spi.asm                                                              PAGE   34

    1809        .dwattr $C$DW$131, DW_AT_TI_begin_column(0x0d)
    1810        .dwattr $C$DW$131, DW_AT_decl_file("../spi.c")
    1811        .dwattr $C$DW$131, DW_AT_decl_line(0x283)
    1812        .dwattr $C$DW$131, DW_AT_decl_column(0x0d)
    1813        .dwattr $C$DW$131, DW_AT_TI_max_frame_size(0x08)
    1814        .dwpsn  file "../spi.c",line 644,column 1,is_stmt,address ||SPI_InitDelayConfig||,isa 0
    1815
    1816        .dwfde $C$DW$CIE, ||SPI_InitDelayConfig||
    1817$C$DW$132       .dwtag  DW_TAG_formal_parameter, DW_AT_name("spiAddr")
    1818        .dwattr $C$DW$132, DW_AT_TI_symbol_name("spiAddr")
    1819        .dwattr $C$DW$132, DW_AT_type(*$C$DW$T$19)
    1820        .dwattr $C$DW$132, DW_AT_location[DW_OP_regx 0x38]
    1821$C$DW$133       .dwtag  DW_TAG_formal_parameter, DW_AT_name("initDelay")
    1822        .dwattr $C$DW$133, DW_AT_TI_symbol_name("initDelay")
    1823        .dwattr $C$DW$133, DW_AT_type(*$C$DW$T$19)
    1824        .dwattr $C$DW$133, DW_AT_location[DW_OP_regx 0x3c]
    1825
    1826;***************************************************************
    1827;* FNAME: SPI_InitDelayConfig           FR SIZE:   8           *
    1828;*                                                             *
    1829;* FUNCTION ENVIRONMENT                                        *
    1830;*                                                             *
    1831;* FUNCTION PROPERTIES                                         *
    1832;*                            8 Auto,  0 SOE     *
    1833;***************************************************************
    1834
    1835 00000000                 ||SPI_InitDelayConfig||:
    1836;* --------------------------------------------------------------------------*
    1837        .dwcfi  cfa_offset, 0
    1838 00000000 0000000508E2E2          SUB       r2, r2, 0x08          ; [ALU_PRU] 
    1839        .dwcfi  cfa_offset, 8
    1840$C$DW$134       .dwtag  DW_TAG_variable, DW_AT_name("spiAddr")
    1841        .dwattr $C$DW$134, DW_AT_TI_symbol_name("spiAddr")
    1842        .dwattr $C$DW$134, DW_AT_type(*$C$DW$T$19)
    1843        .dwattr $C$DW$134, DW_AT_location[DW_OP_breg8 0]
    1844 00000004 00000010000000          NOP                             ; [ALU_PRU] 
    1845$C$DW$135       .dwtag  DW_TAG_variable, DW_AT_name("initDelay")
    1846        .dwattr $C$DW$135, DW_AT_TI_symbol_name("initDelay")
    1847        .dwattr $C$DW$135, DW_AT_type(*$C$DW$T$19)
    1848        .dwattr $C$DW$135, DW_AT_location[DW_OP_breg8 4]
    1849 00000008 00000010000000          NOP                             ; [ALU_PRU] 
    1850 0000000c 000000E104228F          SBBO      &r15, r2, 4, 4        ; [ALU_PRU] |644| initDelay
    1851 00000010 000000E100228E          SBBO      &r14, r2, 0, 4        ; [ALU_PRU] |644| spiAddr
    1852        .dwpsn  file "../spi.c",line 645,column 2,is_stmt,isa 0
    1853 00000014 000000240128E0          LDI       r0, 0x0128            ; [ALU_PRU] |645| 
    1854 00000018 000000F1002281          LBBO      &r1, r2, 0, 4         ; [ALU_PRU] |645| spiAddr
    1855 0000001c 00000000E0E1E0          ADD       r0, r1, r0            ; [ALU_PRU] |645| 
    1856 00000020 FF8F8124FFFFC1          LDI32     r1, 0xffffff8f        ; [ALU_PRU] |645| 
         00000027 00000000004024 
    1857 00000028 000000F100208E          LBBO      &r14, r0, 0, 4        ; [ALU_PRU] |645| 
    1858 0000002c 00000010E1EEE1          AND       r1, r14, r1           ; [ALU_PRU] |645| 
    1859 00000030 000000E1002081          SBBO      &r1, r0, 0, 4         ; [ALU_PRU] |645| 
    1860        .dwpsn  file "../spi.c",line 646,column 2,is_stmt,isa 0
    1861 00000034 000000240128E0          LDI       r0, 0x0128            ; [ALU_PRU] |646| 
    1862 00000038 000000F1002281          LBBO      &r1, r2, 0, 4         ; [ALU_PRU] |646| spiAddr
PRU Assembler Unix v2.1.2 Thu Jan 28 12:38:40 2016

Tools Copyright (c) 2012-2015 Texas Instruments Incorporated
spi.asm                                                              PAGE   35

    1863 0000003c 00000000E0E1E0          ADD       r0, r1, r0            ; [ALU_PRU] |646| 
    1864 00000040 000000F1042281          LBBO      &r1, r2, 4, 4         ; [ALU_PRU] |646| initDelay
    1865 00000044 000000F100208E          LBBO      &r14, r0, 0, 4        ; [ALU_PRU] |646| 
    1866 00000048 0000001170E1E1          AND       r1, r1, 0x70          ; [ALU_PRU] |646| 
    1867 0000004c 00000012E1EEE1          OR        r1, r14, r1           ; [ALU_PRU] |646| 
    1868 00000050 000000E1002081          SBBO      &r1, r0, 0, 4         ; [ALU_PRU] |646| 
    1869        .dwpsn  file "../spi.c",line 647,column 1,is_stmt,isa 0
    1870 00000054 0000000108E2E2          ADD       r2, r2, 0x08          ; [ALU_PRU] 
    1871        .dwcfi  cfa_offset, 0
    1872$C$DW$136       .dwtag  DW_TAG_TI_branch
    1873        .dwattr $C$DW$136, DW_AT_low_pc(0x00)
    1874        .dwattr $C$DW$136, DW_AT_TI_return
    1875 00000058 00000020C30000          JMP       r3.w2                 ; [ALU_PRU] 
    1876        .dwattr $C$DW$131, DW_AT_TI_end_file("../spi.c")
    1877        .dwattr $C$DW$131, DW_AT_TI_end_line(0x287)
    1878        .dwattr $C$DW$131, DW_AT_TI_end_column(0x01)
    1879        .dwendentry
    1880        .dwendtag $C$DW$131
    1881
    1882 00000000                         .sect   ".text:SPI_SysTestModeConfig"
    1883        .clink
    1884        .global ||SPI_SysTestModeConfig||
    1885
    1886$C$DW$137       .dwtag  DW_TAG_subprogram, DW_AT_name("SPI_SysTestModeConfig")
    1887        .dwattr $C$DW$137, DW_AT_low_pc(||SPI_SysTestModeConfig||)
    1888        .dwattr $C$DW$137, DW_AT_high_pc(0x00)
    1889        .dwattr $C$DW$137, DW_AT_TI_symbol_name("SPI_SysTestModeConfig")
    1890        .dwattr $C$DW$137, DW_AT_external
    1891        .dwattr $C$DW$137, DW_AT_TI_begin_file("../spi.c")
    1892        .dwattr $C$DW$137, DW_AT_TI_begin_line(0x293)
    1893        .dwattr $C$DW$137, DW_AT_TI_begin_column(0x0d)
    1894        .dwattr $C$DW$137, DW_AT_decl_file("../spi.c")
    1895        .dwattr $C$DW$137, DW_AT_decl_line(0x293)
    1896        .dwattr $C$DW$137, DW_AT_decl_column(0x0d)
    1897        .dwattr $C$DW$137, DW_AT_TI_max_frame_size(0x08)
    1898        .dwpsn  file "../spi.c",line 660,column 1,is_stmt,address ||SPI_SysTestModeConfig||,isa 0
    1899
    1900        .dwfde $C$DW$CIE, ||SPI_SysTestModeConfig||
    1901$C$DW$138       .dwtag  DW_TAG_formal_parameter, DW_AT_name("spiAddr")
    1902        .dwattr $C$DW$138, DW_AT_TI_symbol_name("spiAddr")
    1903        .dwattr $C$DW$138, DW_AT_type(*$C$DW$T$19)
    1904        .dwattr $C$DW$138, DW_AT_location[DW_OP_regx 0x38]
    1905$C$DW$139       .dwtag  DW_TAG_formal_parameter, DW_AT_name("sysTest")
    1906        .dwattr $C$DW$139, DW_AT_TI_symbol_name("sysTest")
    1907        .dwattr $C$DW$139, DW_AT_type(*$C$DW$T$19)
    1908        .dwattr $C$DW$139, DW_AT_location[DW_OP_regx 0x3c]
    1909
    1910;***************************************************************
    1911;* FNAME: SPI_SysTestModeConfig         FR SIZE:   8           *
    1912;*                                                             *
    1913;* FUNCTION ENVIRONMENT                                        *
    1914;*                                                             *
    1915;* FUNCTION PROPERTIES                                         *
    1916;*                            8 Auto,  0 SOE     *
    1917;***************************************************************
PRU Assembler Unix v2.1.2 Thu Jan 28 12:38:40 2016

Tools Copyright (c) 2012-2015 Texas Instruments Incorporated
spi.asm                                                              PAGE   36

    1918
    1919 00000000                 ||SPI_SysTestModeConfig||:
    1920;* --------------------------------------------------------------------------*
    1921        .dwcfi  cfa_offset, 0
    1922 00000000 0000000508E2E2          SUB       r2, r2, 0x08          ; [ALU_PRU] 
    1923        .dwcfi  cfa_offset, 8
    1924$C$DW$140       .dwtag  DW_TAG_variable, DW_AT_name("spiAddr")
    1925        .dwattr $C$DW$140, DW_AT_TI_symbol_name("spiAddr")
    1926        .dwattr $C$DW$140, DW_AT_type(*$C$DW$T$19)
    1927        .dwattr $C$DW$140, DW_AT_location[DW_OP_breg8 0]
    1928 00000004 00000010000000          NOP                             ; [ALU_PRU] 
    1929$C$DW$141       .dwtag  DW_TAG_variable, DW_AT_name("sysTest")
    1930        .dwattr $C$DW$141, DW_AT_TI_symbol_name("sysTest")
    1931        .dwattr $C$DW$141, DW_AT_type(*$C$DW$T$19)
    1932        .dwattr $C$DW$141, DW_AT_location[DW_OP_breg8 4]
    1933 00000008 00000010000000          NOP                             ; [ALU_PRU] 
    1934 0000000c 000000E104228F          SBBO      &r15, r2, 4, 4        ; [ALU_PRU] |660| sysTest
    1935 00000010 000000E100228E          SBBO      &r14, r2, 0, 4        ; [ALU_PRU] |660| spiAddr
    1936        .dwpsn  file "../spi.c",line 661,column 2,is_stmt,isa 0
    1937 00000014 000000240128E0          LDI       r0, 0x0128            ; [ALU_PRU] |661| 
    1938 00000018 000000F1002281          LBBO      &r1, r2, 0, 4         ; [ALU_PRU] |661| spiAddr
    1939 0000001c 00000000E0E1E0          ADD       r0, r1, r0            ; [ALU_PRU] |661| 
    1940 00000020 000000F1002081          LBBO      &r1, r0, 0, 4         ; [ALU_PRU] |661| 
    1941 00000024 0000001D03E1E1          CLR       r1, r1, 0x00000003    ; [ALU_PRU] |661| 
    1942 00000028 000000E1002081          SBBO      &r1, r0, 0, 4         ; [ALU_PRU] |661| 
    1943        .dwpsn  file "../spi.c",line 662,column 2,is_stmt,isa 0
    1944 0000002c 000000240128E0          LDI       r0, 0x0128            ; [ALU_PRU] |662| 
    1945 00000030 000000F1002281          LBBO      &r1, r2, 0, 4         ; [ALU_PRU] |662| spiAddr
    1946 00000034 00000000E0E1E0          ADD       r0, r1, r0            ; [ALU_PRU] |662| 
    1947 00000038 000000F100208E          LBBO      &r14, r0, 0, 4        ; [ALU_PRU] |662| 
    1948 0000003c 000000F1042281          LBBO      &r1, r2, 4, 4         ; [ALU_PRU] |662| sysTest
    1949 00000040 0000001108E1E1          AND       r1, r1, 0x08          ; [ALU_PRU] |662| 
    1950 00000044 00000012E1EEE1          OR        r1, r14, r1           ; [ALU_PRU] |662| 
    1951 00000048 000000E1002081          SBBO      &r1, r0, 0, 4         ; [ALU_PRU] |662| 
    1952        .dwpsn  file "../spi.c",line 663,column 1,is_stmt,isa 0
    1953 0000004c 0000000108E2E2          ADD       r2, r2, 0x08          ; [ALU_PRU] 
    1954        .dwcfi  cfa_offset, 0
    1955$C$DW$142       .dwtag  DW_TAG_TI_branch
    1956        .dwattr $C$DW$142, DW_AT_low_pc(0x00)
    1957        .dwattr $C$DW$142, DW_AT_TI_return
    1958 00000050 00000020C30000          JMP       r3.w2                 ; [ALU_PRU] 
    1959        .dwattr $C$DW$137, DW_AT_TI_end_file("../spi.c")
    1960        .dwattr $C$DW$137, DW_AT_TI_end_line(0x297)
    1961        .dwattr $C$DW$137, DW_AT_TI_end_column(0x01)
    1962        .dwendentry
    1963        .dwendtag $C$DW$137
    1964
    1965 00000000                         .sect   ".text:SPI_SlaveSelect"
    1966        .clink
    1967        .global ||SPI_SlaveSelect||
    1968
    1969$C$DW$143       .dwtag  DW_TAG_subprogram, DW_AT_name("SPI_SlaveSelect")
    1970        .dwattr $C$DW$143, DW_AT_low_pc(||SPI_SlaveSelect||)
    1971        .dwattr $C$DW$143, DW_AT_high_pc(0x00)
    1972        .dwattr $C$DW$143, DW_AT_TI_symbol_name("SPI_SlaveSelect")
PRU Assembler Unix v2.1.2 Thu Jan 28 12:38:40 2016

Tools Copyright (c) 2012-2015 Texas Instruments Incorporated
spi.asm                                                              PAGE   37

    1973        .dwattr $C$DW$143, DW_AT_external
    1974        .dwattr $C$DW$143, DW_AT_TI_begin_file("../spi.c")
    1975        .dwattr $C$DW$143, DW_AT_TI_begin_line(0x2a3)
    1976        .dwattr $C$DW$143, DW_AT_TI_begin_column(0x0d)
    1977        .dwattr $C$DW$143, DW_AT_decl_file("../spi.c")
    1978        .dwattr $C$DW$143, DW_AT_decl_line(0x2a3)
    1979        .dwattr $C$DW$143, DW_AT_decl_column(0x0d)
    1980        .dwattr $C$DW$143, DW_AT_TI_max_frame_size(0x08)
    1981        .dwpsn  file "../spi.c",line 676,column 1,is_stmt,address ||SPI_SlaveSelect||,isa 0
    1982
    1983        .dwfde $C$DW$CIE, ||SPI_SlaveSelect||
    1984$C$DW$144       .dwtag  DW_TAG_formal_parameter, DW_AT_name("spiAddr")
    1985        .dwattr $C$DW$144, DW_AT_TI_symbol_name("spiAddr")
    1986        .dwattr $C$DW$144, DW_AT_type(*$C$DW$T$19)
    1987        .dwattr $C$DW$144, DW_AT_location[DW_OP_regx 0x38]
    1988$C$DW$145       .dwtag  DW_TAG_formal_parameter, DW_AT_name("slaveSelect")
    1989        .dwattr $C$DW$145, DW_AT_TI_symbol_name("slaveSelect")
    1990        .dwattr $C$DW$145, DW_AT_type(*$C$DW$T$19)
    1991        .dwattr $C$DW$145, DW_AT_location[DW_OP_regx 0x3c]
    1992
    1993;***************************************************************
    1994;* FNAME: SPI_SlaveSelect               FR SIZE:   8           *
    1995;*                                                             *
    1996;* FUNCTION ENVIRONMENT                                        *
    1997;*                                                             *
    1998;* FUNCTION PROPERTIES                                         *
    1999;*                            8 Auto,  0 SOE     *
    2000;***************************************************************
    2001
    2002 00000000                 ||SPI_SlaveSelect||:
    2003;* --------------------------------------------------------------------------*
    2004        .dwcfi  cfa_offset, 0
    2005 00000000 0000000508E2E2          SUB       r2, r2, 0x08          ; [ALU_PRU] 
    2006        .dwcfi  cfa_offset, 8
    2007$C$DW$146       .dwtag  DW_TAG_variable, DW_AT_name("spiAddr")
    2008        .dwattr $C$DW$146, DW_AT_TI_symbol_name("spiAddr")
    2009        .dwattr $C$DW$146, DW_AT_type(*$C$DW$T$19)
    2010        .dwattr $C$DW$146, DW_AT_location[DW_OP_breg8 0]
    2011 00000004 00000010000000          NOP                             ; [ALU_PRU] 
    2012$C$DW$147       .dwtag  DW_TAG_variable, DW_AT_name("slaveSelect")
    2013        .dwattr $C$DW$147, DW_AT_TI_symbol_name("slaveSelect")
    2014        .dwattr $C$DW$147, DW_AT_type(*$C$DW$T$19)
    2015        .dwattr $C$DW$147, DW_AT_location[DW_OP_breg8 4]
    2016 00000008 00000010000000          NOP                             ; [ALU_PRU] 
    2017 0000000c 000000E104228F          SBBO      &r15, r2, 4, 4        ; [ALU_PRU] |676| slaveSelect
    2018 00000010 000000E100228E          SBBO      &r14, r2, 0, 4        ; [ALU_PRU] |676| spiAddr
    2019        .dwpsn  file "../spi.c",line 677,column 2,is_stmt,isa 0
    2020 00000014 00000024012CE0          LDI       r0, 0x012c            ; [ALU_PRU] |677| 
    2021 00000018 000000F1002281          LBBO      &r1, r2, 0, 4         ; [ALU_PRU] |677| spiAddr
    2022 0000001c 00000000E0E1E0          ADD       r0, r1, r0            ; [ALU_PRU] |677| 
    2023 00000020 FFFF8124FF9FC1          LDI32     r1, 0xff9fffff        ; [ALU_PRU] |677| 
         00000027 00000000004024 
    2024 00000028 000000F100208E          LBBO      &r14, r0, 0, 4        ; [ALU_PRU] |677| 
    2025 0000002c 00000010E1EEE1          AND       r1, r14, r1           ; [ALU_PRU] |677| 
    2026 00000030 000000E1002081          SBBO      &r1, r0, 0, 4         ; [ALU_PRU] |677| 
PRU Assembler Unix v2.1.2 Thu Jan 28 12:38:40 2016

Tools Copyright (c) 2012-2015 Texas Instruments Incorporated
spi.asm                                                              PAGE   38

    2027        .dwpsn  file "../spi.c",line 678,column 2,is_stmt,isa 0
    2028 00000034 00000024012CE0          LDI       r0, 0x012c            ; [ALU_PRU] |678| 
    2029 00000038 000000F1002281          LBBO      &r1, r2, 0, 4         ; [ALU_PRU] |678| spiAddr
    2030 0000003c 000000F104228E          LBBO      &r14, r2, 4, 4        ; [ALU_PRU] |678| slaveSelect
    2031 00000040 00000000E0E1E0          ADD       r0, r1, r0            ; [ALU_PRU] |678| 
    2032 00000044 000081240060C1          LDI32     r1, 0x00600000        ; [ALU_PRU] |678| 
         0000004b 00000000004024 
    2033 0000004c 00000010E1EEE1          AND       r1, r14, r1           ; [ALU_PRU] |678| 
    2034 00000050 000000F100208E          LBBO      &r14, r0, 0, 4        ; [ALU_PRU] |678| 
    2035 00000054 00000012E1EEE1          OR        r1, r14, r1           ; [ALU_PRU] |678| 
    2036 00000058 000000E1002081          SBBO      &r1, r0, 0, 4         ; [ALU_PRU] |678| 
    2037        .dwpsn  file "../spi.c",line 679,column 1,is_stmt,isa 0
    2038 0000005c 0000000108E2E2          ADD       r2, r2, 0x08          ; [ALU_PRU] 
    2039        .dwcfi  cfa_offset, 0
    2040$C$DW$148       .dwtag  DW_TAG_TI_branch
    2041        .dwattr $C$DW$148, DW_AT_low_pc(0x00)
    2042        .dwattr $C$DW$148, DW_AT_TI_return
    2043 00000060 00000020C30000          JMP       r3.w2                 ; [ALU_PRU] 
    2044        .dwattr $C$DW$143, DW_AT_TI_end_file("../spi.c")
    2045        .dwattr $C$DW$143, DW_AT_TI_end_line(0x2a7)
    2046        .dwattr $C$DW$143, DW_AT_TI_end_column(0x01)
    2047        .dwendentry
    2048        .dwendtag $C$DW$143
    2049
    2050 00000000                         .sect   ".text:SPI_TransmitData"
    2051        .clink
    2052        .global ||SPI_TransmitData||
    2053
    2054$C$DW$149       .dwtag  DW_TAG_subprogram, DW_AT_name("SPI_TransmitData")
    2055        .dwattr $C$DW$149, DW_AT_low_pc(||SPI_TransmitData||)
    2056        .dwattr $C$DW$149, DW_AT_high_pc(0x00)
    2057        .dwattr $C$DW$149, DW_AT_TI_symbol_name("SPI_TransmitData")
    2058        .dwattr $C$DW$149, DW_AT_external
    2059        .dwattr $C$DW$149, DW_AT_TI_begin_file("../spi.c")
    2060        .dwattr $C$DW$149, DW_AT_TI_begin_line(0x2b2)
    2061        .dwattr $C$DW$149, DW_AT_TI_begin_column(0x0d)
    2062        .dwattr $C$DW$149, DW_AT_decl_file("../spi.c")
    2063        .dwattr $C$DW$149, DW_AT_decl_line(0x2b2)
    2064        .dwattr $C$DW$149, DW_AT_decl_column(0x0d)
    2065        .dwattr $C$DW$149, DW_AT_TI_max_frame_size(0x0c)
    2066        .dwpsn  file "../spi.c",line 691,column 1,is_stmt,address ||SPI_TransmitData||,isa 0
    2067
    2068        .dwfde $C$DW$CIE, ||SPI_TransmitData||
    2069$C$DW$150       .dwtag  DW_TAG_formal_parameter, DW_AT_name("spiAddr")
    2070        .dwattr $C$DW$150, DW_AT_TI_symbol_name("spiAddr")
    2071        .dwattr $C$DW$150, DW_AT_type(*$C$DW$T$19)
    2072        .dwattr $C$DW$150, DW_AT_location[DW_OP_regx 0x38]
    2073$C$DW$151       .dwtag  DW_TAG_formal_parameter, DW_AT_name("txData")
    2074        .dwattr $C$DW$151, DW_AT_TI_symbol_name("txData")
    2075        .dwattr $C$DW$151, DW_AT_type(*$C$DW$T$19)
    2076        .dwattr $C$DW$151, DW_AT_location[DW_OP_regx 0x3c]
    2077$C$DW$152       .dwtag  DW_TAG_formal_parameter, DW_AT_name("chNum")
    2078        .dwattr $C$DW$152, DW_AT_TI_symbol_name("chNum")
    2079        .dwattr $C$DW$152, DW_AT_type(*$C$DW$T$19)
    2080        .dwattr $C$DW$152, DW_AT_location[DW_OP_regx 0x40]
PRU Assembler Unix v2.1.2 Thu Jan 28 12:38:40 2016

Tools Copyright (c) 2012-2015 Texas Instruments Incorporated
spi.asm                                                              PAGE   39

    2081
    2082;***************************************************************
    2083;* FNAME: SPI_TransmitData              FR SIZE:  12           *
    2084;*                                                             *
    2085;* FUNCTION ENVIRONMENT                                        *
    2086;*                                                             *
    2087;* FUNCTION PROPERTIES                                         *
    2088;*                           12 Auto,  0 SOE     *
    2089;***************************************************************
    2090
    2091 00000000                 ||SPI_TransmitData||:
    2092;* --------------------------------------------------------------------------*
    2093        .dwcfi  cfa_offset, 0
    2094 00000000 000000050CE2E2          SUB       r2, r2, 0x0c          ; [ALU_PRU] 
    2095        .dwcfi  cfa_offset, 12
    2096$C$DW$153       .dwtag  DW_TAG_variable, DW_AT_name("spiAddr")
    2097        .dwattr $C$DW$153, DW_AT_TI_symbol_name("spiAddr")
    2098        .dwattr $C$DW$153, DW_AT_type(*$C$DW$T$19)
    2099        .dwattr $C$DW$153, DW_AT_location[DW_OP_breg8 0]
    2100 00000004 00000010000000          NOP                             ; [ALU_PRU] 
    2101$C$DW$154       .dwtag  DW_TAG_variable, DW_AT_name("txData")
    2102        .dwattr $C$DW$154, DW_AT_TI_symbol_name("txData")
    2103        .dwattr $C$DW$154, DW_AT_type(*$C$DW$T$19)
    2104        .dwattr $C$DW$154, DW_AT_location[DW_OP_breg8 4]
    2105 00000008 00000010000000          NOP                             ; [ALU_PRU] 
    2106$C$DW$155       .dwtag  DW_TAG_variable, DW_AT_name("chNum")
    2107        .dwattr $C$DW$155, DW_AT_TI_symbol_name("chNum")
    2108        .dwattr $C$DW$155, DW_AT_type(*$C$DW$T$19)
    2109        .dwattr $C$DW$155, DW_AT_location[DW_OP_breg8 8]
    2110 0000000c 00000010000000          NOP                             ; [ALU_PRU] 
    2111 00000010 000000E1082290          SBBO      &r16, r2, 8, 4        ; [ALU_PRU] |691| chNum
    2112 00000014 000000E104228F          SBBO      &r15, r2, 4, 4        ; [ALU_PRU] |691| txData
    2113 00000018 000000E100228E          SBBO      &r14, r2, 0, 4        ; [ALU_PRU] |691| spiAddr
    2114        .dwpsn  file "../spi.c",line 692,column 2,is_stmt,isa 0
    2115 0000001c 0000002401388E          LDI       r14.w0, 0x0138        ; [ALU_PRU] |692| 
    2116 00000020 000000F1082280          LBBO      &r0, r2, 8, 4         ; [ALU_PRU] |692| chNum
    2117 00000024 0000000902E0E1          LSL       r1, r0, 0x02          ; [ALU_PRU] |692| 
    2118 00000028 0000000904E0E0          LSL       r0, r0, 0x04          ; [ALU_PRU] |692| 
    2119 0000002c 00000000E1E0E0          ADD       r0, r0, r1            ; [ALU_PRU] |692| 
    2120 00000030 000000F1002281          LBBO      &r1, r2, 0, 4         ; [ALU_PRU] |692| spiAddr
    2121 00000034 00000000E0E1E1          ADD       r1, r1, r0            ; [ALU_PRU] |692| 
    2122 00000038 000000F1042280          LBBO      &r0, r2, 4, 4         ; [ALU_PRU] |692| txData
    2123 0000003c 000000E08E2180          SBBO      &r0, r1, r14.w0, 4    ; [ALU_PRU] |692| 
    2124        .dwpsn  file "../spi.c",line 693,column 1,is_stmt,isa 0
    2125 00000040 000000010CE2E2          ADD       r2, r2, 0x0c          ; [ALU_PRU] 
    2126        .dwcfi  cfa_offset, 0
    2127$C$DW$156       .dwtag  DW_TAG_TI_branch
    2128        .dwattr $C$DW$156, DW_AT_low_pc(0x00)
    2129        .dwattr $C$DW$156, DW_AT_TI_return
    2130 00000044 00000020C30000          JMP       r3.w2                 ; [ALU_PRU] 
    2131        .dwattr $C$DW$149, DW_AT_TI_end_file("../spi.c")
    2132        .dwattr $C$DW$149, DW_AT_TI_end_line(0x2b5)
    2133        .dwattr $C$DW$149, DW_AT_TI_end_column(0x01)
    2134        .dwendentry
    2135        .dwendtag $C$DW$149
PRU Assembler Unix v2.1.2 Thu Jan 28 12:38:40 2016

Tools Copyright (c) 2012-2015 Texas Instruments Incorporated
spi.asm                                                              PAGE   40

    2136
    2137 00000000                         .sect   ".text:SPI_ReceiveData"
    2138        .clink
    2139        .global ||SPI_ReceiveData||
    2140
    2141$C$DW$157       .dwtag  DW_TAG_subprogram, DW_AT_name("SPI_ReceiveData")
    2142        .dwattr $C$DW$157, DW_AT_low_pc(||SPI_ReceiveData||)
    2143        .dwattr $C$DW$157, DW_AT_high_pc(0x00)
    2144        .dwattr $C$DW$157, DW_AT_TI_symbol_name("SPI_ReceiveData")
    2145        .dwattr $C$DW$157, DW_AT_external
    2146        .dwattr $C$DW$157, DW_AT_type(*$C$DW$T$19)
    2147        .dwattr $C$DW$157, DW_AT_TI_begin_file("../spi.c")
    2148        .dwattr $C$DW$157, DW_AT_TI_begin_line(0x2c0)
    2149        .dwattr $C$DW$157, DW_AT_TI_begin_column(0x11)
    2150        .dwattr $C$DW$157, DW_AT_decl_file("../spi.c")
    2151        .dwattr $C$DW$157, DW_AT_decl_line(0x2c0)
    2152        .dwattr $C$DW$157, DW_AT_decl_column(0x11)
    2153        .dwattr $C$DW$157, DW_AT_TI_max_frame_size(0x08)
    2154        .dwpsn  file "../spi.c",line 705,column 1,is_stmt,address ||SPI_ReceiveData||,isa 0
    2155
    2156        .dwfde $C$DW$CIE, ||SPI_ReceiveData||
    2157$C$DW$158       .dwtag  DW_TAG_formal_parameter, DW_AT_name("spiAddr")
    2158        .dwattr $C$DW$158, DW_AT_TI_symbol_name("spiAddr")
    2159        .dwattr $C$DW$158, DW_AT_type(*$C$DW$T$19)
    2160        .dwattr $C$DW$158, DW_AT_location[DW_OP_regx 0x38]
    2161$C$DW$159       .dwtag  DW_TAG_formal_parameter, DW_AT_name("chNum")
    2162        .dwattr $C$DW$159, DW_AT_TI_symbol_name("chNum")
    2163        .dwattr $C$DW$159, DW_AT_type(*$C$DW$T$19)
    2164        .dwattr $C$DW$159, DW_AT_location[DW_OP_regx 0x3c]
    2165
    2166;***************************************************************
    2167;* FNAME: SPI_ReceiveData               FR SIZE:   8           *
    2168;*                                                             *
    2169;* FUNCTION ENVIRONMENT                                        *
    2170;*                                                             *
    2171;* FUNCTION PROPERTIES                                         *
    2172;*                            8 Auto,  0 SOE     *
    2173;***************************************************************
    2174
    2175 00000000                 ||SPI_ReceiveData||:
    2176;* --------------------------------------------------------------------------*
    2177        .dwcfi  cfa_offset, 0
    2178 00000000 0000000508E2E2          SUB       r2, r2, 0x08          ; [ALU_PRU] 
    2179        .dwcfi  cfa_offset, 8
    2180$C$DW$160       .dwtag  DW_TAG_variable, DW_AT_name("spiAddr")
    2181        .dwattr $C$DW$160, DW_AT_TI_symbol_name("spiAddr")
    2182        .dwattr $C$DW$160, DW_AT_type(*$C$DW$T$19)
    2183        .dwattr $C$DW$160, DW_AT_location[DW_OP_breg8 0]
    2184 00000004 00000010000000          NOP                             ; [ALU_PRU] 
    2185$C$DW$161       .dwtag  DW_TAG_variable, DW_AT_name("chNum")
    2186        .dwattr $C$DW$161, DW_AT_TI_symbol_name("chNum")
    2187        .dwattr $C$DW$161, DW_AT_type(*$C$DW$T$19)
    2188        .dwattr $C$DW$161, DW_AT_location[DW_OP_breg8 4]
    2189 00000008 00000010000000          NOP                             ; [ALU_PRU] 
    2190 0000000c 000000E104228F          SBBO      &r15, r2, 4, 4        ; [ALU_PRU] |705| chNum
PRU Assembler Unix v2.1.2 Thu Jan 28 12:38:40 2016

Tools Copyright (c) 2012-2015 Texas Instruments Incorporated
spi.asm                                                              PAGE   41

    2191 00000010 000000E100228E          SBBO      &r14, r2, 0, 4        ; [ALU_PRU] |705| spiAddr
    2192        .dwpsn  file "../spi.c",line 706,column 2,is_stmt,isa 0
    2193 00000014 000000F1042280          LBBO      &r0, r2, 4, 4         ; [ALU_PRU] |706| chNum
    2194 00000018 0000000902E0E1          LSL       r1, r0, 0x02          ; [ALU_PRU] |706| 
    2195 0000001c 0000000904E0E0          LSL       r0, r0, 0x04          ; [ALU_PRU] |706| 
    2196 00000020 00000000E1E0E0          ADD       r0, r0, r1            ; [ALU_PRU] |706| 
    2197 00000024 000000F1002281          LBBO      &r1, r2, 0, 4         ; [ALU_PRU] |706| spiAddr
    2198 00000028 00000000E0E1E0          ADD       r0, r1, r0            ; [ALU_PRU] |706| 
    2199 0000002c 00000024013C81          LDI       r1.w0, 0x013c         ; [ALU_PRU] |706| 
    2200 00000030 000000F081208E          LBBO      &r14, r0, r1.w0, 4    ; [ALU_PRU] |706| 
    2201        .dwpsn  file "../spi.c",line 707,column 1,is_stmt,isa 0
    2202 00000034 0000000108E2E2          ADD       r2, r2, 0x08          ; [ALU_PRU] 
    2203        .dwcfi  cfa_offset, 0
    2204$C$DW$162       .dwtag  DW_TAG_TI_branch
    2205        .dwattr $C$DW$162, DW_AT_low_pc(0x00)
    2206        .dwattr $C$DW$162, DW_AT_TI_return
    2207 00000038 00000020C30000          JMP       r3.w2                 ; [ALU_PRU] 
    2208        .dwattr $C$DW$157, DW_AT_TI_end_file("../spi.c")
    2209        .dwattr $C$DW$157, DW_AT_TI_end_line(0x2c3)
    2210        .dwattr $C$DW$157, DW_AT_TI_end_column(0x01)
    2211        .dwendentry
    2212        .dwendtag $C$DW$157
    2213
    2214 00000000                         .sect   ".text:SPI_IntStatusGet"
    2215        .clink
    2216        .global ||SPI_IntStatusGet||
    2217
    2218$C$DW$163       .dwtag  DW_TAG_subprogram, DW_AT_name("SPI_IntStatusGet")
    2219        .dwattr $C$DW$163, DW_AT_low_pc(||SPI_IntStatusGet||)
    2220        .dwattr $C$DW$163, DW_AT_high_pc(0x00)
    2221        .dwattr $C$DW$163, DW_AT_TI_symbol_name("SPI_IntStatusGet")
    2222        .dwattr $C$DW$163, DW_AT_external
    2223        .dwattr $C$DW$163, DW_AT_type(*$C$DW$T$19)
    2224        .dwattr $C$DW$163, DW_AT_TI_begin_file("../spi.c")
    2225        .dwattr $C$DW$163, DW_AT_TI_begin_line(0x2d0)
    2226        .dwattr $C$DW$163, DW_AT_TI_begin_column(0x11)
    2227        .dwattr $C$DW$163, DW_AT_decl_file("../spi.c")
    2228        .dwattr $C$DW$163, DW_AT_decl_line(0x2d0)
    2229        .dwattr $C$DW$163, DW_AT_decl_column(0x11)
    2230        .dwattr $C$DW$163, DW_AT_TI_max_frame_size(0x04)
    2231        .dwpsn  file "../spi.c",line 721,column 1,is_stmt,address ||SPI_IntStatusGet||,isa 0
    2232
    2233        .dwfde $C$DW$CIE, ||SPI_IntStatusGet||
    2234$C$DW$164       .dwtag  DW_TAG_formal_parameter, DW_AT_name("spiAddr")
    2235        .dwattr $C$DW$164, DW_AT_TI_symbol_name("spiAddr")
    2236        .dwattr $C$DW$164, DW_AT_type(*$C$DW$T$19)
    2237        .dwattr $C$DW$164, DW_AT_location[DW_OP_regx 0x38]
    2238
    2239;***************************************************************
    2240;* FNAME: SPI_IntStatusGet              FR SIZE:   4           *
    2241;*                                                             *
    2242;* FUNCTION ENVIRONMENT                                        *
    2243;*                                                             *
    2244;* FUNCTION PROPERTIES                                         *
    2245;*                            4 Auto,  0 SOE     *
PRU Assembler Unix v2.1.2 Thu Jan 28 12:38:40 2016

Tools Copyright (c) 2012-2015 Texas Instruments Incorporated
spi.asm                                                              PAGE   42

    2246;***************************************************************
    2247
    2248 00000000                 ||SPI_IntStatusGet||:
    2249;* --------------------------------------------------------------------------*
    2250        .dwcfi  cfa_offset, 0
    2251 00000000 0000000504E2E2          SUB       r2, r2, 0x04          ; [ALU_PRU] 
    2252        .dwcfi  cfa_offset, 4
    2253$C$DW$165       .dwtag  DW_TAG_variable, DW_AT_name("spiAddr")
    2254        .dwattr $C$DW$165, DW_AT_TI_symbol_name("spiAddr")
    2255        .dwattr $C$DW$165, DW_AT_type(*$C$DW$T$19)
    2256        .dwattr $C$DW$165, DW_AT_location[DW_OP_breg8 0]
    2257 00000004 00000010000000          NOP                             ; [ALU_PRU] 
    2258 00000008 000000E100228E          SBBO      &r14, r2, 0, 4        ; [ALU_PRU] |721| spiAddr
    2259        .dwpsn  file "../spi.c",line 722,column 2,is_stmt,isa 0
    2260 0000000c 00000024011881          LDI       r1.w0, 0x0118         ; [ALU_PRU] |722| 
    2261 00000010 000000F1002280          LBBO      &r0, r2, 0, 4         ; [ALU_PRU] |722| spiAddr
    2262 00000014 000000F081208E          LBBO      &r14, r0, r1.w0, 4    ; [ALU_PRU] |722| 
    2263        .dwpsn  file "../spi.c",line 723,column 1,is_stmt,isa 0
    2264 00000018 0000000104E2E2          ADD       r2, r2, 0x04          ; [ALU_PRU] 
    2265        .dwcfi  cfa_offset, 0
    2266$C$DW$166       .dwtag  DW_TAG_TI_branch
    2267        .dwattr $C$DW$166, DW_AT_low_pc(0x00)
    2268        .dwattr $C$DW$166, DW_AT_TI_return
    2269 0000001c 00000020C30000          JMP       r3.w2                 ; [ALU_PRU] 
    2270        .dwattr $C$DW$163, DW_AT_TI_end_file("../spi.c")
    2271        .dwattr $C$DW$163, DW_AT_TI_end_line(0x2d3)
    2272        .dwattr $C$DW$163, DW_AT_TI_end_column(0x01)
    2273        .dwendentry
    2274        .dwendtag $C$DW$163
    2275
    2276 00000000                         .sect   ".text:SPI_IntStatusClear"
    2277        .clink
    2278        .global ||SPI_IntStatusClear||
    2279
    2280$C$DW$167       .dwtag  DW_TAG_subprogram, DW_AT_name("SPI_IntStatusClear")
    2281        .dwattr $C$DW$167, DW_AT_low_pc(||SPI_IntStatusClear||)
    2282        .dwattr $C$DW$167, DW_AT_high_pc(0x00)
    2283        .dwattr $C$DW$167, DW_AT_TI_symbol_name("SPI_IntStatusClear")
    2284        .dwattr $C$DW$167, DW_AT_external
    2285        .dwattr $C$DW$167, DW_AT_TI_begin_file("../spi.c")
    2286        .dwattr $C$DW$167, DW_AT_TI_begin_line(0x2e0)
    2287        .dwattr $C$DW$167, DW_AT_TI_begin_column(0x0d)
    2288        .dwattr $C$DW$167, DW_AT_decl_file("../spi.c")
    2289        .dwattr $C$DW$167, DW_AT_decl_line(0x2e0)
    2290        .dwattr $C$DW$167, DW_AT_decl_column(0x0d)
    2291        .dwattr $C$DW$167, DW_AT_TI_max_frame_size(0x08)
    2292        .dwpsn  file "../spi.c",line 737,column 1,is_stmt,address ||SPI_IntStatusClear||,isa 0
    2293
    2294        .dwfde $C$DW$CIE, ||SPI_IntStatusClear||
    2295$C$DW$168       .dwtag  DW_TAG_formal_parameter, DW_AT_name("spiAddr")
    2296        .dwattr $C$DW$168, DW_AT_TI_symbol_name("spiAddr")
    2297        .dwattr $C$DW$168, DW_AT_type(*$C$DW$T$19)
    2298        .dwattr $C$DW$168, DW_AT_location[DW_OP_regx 0x38]
    2299$C$DW$169       .dwtag  DW_TAG_formal_parameter, DW_AT_name("intFlags")
    2300        .dwattr $C$DW$169, DW_AT_TI_symbol_name("intFlags")
PRU Assembler Unix v2.1.2 Thu Jan 28 12:38:40 2016

Tools Copyright (c) 2012-2015 Texas Instruments Incorporated
spi.asm                                                              PAGE   43

    2301        .dwattr $C$DW$169, DW_AT_type(*$C$DW$T$19)
    2302        .dwattr $C$DW$169, DW_AT_location[DW_OP_regx 0x3c]
    2303
    2304;***************************************************************
    2305;* FNAME: SPI_IntStatusClear            FR SIZE:   8           *
    2306;*                                                             *
    2307;* FUNCTION ENVIRONMENT                                        *
    2308;*                                                             *
    2309;* FUNCTION PROPERTIES                                         *
    2310;*                            8 Auto,  0 SOE     *
    2311;***************************************************************
    2312
    2313 00000000                 ||SPI_IntStatusClear||:
    2314;* --------------------------------------------------------------------------*
    2315        .dwcfi  cfa_offset, 0
    2316 00000000 0000000508E2E2          SUB       r2, r2, 0x08          ; [ALU_PRU] 
    2317        .dwcfi  cfa_offset, 8
    2318$C$DW$170       .dwtag  DW_TAG_variable, DW_AT_name("spiAddr")
    2319        .dwattr $C$DW$170, DW_AT_TI_symbol_name("spiAddr")
    2320        .dwattr $C$DW$170, DW_AT_type(*$C$DW$T$19)
    2321        .dwattr $C$DW$170, DW_AT_location[DW_OP_breg8 0]
    2322 00000004 00000010000000          NOP                             ; [ALU_PRU] 
    2323$C$DW$171       .dwtag  DW_TAG_variable, DW_AT_name("intFlags")
    2324        .dwattr $C$DW$171, DW_AT_TI_symbol_name("intFlags")
    2325        .dwattr $C$DW$171, DW_AT_type(*$C$DW$T$19)
    2326        .dwattr $C$DW$171, DW_AT_location[DW_OP_breg8 4]
    2327 00000008 00000010000000          NOP                             ; [ALU_PRU] 
    2328 0000000c 000000E104228F          SBBO      &r15, r2, 4, 4        ; [ALU_PRU] |737| intFlags
    2329 00000010 000000E100228E          SBBO      &r14, r2, 0, 4        ; [ALU_PRU] |737| spiAddr
    2330        .dwpsn  file "../spi.c",line 738,column 2,is_stmt,isa 0
    2331 00000014 000000240124E0          LDI       r0, 0x0124            ; [ALU_PRU] |738| 
    2332 00000018 000000F1002281          LBBO      &r1, r2, 0, 4         ; [ALU_PRU] |738| spiAddr
    2333 0000001c 00000000E0E1E0          ADD       r0, r1, r0            ; [ALU_PRU] |738| 
    2334 00000020 000000F1002081          LBBO      &r1, r0, 0, 4         ; [ALU_PRU] |738| 
    2335 00000024 0000001D0BE1E1          CLR       r1, r1, 0x0000000b    ; [ALU_PRU] |738| 
    2336 00000028 000000E1002081          SBBO      &r1, r0, 0, 4         ; [ALU_PRU] |738| 
    2337        .dwpsn  file "../spi.c",line 739,column 2,is_stmt,isa 0
    2338 0000002c 0000002401188E          LDI       r14.w0, 0x0118        ; [ALU_PRU] |739| 
    2339 00000030 000000F1002281          LBBO      &r1, r2, 0, 4         ; [ALU_PRU] |739| spiAddr
    2340 00000034 000000F1042280          LBBO      &r0, r2, 4, 4         ; [ALU_PRU] |739| intFlags
    2341 00000038 000000E08E2180          SBBO      &r0, r1, r14.w0, 4    ; [ALU_PRU] |739| 
    2342        .dwpsn  file "../spi.c",line 740,column 1,is_stmt,isa 0
    2343 0000003c 0000000108E2E2          ADD       r2, r2, 0x08          ; [ALU_PRU] 
    2344        .dwcfi  cfa_offset, 0
    2345$C$DW$172       .dwtag  DW_TAG_TI_branch
    2346        .dwattr $C$DW$172, DW_AT_low_pc(0x00)
    2347        .dwattr $C$DW$172, DW_AT_TI_return
    2348 00000040 00000020C30000          JMP       r3.w2                 ; [ALU_PRU] 
    2349        .dwattr $C$DW$167, DW_AT_TI_end_file("../spi.c")
    2350        .dwattr $C$DW$167, DW_AT_TI_end_line(0x2e4)
    2351        .dwattr $C$DW$167, DW_AT_TI_end_column(0x01)
    2352        .dwendentry
    2353        .dwendtag $C$DW$167
    2354
    2355 00000000                         .sect   ".text:SPI_ChannelStatusGet"
PRU Assembler Unix v2.1.2 Thu Jan 28 12:38:40 2016

Tools Copyright (c) 2012-2015 Texas Instruments Incorporated
spi.asm                                                              PAGE   44

    2356        .clink
    2357        .global ||SPI_ChannelStatusGet||
    2358
    2359$C$DW$173       .dwtag  DW_TAG_subprogram, DW_AT_name("SPI_ChannelStatusGet")
    2360        .dwattr $C$DW$173, DW_AT_low_pc(||SPI_ChannelStatusGet||)
    2361        .dwattr $C$DW$173, DW_AT_high_pc(0x00)
    2362        .dwattr $C$DW$173, DW_AT_TI_symbol_name("SPI_ChannelStatusGet")
    2363        .dwattr $C$DW$173, DW_AT_external
    2364        .dwattr $C$DW$173, DW_AT_type(*$C$DW$T$19)
    2365        .dwattr $C$DW$173, DW_AT_TI_begin_file("../spi.c")
    2366        .dwattr $C$DW$173, DW_AT_TI_begin_line(0x3b4)
    2367        .dwattr $C$DW$173, DW_AT_TI_begin_column(0x11)
    2368        .dwattr $C$DW$173, DW_AT_decl_file("../spi.c")
    2369        .dwattr $C$DW$173, DW_AT_decl_line(0x3b4)
    2370        .dwattr $C$DW$173, DW_AT_decl_column(0x11)
    2371        .dwattr $C$DW$173, DW_AT_TI_max_frame_size(0x08)
    2372        .dwpsn  file "../spi.c",line 949,column 1,is_stmt,address ||SPI_ChannelStatusGet||,isa 0
    2373
    2374        .dwfde $C$DW$CIE, ||SPI_ChannelStatusGet||
    2375$C$DW$174       .dwtag  DW_TAG_formal_parameter, DW_AT_name("spiAddr")
    2376        .dwattr $C$DW$174, DW_AT_TI_symbol_name("spiAddr")
    2377        .dwattr $C$DW$174, DW_AT_type(*$C$DW$T$19)
    2378        .dwattr $C$DW$174, DW_AT_location[DW_OP_regx 0x38]
    2379$C$DW$175       .dwtag  DW_TAG_formal_parameter, DW_AT_name("chNum")
    2380        .dwattr $C$DW$175, DW_AT_TI_symbol_name("chNum")
    2381        .dwattr $C$DW$175, DW_AT_type(*$C$DW$T$19)
    2382        .dwattr $C$DW$175, DW_AT_location[DW_OP_regx 0x3c]
    2383
    2384;***************************************************************
    2385;* FNAME: SPI_ChannelStatusGet          FR SIZE:   8           *
    2386;*                                                             *
    2387;* FUNCTION ENVIRONMENT                                        *
    2388;*                                                             *
    2389;* FUNCTION PROPERTIES                                         *
    2390;*                            8 Auto,  0 SOE     *
    2391;***************************************************************
    2392
    2393 00000000                 ||SPI_ChannelStatusGet||:
    2394;* --------------------------------------------------------------------------*
    2395        .dwcfi  cfa_offset, 0
    2396 00000000 0000000508E2E2          SUB       r2, r2, 0x08          ; [ALU_PRU] 
    2397        .dwcfi  cfa_offset, 8
    2398$C$DW$176       .dwtag  DW_TAG_variable, DW_AT_name("spiAddr")
    2399        .dwattr $C$DW$176, DW_AT_TI_symbol_name("spiAddr")
    2400        .dwattr $C$DW$176, DW_AT_type(*$C$DW$T$19)
    2401        .dwattr $C$DW$176, DW_AT_location[DW_OP_breg8 0]
    2402 00000004 00000010000000          NOP                             ; [ALU_PRU] 
    2403$C$DW$177       .dwtag  DW_TAG_variable, DW_AT_name("chNum")
    2404        .dwattr $C$DW$177, DW_AT_TI_symbol_name("chNum")
    2405        .dwattr $C$DW$177, DW_AT_type(*$C$DW$T$19)
    2406        .dwattr $C$DW$177, DW_AT_location[DW_OP_breg8 4]
    2407 00000008 00000010000000          NOP                             ; [ALU_PRU] 
    2408 0000000c 000000E104228F          SBBO      &r15, r2, 4, 4        ; [ALU_PRU] |949| chNum
    2409 00000010 000000E100228E          SBBO      &r14, r2, 0, 4        ; [ALU_PRU] |949| spiAddr
    2410        .dwpsn  file "../spi.c",line 950,column 2,is_stmt,isa 0
PRU Assembler Unix v2.1.2 Thu Jan 28 12:38:40 2016

Tools Copyright (c) 2012-2015 Texas Instruments Incorporated
spi.asm                                                              PAGE   45

    2411 00000014 000000F1042280          LBBO      &r0, r2, 4, 4         ; [ALU_PRU] |950| chNum
    2412 00000018 0000000902E0E1          LSL       r1, r0, 0x02          ; [ALU_PRU] |950| 
    2413 0000001c 0000000904E0E0          LSL       r0, r0, 0x04          ; [ALU_PRU] |950| 
    2414 00000020 00000000E1E0E0          ADD       r0, r0, r1            ; [ALU_PRU] |950| 
    2415 00000024 000000F1002281          LBBO      &r1, r2, 0, 4         ; [ALU_PRU] |950| spiAddr
    2416 00000028 00000000E0E1E0          ADD       r0, r1, r0            ; [ALU_PRU] |950| 
    2417 0000002c 00000024013081          LDI       r1.w0, 0x0130         ; [ALU_PRU] |950| 
    2418 00000030 000000F081208E          LBBO      &r14, r0, r1.w0, 4    ; [ALU_PRU] |950| 
    2419        .dwpsn  file "../spi.c",line 951,column 1,is_stmt,isa 0
    2420 00000034 0000000108E2E2          ADD       r2, r2, 0x08          ; [ALU_PRU] 
    2421        .dwcfi  cfa_offset, 0
    2422$C$DW$178       .dwtag  DW_TAG_TI_branch
    2423        .dwattr $C$DW$178, DW_AT_low_pc(0x00)
    2424        .dwattr $C$DW$178, DW_AT_TI_return
    2425 00000038 00000020C30000          JMP       r3.w2                 ; [ALU_PRU] 
    2426        .dwattr $C$DW$173, DW_AT_TI_end_file("../spi.c")
    2427        .dwattr $C$DW$173, DW_AT_TI_end_line(0x3b7)
    2428        .dwattr $C$DW$173, DW_AT_TI_end_column(0x01)
    2429        .dwendentry
    2430        .dwendtag $C$DW$173
    2431
    2432 00000000                         .sect   ".text:SPI_MultiWordAccessConfig"
    2433        .clink
    2434        .global ||SPI_MultiWordAccessConfig||
    2435
    2436$C$DW$179       .dwtag  DW_TAG_subprogram, DW_AT_name("SPI_MultiWordAccessConfig")
    2437        .dwattr $C$DW$179, DW_AT_low_pc(||SPI_MultiWordAccessConfig||)
    2438        .dwattr $C$DW$179, DW_AT_high_pc(0x00)
    2439        .dwattr $C$DW$179, DW_AT_TI_symbol_name("SPI_MultiWordAccessConfig")
    2440        .dwattr $C$DW$179, DW_AT_external
    2441        .dwattr $C$DW$179, DW_AT_TI_begin_file("../spi.c")
    2442        .dwattr $C$DW$179, DW_AT_TI_begin_line(0x3c3)
    2443        .dwattr $C$DW$179, DW_AT_TI_begin_column(0x0d)
    2444        .dwattr $C$DW$179, DW_AT_decl_file("../spi.c")
    2445        .dwattr $C$DW$179, DW_AT_decl_line(0x3c3)
    2446        .dwattr $C$DW$179, DW_AT_decl_column(0x0d)
    2447        .dwattr $C$DW$179, DW_AT_TI_max_frame_size(0x08)
    2448        .dwpsn  file "../spi.c",line 964,column 1,is_stmt,address ||SPI_MultiWordAccessConfig||,isa 0
    2449
    2450        .dwfde $C$DW$CIE, ||SPI_MultiWordAccessConfig||
    2451$C$DW$180       .dwtag  DW_TAG_formal_parameter, DW_AT_name("spiAddr")
    2452        .dwattr $C$DW$180, DW_AT_TI_symbol_name("spiAddr")
    2453        .dwattr $C$DW$180, DW_AT_type(*$C$DW$T$19)
    2454        .dwattr $C$DW$180, DW_AT_location[DW_OP_regx 0x38]
    2455$C$DW$181       .dwtag  DW_TAG_formal_parameter, DW_AT_name("moa")
    2456        .dwattr $C$DW$181, DW_AT_TI_symbol_name("moa")
    2457        .dwattr $C$DW$181, DW_AT_type(*$C$DW$T$19)
    2458        .dwattr $C$DW$181, DW_AT_location[DW_OP_regx 0x3c]
    2459
    2460;***************************************************************
    2461;* FNAME: SPI_MultiWordAccessConfig     FR SIZE:   8           *
    2462;*                                                             *
    2463;* FUNCTION ENVIRONMENT                                        *
    2464;*                                                             *
    2465;* FUNCTION PROPERTIES                                         *
PRU Assembler Unix v2.1.2 Thu Jan 28 12:38:40 2016

Tools Copyright (c) 2012-2015 Texas Instruments Incorporated
spi.asm                                                              PAGE   46

    2466;*                            8 Auto,  0 SOE     *
    2467;***************************************************************
    2468
    2469 00000000                 ||SPI_MultiWordAccessConfig||:
    2470;* --------------------------------------------------------------------------*
    2471        .dwcfi  cfa_offset, 0
    2472 00000000 0000000508E2E2          SUB       r2, r2, 0x08          ; [ALU_PRU] 
    2473        .dwcfi  cfa_offset, 8
    2474$C$DW$182       .dwtag  DW_TAG_variable, DW_AT_name("spiAddr")
    2475        .dwattr $C$DW$182, DW_AT_TI_symbol_name("spiAddr")
    2476        .dwattr $C$DW$182, DW_AT_type(*$C$DW$T$19)
    2477        .dwattr $C$DW$182, DW_AT_location[DW_OP_breg8 0]
    2478 00000004 00000010000000          NOP                             ; [ALU_PRU] 
    2479$C$DW$183       .dwtag  DW_TAG_variable, DW_AT_name("moa")
    2480        .dwattr $C$DW$183, DW_AT_TI_symbol_name("moa")
    2481        .dwattr $C$DW$183, DW_AT_type(*$C$DW$T$19)
    2482        .dwattr $C$DW$183, DW_AT_location[DW_OP_breg8 4]
    2483 00000008 00000010000000          NOP                             ; [ALU_PRU] 
    2484 0000000c 000000E104228F          SBBO      &r15, r2, 4, 4        ; [ALU_PRU] |964| moa
    2485 00000010 000000E100228E          SBBO      &r14, r2, 0, 4        ; [ALU_PRU] |964| spiAddr
    2486        .dwpsn  file "../spi.c",line 965,column 2,is_stmt,isa 0
    2487 00000014 000000240128E0          LDI       r0, 0x0128            ; [ALU_PRU] |965| 
    2488 00000018 000000F1002281          LBBO      &r1, r2, 0, 4         ; [ALU_PRU] |965| spiAddr
    2489 0000001c 00000000E0E1E0          ADD       r0, r1, r0            ; [ALU_PRU] |965| 
    2490 00000020 000000F1002081          LBBO      &r1, r0, 0, 4         ; [ALU_PRU] |965| 
    2491 00000024 0000001D07E1E1          CLR       r1, r1, 0x00000007    ; [ALU_PRU] |965| 
    2492 00000028 000000E1002081          SBBO      &r1, r0, 0, 4         ; [ALU_PRU] |965| 
    2493        .dwpsn  file "../spi.c",line 966,column 2,is_stmt,isa 0
    2494 0000002c 000000240128E0          LDI       r0, 0x0128            ; [ALU_PRU] |966| 
    2495 00000030 000000F1002281          LBBO      &r1, r2, 0, 4         ; [ALU_PRU] |966| spiAddr
    2496 00000034 00000000E0E1E0          ADD       r0, r1, r0            ; [ALU_PRU] |966| 
    2497 00000038 000000F100208E          LBBO      &r14, r0, 0, 4        ; [ALU_PRU] |966| 
    2498 0000003c 000000F1042281          LBBO      &r1, r2, 4, 4         ; [ALU_PRU] |966| moa
    2499 00000040 0000001180E1E1          AND       r1, r1, 0x80          ; [ALU_PRU] |966| 
    2500 00000044 00000012E1EEE1          OR        r1, r14, r1           ; [ALU_PRU] |966| 
    2501 00000048 000000E1002081          SBBO      &r1, r0, 0, 4         ; [ALU_PRU] |966| 
    2502        .dwpsn  file "../spi.c",line 967,column 1,is_stmt,isa 0
    2503 0000004c 0000000108E2E2          ADD       r2, r2, 0x08          ; [ALU_PRU] 
    2504        .dwcfi  cfa_offset, 0
    2505$C$DW$184       .dwtag  DW_TAG_TI_branch
    2506        .dwattr $C$DW$184, DW_AT_low_pc(0x00)
    2507        .dwattr $C$DW$184, DW_AT_TI_return
    2508 00000050 00000020C30000          JMP       r3.w2                 ; [ALU_PRU] 
    2509        .dwattr $C$DW$179, DW_AT_TI_end_file("../spi.c")
    2510        .dwattr $C$DW$179, DW_AT_TI_end_line(0x3c7)
    2511        .dwattr $C$DW$179, DW_AT_TI_end_column(0x01)
    2512        .dwendentry
    2513        .dwendtag $C$DW$179
    2514
    2515 00000000                         .sect   ".text:SPI_FIFODatSet"
    2516        .clink
    2517        .global ||SPI_FIFODatSet||
    2518
    2519$C$DW$185       .dwtag  DW_TAG_subprogram, DW_AT_name("SPI_FIFODatSet")
    2520        .dwattr $C$DW$185, DW_AT_low_pc(||SPI_FIFODatSet||)
PRU Assembler Unix v2.1.2 Thu Jan 28 12:38:40 2016

Tools Copyright (c) 2012-2015 Texas Instruments Incorporated
spi.asm                                                              PAGE   47

    2521        .dwattr $C$DW$185, DW_AT_high_pc(0x00)
    2522        .dwattr $C$DW$185, DW_AT_TI_symbol_name("SPI_FIFODatSet")
    2523        .dwattr $C$DW$185, DW_AT_external
    2524        .dwattr $C$DW$185, DW_AT_TI_begin_file("../spi.c")
    2525        .dwattr $C$DW$185, DW_AT_TI_begin_line(0x3d3)
    2526        .dwattr $C$DW$185, DW_AT_TI_begin_column(0x0d)
    2527        .dwattr $C$DW$185, DW_AT_decl_file("../spi.c")
    2528        .dwattr $C$DW$185, DW_AT_decl_line(0x3d3)
    2529        .dwattr $C$DW$185, DW_AT_decl_column(0x0d)
    2530        .dwattr $C$DW$185, DW_AT_TI_max_frame_size(0x08)
    2531        .dwpsn  file "../spi.c",line 980,column 1,is_stmt,address ||SPI_FIFODatSet||,isa 0
    2532
    2533        .dwfde $C$DW$CIE, ||SPI_FIFODatSet||
    2534$C$DW$186       .dwtag  DW_TAG_formal_parameter, DW_AT_name("spiAddr")
    2535        .dwattr $C$DW$186, DW_AT_TI_symbol_name("spiAddr")
    2536        .dwattr $C$DW$186, DW_AT_type(*$C$DW$T$19)
    2537        .dwattr $C$DW$186, DW_AT_location[DW_OP_regx 0x38]
    2538$C$DW$187       .dwtag  DW_TAG_formal_parameter, DW_AT_name("fdaa")
    2539        .dwattr $C$DW$187, DW_AT_TI_symbol_name("fdaa")
    2540        .dwattr $C$DW$187, DW_AT_type(*$C$DW$T$19)
    2541        .dwattr $C$DW$187, DW_AT_location[DW_OP_regx 0x3c]
    2542
    2543;***************************************************************
    2544;* FNAME: SPI_FIFODatSet                FR SIZE:   8           *
    2545;*                                                             *
    2546;* FUNCTION ENVIRONMENT                                        *
    2547;*                                                             *
    2548;* FUNCTION PROPERTIES                                         *
    2549;*                            8 Auto,  0 SOE     *
    2550;***************************************************************
    2551
    2552 00000000                 ||SPI_FIFODatSet||:
    2553;* --------------------------------------------------------------------------*
    2554        .dwcfi  cfa_offset, 0
    2555 00000000 0000000508E2E2          SUB       r2, r2, 0x08          ; [ALU_PRU] 
    2556        .dwcfi  cfa_offset, 8
    2557$C$DW$188       .dwtag  DW_TAG_variable, DW_AT_name("spiAddr")
    2558        .dwattr $C$DW$188, DW_AT_TI_symbol_name("spiAddr")
    2559        .dwattr $C$DW$188, DW_AT_type(*$C$DW$T$19)
    2560        .dwattr $C$DW$188, DW_AT_location[DW_OP_breg8 0]
    2561 00000004 00000010000000          NOP                             ; [ALU_PRU] 
    2562$C$DW$189       .dwtag  DW_TAG_variable, DW_AT_name("fdaa")
    2563        .dwattr $C$DW$189, DW_AT_TI_symbol_name("fdaa")
    2564        .dwattr $C$DW$189, DW_AT_type(*$C$DW$T$19)
    2565        .dwattr $C$DW$189, DW_AT_location[DW_OP_breg8 4]
    2566 00000008 00000010000000          NOP                             ; [ALU_PRU] 
    2567 0000000c 000000E104228F          SBBO      &r15, r2, 4, 4        ; [ALU_PRU] |980| fdaa
    2568 00000010 000000E100228E          SBBO      &r14, r2, 0, 4        ; [ALU_PRU] |980| spiAddr
    2569        .dwpsn  file "../spi.c",line 981,column 2,is_stmt,isa 0
    2570 00000014 000000240128E0          LDI       r0, 0x0128            ; [ALU_PRU] |981| 
    2571 00000018 000000F1002281          LBBO      &r1, r2, 0, 4         ; [ALU_PRU] |981| spiAddr
    2572 0000001c 00000000E0E1E0          ADD       r0, r1, r0            ; [ALU_PRU] |981| 
    2573 00000020 000000F1002081          LBBO      &r1, r0, 0, 4         ; [ALU_PRU] |981| 
    2574 00000024 0000001D08E1E1          CLR       r1, r1, 0x00000008    ; [ALU_PRU] |981| 
    2575 00000028 000000E1002081          SBBO      &r1, r0, 0, 4         ; [ALU_PRU] |981| 
PRU Assembler Unix v2.1.2 Thu Jan 28 12:38:40 2016

Tools Copyright (c) 2012-2015 Texas Instruments Incorporated
spi.asm                                                              PAGE   48

    2576        .dwpsn  file "../spi.c",line 982,column 2,is_stmt,isa 0
    2577 0000002c 000000240128E0          LDI       r0, 0x0128            ; [ALU_PRU] |982| 
    2578 00000030 000000F104228E          LBBO      &r14, r2, 4, 4        ; [ALU_PRU] |982| fdaa
    2579 00000034 000000F1002281          LBBO      &r1, r2, 0, 4         ; [ALU_PRU] |982| spiAddr
    2580 00000038 00000000E0E1E0          ADD       r0, r1, r0            ; [ALU_PRU] |982| 
    2581 0000003c 000000240100E1          LDI       r1, 0x0100            ; [ALU_PRU] |982| 
    2582 00000040 00000010E1EEE1          AND       r1, r14, r1           ; [ALU_PRU] |982| 
    2583 00000044 000000F100208E          LBBO      &r14, r0, 0, 4        ; [ALU_PRU] |982| 
    2584 00000048 00000012E1EEE1          OR        r1, r14, r1           ; [ALU_PRU] |982| 
    2585 0000004c 000000E1002081          SBBO      &r1, r0, 0, 4         ; [ALU_PRU] |982| 
    2586        .dwpsn  file "../spi.c",line 983,column 1,is_stmt,isa 0
    2587 00000050 0000000108E2E2          ADD       r2, r2, 0x08          ; [ALU_PRU] 
    2588        .dwcfi  cfa_offset, 0
    2589$C$DW$190       .dwtag  DW_TAG_TI_branch
    2590        .dwattr $C$DW$190, DW_AT_low_pc(0x00)
    2591        .dwattr $C$DW$190, DW_AT_TI_return
    2592 00000054 00000020C30000          JMP       r3.w2                 ; [ALU_PRU] 
    2593        .dwattr $C$DW$185, DW_AT_TI_end_file("../spi.c")
    2594        .dwattr $C$DW$185, DW_AT_TI_end_line(0x3d7)
    2595        .dwattr $C$DW$185, DW_AT_TI_end_column(0x01)
    2596        .dwendentry
    2597        .dwendtag $C$DW$185
    2598
    2599 00000000                         .sect   ".text:SPI_AutoIdleConfig"
    2600        .clink
    2601        .global ||SPI_AutoIdleConfig||
    2602
    2603$C$DW$191       .dwtag  DW_TAG_subprogram, DW_AT_name("SPI_AutoIdleConfig")
    2604        .dwattr $C$DW$191, DW_AT_low_pc(||SPI_AutoIdleConfig||)
    2605        .dwattr $C$DW$191, DW_AT_high_pc(0x00)
    2606        .dwattr $C$DW$191, DW_AT_TI_symbol_name("SPI_AutoIdleConfig")
    2607        .dwattr $C$DW$191, DW_AT_external
    2608        .dwattr $C$DW$191, DW_AT_TI_begin_file("../spi.c")
    2609        .dwattr $C$DW$191, DW_AT_TI_begin_line(0x3e3)
    2610        .dwattr $C$DW$191, DW_AT_TI_begin_column(0x0d)
    2611        .dwattr $C$DW$191, DW_AT_decl_file("../spi.c")
    2612        .dwattr $C$DW$191, DW_AT_decl_line(0x3e3)
    2613        .dwattr $C$DW$191, DW_AT_decl_column(0x0d)
    2614        .dwattr $C$DW$191, DW_AT_TI_max_frame_size(0x08)
    2615        .dwpsn  file "../spi.c",line 996,column 1,is_stmt,address ||SPI_AutoIdleConfig||,isa 0
    2616
    2617        .dwfde $C$DW$CIE, ||SPI_AutoIdleConfig||
    2618$C$DW$192       .dwtag  DW_TAG_formal_parameter, DW_AT_name("spiAddr")
    2619        .dwattr $C$DW$192, DW_AT_TI_symbol_name("spiAddr")
    2620        .dwattr $C$DW$192, DW_AT_type(*$C$DW$T$19)
    2621        .dwattr $C$DW$192, DW_AT_location[DW_OP_regx 0x38]
    2622$C$DW$193       .dwtag  DW_TAG_formal_parameter, DW_AT_name("autoIdle")
    2623        .dwattr $C$DW$193, DW_AT_TI_symbol_name("autoIdle")
    2624        .dwattr $C$DW$193, DW_AT_type(*$C$DW$T$19)
    2625        .dwattr $C$DW$193, DW_AT_location[DW_OP_regx 0x3c]
    2626
    2627;***************************************************************
    2628;* FNAME: SPI_AutoIdleConfig            FR SIZE:   8           *
    2629;*                                                             *
    2630;* FUNCTION ENVIRONMENT                                        *
PRU Assembler Unix v2.1.2 Thu Jan 28 12:38:40 2016

Tools Copyright (c) 2012-2015 Texas Instruments Incorporated
spi.asm                                                              PAGE   49

    2631;*                                                             *
    2632;* FUNCTION PROPERTIES                                         *
    2633;*                            8 Auto,  0 SOE     *
    2634;***************************************************************
    2635
    2636 00000000                 ||SPI_AutoIdleConfig||:
    2637;* --------------------------------------------------------------------------*
    2638        .dwcfi  cfa_offset, 0
    2639 00000000 0000000508E2E2          SUB       r2, r2, 0x08          ; [ALU_PRU] 
    2640        .dwcfi  cfa_offset, 8
    2641$C$DW$194       .dwtag  DW_TAG_variable, DW_AT_name("spiAddr")
    2642        .dwattr $C$DW$194, DW_AT_TI_symbol_name("spiAddr")
    2643        .dwattr $C$DW$194, DW_AT_type(*$C$DW$T$19)
    2644        .dwattr $C$DW$194, DW_AT_location[DW_OP_breg8 0]
    2645 00000004 00000010000000          NOP                             ; [ALU_PRU] 
    2646$C$DW$195       .dwtag  DW_TAG_variable, DW_AT_name("autoIdle")
    2647        .dwattr $C$DW$195, DW_AT_TI_symbol_name("autoIdle")
    2648        .dwattr $C$DW$195, DW_AT_type(*$C$DW$T$19)
    2649        .dwattr $C$DW$195, DW_AT_location[DW_OP_breg8 4]
    2650 00000008 00000010000000          NOP                             ; [ALU_PRU] 
    2651 0000000c 000000E104228F          SBBO      &r15, r2, 4, 4        ; [ALU_PRU] |996| autoIdle
    2652 00000010 000000E100228E          SBBO      &r14, r2, 0, 4        ; [ALU_PRU] |996| spiAddr
    2653        .dwpsn  file "../spi.c",line 997,column 2,is_stmt,isa 0
    2654 00000014 000000240110E0          LDI       r0, 0x0110            ; [ALU_PRU] |997| 
    2655 00000018 000000F1002281          LBBO      &r1, r2, 0, 4         ; [ALU_PRU] |997| spiAddr
    2656 0000001c 00000000E0E1E0          ADD       r0, r1, r0            ; [ALU_PRU] |997| 
    2657 00000020 000000F1002081          LBBO      &r1, r0, 0, 4         ; [ALU_PRU] |997| 
    2658 00000024 0000001D00E1E1          CLR       r1, r1, 0x00000000    ; [ALU_PRU] |997| 
    2659 00000028 000000E1002081          SBBO      &r1, r0, 0, 4         ; [ALU_PRU] |997| 
    2660        .dwpsn  file "../spi.c",line 998,column 2,is_stmt,isa 0
    2661 0000002c 000000240110E0          LDI       r0, 0x0110            ; [ALU_PRU] |998| 
    2662 00000030 000000F1002281          LBBO      &r1, r2, 0, 4         ; [ALU_PRU] |998| spiAddr
    2663 00000034 00000000E0E1E0          ADD       r0, r1, r0            ; [ALU_PRU] |998| 
    2664 00000038 000000F100208E          LBBO      &r14, r0, 0, 4        ; [ALU_PRU] |998| 
    2665 0000003c 000000F1042281          LBBO      &r1, r2, 4, 4         ; [ALU_PRU] |998| autoIdle
    2666 00000040 0000001101E1E1          AND       r1, r1, 0x01          ; [ALU_PRU] |998| 
    2667 00000044 00000012E1EEE1          OR        r1, r14, r1           ; [ALU_PRU] |998| 
    2668 00000048 000000E1002081          SBBO      &r1, r0, 0, 4         ; [ALU_PRU] |998| 
    2669        .dwpsn  file "../spi.c",line 999,column 1,is_stmt,isa 0
    2670 0000004c 0000000108E2E2          ADD       r2, r2, 0x08          ; [ALU_PRU] 
    2671        .dwcfi  cfa_offset, 0
    2672$C$DW$196       .dwtag  DW_TAG_TI_branch
    2673        .dwattr $C$DW$196, DW_AT_low_pc(0x00)
    2674        .dwattr $C$DW$196, DW_AT_TI_return
    2675 00000050 00000020C30000          JMP       r3.w2                 ; [ALU_PRU] 
    2676        .dwattr $C$DW$191, DW_AT_TI_end_file("../spi.c")
    2677        .dwattr $C$DW$191, DW_AT_TI_end_line(0x3e7)
    2678        .dwattr $C$DW$191, DW_AT_TI_end_column(0x01)
    2679        .dwendentry
    2680        .dwendtag $C$DW$191
    2681
    2682 00000000                         .sect   ".text:SPI_SmartIdleConfig"
    2683        .clink
    2684        .global ||SPI_SmartIdleConfig||
    2685
PRU Assembler Unix v2.1.2 Thu Jan 28 12:38:40 2016

Tools Copyright (c) 2012-2015 Texas Instruments Incorporated
spi.asm                                                              PAGE   50

    2686$C$DW$197       .dwtag  DW_TAG_subprogram, DW_AT_name("SPI_SmartIdleConfig")
    2687        .dwattr $C$DW$197, DW_AT_low_pc(||SPI_SmartIdleConfig||)
    2688        .dwattr $C$DW$197, DW_AT_high_pc(0x00)
    2689        .dwattr $C$DW$197, DW_AT_TI_symbol_name("SPI_SmartIdleConfig")
    2690        .dwattr $C$DW$197, DW_AT_external
    2691        .dwattr $C$DW$197, DW_AT_TI_begin_file("../spi.c")
    2692        .dwattr $C$DW$197, DW_AT_TI_begin_line(0x3f4)
    2693        .dwattr $C$DW$197, DW_AT_TI_begin_column(0x0d)
    2694        .dwattr $C$DW$197, DW_AT_decl_file("../spi.c")
    2695        .dwattr $C$DW$197, DW_AT_decl_line(0x3f4)
    2696        .dwattr $C$DW$197, DW_AT_decl_column(0x0d)
    2697        .dwattr $C$DW$197, DW_AT_TI_max_frame_size(0x08)
    2698        .dwpsn  file "../spi.c",line 1013,column 1,is_stmt,address ||SPI_SmartIdleConfig||,isa 0
    2699
    2700        .dwfde $C$DW$CIE, ||SPI_SmartIdleConfig||
    2701$C$DW$198       .dwtag  DW_TAG_formal_parameter, DW_AT_name("spiAddr")
    2702        .dwattr $C$DW$198, DW_AT_TI_symbol_name("spiAddr")
    2703        .dwattr $C$DW$198, DW_AT_type(*$C$DW$T$19)
    2704        .dwattr $C$DW$198, DW_AT_location[DW_OP_regx 0x38]
    2705$C$DW$199       .dwtag  DW_TAG_formal_parameter, DW_AT_name("smartIdle")
    2706        .dwattr $C$DW$199, DW_AT_TI_symbol_name("smartIdle")
    2707        .dwattr $C$DW$199, DW_AT_type(*$C$DW$T$19)
    2708        .dwattr $C$DW$199, DW_AT_location[DW_OP_regx 0x3c]
    2709
    2710;***************************************************************
    2711;* FNAME: SPI_SmartIdleConfig           FR SIZE:   8           *
    2712;*                                                             *
    2713;* FUNCTION ENVIRONMENT                                        *
    2714;*                                                             *
    2715;* FUNCTION PROPERTIES                                         *
    2716;*                            8 Auto,  0 SOE     *
    2717;***************************************************************
    2718
    2719 00000000                 ||SPI_SmartIdleConfig||:
    2720;* --------------------------------------------------------------------------*
    2721        .dwcfi  cfa_offset, 0
    2722 00000000 0000000508E2E2          SUB       r2, r2, 0x08          ; [ALU_PRU] 
    2723        .dwcfi  cfa_offset, 8
    2724$C$DW$200       .dwtag  DW_TAG_variable, DW_AT_name("spiAddr")
    2725        .dwattr $C$DW$200, DW_AT_TI_symbol_name("spiAddr")
    2726        .dwattr $C$DW$200, DW_AT_type(*$C$DW$T$19)
    2727        .dwattr $C$DW$200, DW_AT_location[DW_OP_breg8 0]
    2728 00000004 00000010000000          NOP                             ; [ALU_PRU] 
    2729$C$DW$201       .dwtag  DW_TAG_variable, DW_AT_name("smartIdle")
    2730        .dwattr $C$DW$201, DW_AT_TI_symbol_name("smartIdle")
    2731        .dwattr $C$DW$201, DW_AT_type(*$C$DW$T$19)
    2732        .dwattr $C$DW$201, DW_AT_location[DW_OP_breg8 4]
    2733 00000008 00000010000000          NOP                             ; [ALU_PRU] 
    2734 0000000c 000000E104228F          SBBO      &r15, r2, 4, 4        ; [ALU_PRU] |1013| smartIdle
    2735 00000010 000000E100228E          SBBO      &r14, r2, 0, 4        ; [ALU_PRU] |1013| spiAddr
    2736        .dwpsn  file "../spi.c",line 1014,column 2,is_stmt,isa 0
    2737 00000014 000000240110E0          LDI       r0, 0x0110            ; [ALU_PRU] |1014| 
    2738 00000018 000000F1002281          LBBO      &r1, r2, 0, 4         ; [ALU_PRU] |1014| spiAddr
    2739 0000001c 00000000E0E1E0          ADD       r0, r1, r0            ; [ALU_PRU] |1014| 
    2740 00000020 FFE78124FFFFC1          LDI32     r1, 0xffffffe7        ; [ALU_PRU] |1014| 
PRU Assembler Unix v2.1.2 Thu Jan 28 12:38:40 2016

Tools Copyright (c) 2012-2015 Texas Instruments Incorporated
spi.asm                                                              PAGE   51

         00000027 00000000004024 
    2741 00000028 000000F100208E          LBBO      &r14, r0, 0, 4        ; [ALU_PRU] |1014| 
    2742 0000002c 00000010E1EEE1          AND       r1, r14, r1           ; [ALU_PRU] |1014| 
    2743 00000030 000000E1002081          SBBO      &r1, r0, 0, 4         ; [ALU_PRU] |1014| 
    2744        .dwpsn  file "../spi.c",line 1015,column 2,is_stmt,isa 0
    2745 00000034 000000240110E0          LDI       r0, 0x0110            ; [ALU_PRU] |1015| 
    2746 00000038 000000F1002281          LBBO      &r1, r2, 0, 4         ; [ALU_PRU] |1015| spiAddr
    2747 0000003c 00000000E0E1E0          ADD       r0, r1, r0            ; [ALU_PRU] |1015| 
    2748 00000040 000000F1042281          LBBO      &r1, r2, 4, 4         ; [ALU_PRU] |1015| smartIdle
    2749 00000044 000000F100208E          LBBO      &r14, r0, 0, 4        ; [ALU_PRU] |1015| 
    2750 00000048 0000001118E1E1          AND       r1, r1, 0x18          ; [ALU_PRU] |1015| 
    2751 0000004c 00000012E1EEE1          OR        r1, r14, r1           ; [ALU_PRU] |1015| 
    2752 00000050 000000E1002081          SBBO      &r1, r0, 0, 4         ; [ALU_PRU] |1015| 
    2753        .dwpsn  file "../spi.c",line 1016,column 1,is_stmt,isa 0
    2754 00000054 0000000108E2E2          ADD       r2, r2, 0x08          ; [ALU_PRU] 
    2755        .dwcfi  cfa_offset, 0
    2756$C$DW$202       .dwtag  DW_TAG_TI_branch
    2757        .dwattr $C$DW$202, DW_AT_low_pc(0x00)
    2758        .dwattr $C$DW$202, DW_AT_TI_return
    2759 00000058 00000020C30000          JMP       r3.w2                 ; [ALU_PRU] 
    2760        .dwattr $C$DW$197, DW_AT_TI_end_file("../spi.c")
    2761        .dwattr $C$DW$197, DW_AT_TI_end_line(0x3f8)
    2762        .dwattr $C$DW$197, DW_AT_TI_end_column(0x01)
    2763        .dwendentry
    2764        .dwendtag $C$DW$197
    2765
    2766 00000000                         .sect   ".text:SPI_ClkActivityConfig"
    2767        .clink
    2768        .global ||SPI_ClkActivityConfig||
    2769
    2770$C$DW$203       .dwtag  DW_TAG_subprogram, DW_AT_name("SPI_ClkActivityConfig")
    2771        .dwattr $C$DW$203, DW_AT_low_pc(||SPI_ClkActivityConfig||)
    2772        .dwattr $C$DW$203, DW_AT_high_pc(0x00)
    2773        .dwattr $C$DW$203, DW_AT_TI_symbol_name("SPI_ClkActivityConfig")
    2774        .dwattr $C$DW$203, DW_AT_external
    2775        .dwattr $C$DW$203, DW_AT_TI_begin_file("../spi.c")
    2776        .dwattr $C$DW$203, DW_AT_TI_begin_line(0x405)
    2777        .dwattr $C$DW$203, DW_AT_TI_begin_column(0x0d)
    2778        .dwattr $C$DW$203, DW_AT_decl_file("../spi.c")
    2779        .dwattr $C$DW$203, DW_AT_decl_line(0x405)
    2780        .dwattr $C$DW$203, DW_AT_decl_column(0x0d)
    2781        .dwattr $C$DW$203, DW_AT_TI_max_frame_size(0x08)
    2782        .dwpsn  file "../spi.c",line 1030,column 1,is_stmt,address ||SPI_ClkActivityConfig||,isa 0
    2783
    2784        .dwfde $C$DW$CIE, ||SPI_ClkActivityConfig||
    2785$C$DW$204       .dwtag  DW_TAG_formal_parameter, DW_AT_name("spiAddr")
    2786        .dwattr $C$DW$204, DW_AT_TI_symbol_name("spiAddr")
    2787        .dwattr $C$DW$204, DW_AT_type(*$C$DW$T$19)
    2788        .dwattr $C$DW$204, DW_AT_location[DW_OP_regx 0x38]
    2789$C$DW$205       .dwtag  DW_TAG_formal_parameter, DW_AT_name("clkAct")
    2790        .dwattr $C$DW$205, DW_AT_TI_symbol_name("clkAct")
    2791        .dwattr $C$DW$205, DW_AT_type(*$C$DW$T$19)
    2792        .dwattr $C$DW$205, DW_AT_location[DW_OP_regx 0x3c]
    2793
    2794;***************************************************************
PRU Assembler Unix v2.1.2 Thu Jan 28 12:38:40 2016

Tools Copyright (c) 2012-2015 Texas Instruments Incorporated
spi.asm                                                              PAGE   52

    2795;* FNAME: SPI_ClkActivityConfig         FR SIZE:   8           *
    2796;*                                                             *
    2797;* FUNCTION ENVIRONMENT                                        *
    2798;*                                                             *
    2799;* FUNCTION PROPERTIES                                         *
    2800;*                            8 Auto,  0 SOE     *
    2801;***************************************************************
    2802
    2803 00000000                 ||SPI_ClkActivityConfig||:
    2804;* --------------------------------------------------------------------------*
    2805        .dwcfi  cfa_offset, 0
    2806 00000000 0000000508E2E2          SUB       r2, r2, 0x08          ; [ALU_PRU] 
    2807        .dwcfi  cfa_offset, 8
    2808$C$DW$206       .dwtag  DW_TAG_variable, DW_AT_name("spiAddr")
    2809        .dwattr $C$DW$206, DW_AT_TI_symbol_name("spiAddr")
    2810        .dwattr $C$DW$206, DW_AT_type(*$C$DW$T$19)
    2811        .dwattr $C$DW$206, DW_AT_location[DW_OP_breg8 0]
    2812 00000004 00000010000000          NOP                             ; [ALU_PRU] 
    2813$C$DW$207       .dwtag  DW_TAG_variable, DW_AT_name("clkAct")
    2814        .dwattr $C$DW$207, DW_AT_TI_symbol_name("clkAct")
    2815        .dwattr $C$DW$207, DW_AT_type(*$C$DW$T$19)
    2816        .dwattr $C$DW$207, DW_AT_location[DW_OP_breg8 4]
    2817 00000008 00000010000000          NOP                             ; [ALU_PRU] 
    2818 0000000c 000000E104228F          SBBO      &r15, r2, 4, 4        ; [ALU_PRU] |1030| clkAct
    2819 00000010 000000E100228E          SBBO      &r14, r2, 0, 4        ; [ALU_PRU] |1030| spiAddr
    2820        .dwpsn  file "../spi.c",line 1031,column 2,is_stmt,isa 0
    2821 00000014 000000240110E0          LDI       r0, 0x0110            ; [ALU_PRU] |1031| 
    2822 00000018 000000F1002281          LBBO      &r1, r2, 0, 4         ; [ALU_PRU] |1031| spiAddr
    2823 0000001c 00000000E0E1E0          ADD       r0, r1, r0            ; [ALU_PRU] |1031| 
    2824 00000020 FCFF8124FFFFC1          LDI32     r1, 0xfffffcff        ; [ALU_PRU] |1031| 
         00000027 00000000004024 
    2825 00000028 000000F100208E          LBBO      &r14, r0, 0, 4        ; [ALU_PRU] |1031| 
    2826 0000002c 00000010E1EEE1          AND       r1, r14, r1           ; [ALU_PRU] |1031| 
    2827 00000030 000000E1002081          SBBO      &r1, r0, 0, 4         ; [ALU_PRU] |1031| 
    2828        .dwpsn  file "../spi.c",line 1032,column 2,is_stmt,isa 0
    2829 00000034 000000240110E0          LDI       r0, 0x0110            ; [ALU_PRU] |1032| 
    2830 00000038 000000F1002281          LBBO      &r1, r2, 0, 4         ; [ALU_PRU] |1032| spiAddr
    2831 0000003c 000000F104228E          LBBO      &r14, r2, 4, 4        ; [ALU_PRU] |1032| clkAct
    2832 00000040 00000000E0E1E0          ADD       r0, r1, r0            ; [ALU_PRU] |1032| 
    2833 00000044 000000240300E1          LDI       r1, 0x0300            ; [ALU_PRU] |1032| 
    2834 00000048 00000010E1EEE1          AND       r1, r14, r1           ; [ALU_PRU] |1032| 
    2835 0000004c 000000F100208E          LBBO      &r14, r0, 0, 4        ; [ALU_PRU] |1032| 
    2836 00000050 00000012E1EEE1          OR        r1, r14, r1           ; [ALU_PRU] |1032| 
    2837 00000054 000000E1002081          SBBO      &r1, r0, 0, 4         ; [ALU_PRU] |1032| 
    2838        .dwpsn  file "../spi.c",line 1033,column 1,is_stmt,isa 0
    2839 00000058 0000000108E2E2          ADD       r2, r2, 0x08          ; [ALU_PRU] 
    2840        .dwcfi  cfa_offset, 0
    2841$C$DW$208       .dwtag  DW_TAG_TI_branch
    2842        .dwattr $C$DW$208, DW_AT_low_pc(0x00)
    2843        .dwattr $C$DW$208, DW_AT_TI_return
    2844 0000005c 00000020C30000          JMP       r3.w2                 ; [ALU_PRU] 
    2845        .dwattr $C$DW$203, DW_AT_TI_end_file("../spi.c")
    2846        .dwattr $C$DW$203, DW_AT_TI_end_line(0x409)
    2847        .dwattr $C$DW$203, DW_AT_TI_end_column(0x01)
    2848        .dwendentry
PRU Assembler Unix v2.1.2 Thu Jan 28 12:38:40 2016

Tools Copyright (c) 2012-2015 Texas Instruments Incorporated
spi.asm                                                              PAGE   53

    2849        .dwendtag $C$DW$203
    2850
    2851 00000000                         .sect   ".text:SPI_ClkConfig"
    2852        .clink
    2853        .global ||SPI_ClkConfig||
    2854
    2855$C$DW$209       .dwtag  DW_TAG_subprogram, DW_AT_name("SPI_ClkConfig")
    2856        .dwattr $C$DW$209, DW_AT_low_pc(||SPI_ClkConfig||)
    2857        .dwattr $C$DW$209, DW_AT_high_pc(0x00)
    2858        .dwattr $C$DW$209, DW_AT_TI_symbol_name("SPI_ClkConfig")
    2859        .dwattr $C$DW$209, DW_AT_external
    2860        .dwattr $C$DW$209, DW_AT_TI_begin_file("../spi.c")
    2861        .dwattr $C$DW$209, DW_AT_TI_begin_line(0x5c)
    2862        .dwattr $C$DW$209, DW_AT_TI_begin_column(0x06)
    2863        .dwattr $C$DW$209, DW_AT_decl_file("../spi.c")
    2864        .dwattr $C$DW$209, DW_AT_decl_line(0x5c)
    2865        .dwattr $C$DW$209, DW_AT_decl_column(0x06)
    2866        .dwattr $C$DW$209, DW_AT_TI_max_frame_size(0x22)
    2867        .dwpsn  file "../spi.c",line 93,column 1,is_stmt,address ||SPI_ClkConfig||,isa 0
    2868
    2869        .dwfde $C$DW$CIE, ||SPI_ClkConfig||
    2870$C$DW$210       .dwtag  DW_TAG_formal_parameter, DW_AT_name("spiAddr")
    2871        .dwattr $C$DW$210, DW_AT_TI_symbol_name("spiAddr")
    2872        .dwattr $C$DW$210, DW_AT_type(*$C$DW$T$19)
    2873        .dwattr $C$DW$210, DW_AT_location[DW_OP_regx 0x38]
    2874$C$DW$211       .dwtag  DW_TAG_formal_parameter, DW_AT_name("spiInClk")
    2875        .dwattr $C$DW$211, DW_AT_TI_symbol_name("spiInClk")
    2876        .dwattr $C$DW$211, DW_AT_type(*$C$DW$T$19)
    2877        .dwattr $C$DW$211, DW_AT_location[DW_OP_regx 0x3c]
    2878$C$DW$212       .dwtag  DW_TAG_formal_parameter, DW_AT_name("spiOutClk")
    2879        .dwattr $C$DW$212, DW_AT_TI_symbol_name("spiOutClk")
    2880        .dwattr $C$DW$212, DW_AT_type(*$C$DW$T$19)
    2881        .dwattr $C$DW$212, DW_AT_location[DW_OP_regx 0x40]
    2882$C$DW$213       .dwtag  DW_TAG_formal_parameter, DW_AT_name("chNum")
    2883        .dwattr $C$DW$213, DW_AT_TI_symbol_name("chNum")
    2884        .dwattr $C$DW$213, DW_AT_type(*$C$DW$T$19)
    2885        .dwattr $C$DW$213, DW_AT_location[DW_OP_regx 0x44]
    2886$C$DW$214       .dwtag  DW_TAG_formal_parameter, DW_AT_name("clkMode")
    2887        .dwattr $C$DW$214, DW_AT_TI_symbol_name("clkMode")
    2888        .dwattr $C$DW$214, DW_AT_type(*$C$DW$T$19)
    2889        .dwattr $C$DW$214, DW_AT_location[DW_OP_regx 0x48]
    2890
    2891;***************************************************************
    2892;* FNAME: SPI_ClkConfig                 FR SIZE:  34           *
    2893;*                                                             *
    2894;* FUNCTION ENVIRONMENT                                        *
    2895;*                                                             *
    2896;* FUNCTION PROPERTIES                                         *
    2897;*                           32 Auto,  2 SOE     *
    2898;***************************************************************
    2899
    2900 00000000                 ||SPI_ClkConfig||:
    2901;* --------------------------------------------------------------------------*
    2902        .dwcfi  cfa_offset, 0
    2903 00000000 0000000522E2E2          SUB       r2, r2, 0x22          ; [ALU_PRU] 
PRU Assembler Unix v2.1.2 Thu Jan 28 12:38:40 2016

Tools Copyright (c) 2012-2015 Texas Instruments Incorporated
spi.asm                                                              PAGE   54

    2904        .dwcfi  cfa_offset, 34
    2905 00000004 000000E12002C3          SBBO      &r3.b2, r2, 32, 2     ; [ALU_PRU] 
    2906        .dwcfi  save_reg_to_mem, 14, -2
    2907        .dwcfi  save_reg_to_mem, 15, -1
    2908$C$DW$215       .dwtag  DW_TAG_variable, DW_AT_name("spiAddr")
    2909        .dwattr $C$DW$215, DW_AT_TI_symbol_name("spiAddr")
    2910        .dwattr $C$DW$215, DW_AT_type(*$C$DW$T$19)
    2911        .dwattr $C$DW$215, DW_AT_location[DW_OP_breg8 0]
    2912 00000008 00000010000000          NOP                             ; [ALU_PRU] 
    2913$C$DW$216       .dwtag  DW_TAG_variable, DW_AT_name("spiInClk")
    2914        .dwattr $C$DW$216, DW_AT_TI_symbol_name("spiInClk")
    2915        .dwattr $C$DW$216, DW_AT_type(*$C$DW$T$19)
    2916        .dwattr $C$DW$216, DW_AT_location[DW_OP_breg8 4]
    2917 0000000c 00000010000000          NOP                             ; [ALU_PRU] 
    2918$C$DW$217       .dwtag  DW_TAG_variable, DW_AT_name("spiOutClk")
    2919        .dwattr $C$DW$217, DW_AT_TI_symbol_name("spiOutClk")
    2920        .dwattr $C$DW$217, DW_AT_type(*$C$DW$T$19)
    2921        .dwattr $C$DW$217, DW_AT_location[DW_OP_breg8 8]
    2922 00000010 00000010000000          NOP                             ; [ALU_PRU] 
    2923$C$DW$218       .dwtag  DW_TAG_variable, DW_AT_name("chNum")
    2924        .dwattr $C$DW$218, DW_AT_TI_symbol_name("chNum")
    2925        .dwattr $C$DW$218, DW_AT_type(*$C$DW$T$19)
    2926        .dwattr $C$DW$218, DW_AT_location[DW_OP_breg8 12]
    2927 00000014 00000010000000          NOP                             ; [ALU_PRU] 
    2928$C$DW$219       .dwtag  DW_TAG_variable, DW_AT_name("clkMode")
    2929        .dwattr $C$DW$219, DW_AT_TI_symbol_name("clkMode")
    2930        .dwattr $C$DW$219, DW_AT_type(*$C$DW$T$19)
    2931        .dwattr $C$DW$219, DW_AT_location[DW_OP_breg8 16]
    2932 00000018 00000010000000          NOP                             ; [ALU_PRU] 
    2933$C$DW$220       .dwtag  DW_TAG_variable, DW_AT_name("fRatio")
    2934        .dwattr $C$DW$220, DW_AT_TI_symbol_name("fRatio")
    2935        .dwattr $C$DW$220, DW_AT_type(*$C$DW$T$19)
    2936        .dwattr $C$DW$220, DW_AT_location[DW_OP_breg8 20]
    2937 0000001c 00000010000000          NOP                             ; [ALU_PRU] 
    2938$C$DW$221       .dwtag  DW_TAG_variable, DW_AT_name("extClk")
    2939        .dwattr $C$DW$221, DW_AT_TI_symbol_name("extClk")
    2940        .dwattr $C$DW$221, DW_AT_type(*$C$DW$T$19)
    2941        .dwattr $C$DW$221, DW_AT_location[DW_OP_breg8 24]
    2942 00000020 00000010000000          NOP                             ; [ALU_PRU] 
    2943$C$DW$222       .dwtag  DW_TAG_variable, DW_AT_name("clkD")
    2944        .dwattr $C$DW$222, DW_AT_TI_symbol_name("clkD")
    2945        .dwattr $C$DW$222, DW_AT_type(*$C$DW$T$19)
    2946        .dwattr $C$DW$222, DW_AT_location[DW_OP_breg8 28]
    2947 00000024 00000010000000          NOP                             ; [ALU_PRU] 
    2948 00000028 000000E1102292          SBBO      &r18, r2, 16, 4       ; [ALU_PRU] |93| clkMode
    2949 0000002c 000000E10C2291          SBBO      &r17, r2, 12, 4       ; [ALU_PRU] |93| chNum
    2950 00000030 000000E1082290          SBBO      &r16, r2, 8, 4        ; [ALU_PRU] |93| spiOutClk
    2951 00000034 000000E104228F          SBBO      &r15, r2, 4, 4        ; [ALU_PRU] |93| spiInClk
    2952 00000038 000000E100228E          SBBO      &r14, r2, 0, 4        ; [ALU_PRU] |93| spiAddr
    2953        .dwpsn  file "../spi.c",line 94,column 18,is_stmt,isa 0
    2954 0000003c 000000240000E0          LDI       r0, 0x0000            ; [ALU_PRU] |94| 
    2955 00000040 000000E1142280          SBBO      &r0, r2, 20, 4        ; [ALU_PRU] |94| fRatio
    2956        .dwpsn  file "../spi.c",line 95,column 18,is_stmt,isa 0
    2957 00000044 000000E1182280          SBBO      &r0, r2, 24, 4        ; [ALU_PRU] |95| extClk
    2958        .dwpsn  file "../spi.c",line 96,column 17,is_stmt,isa 0
PRU Assembler Unix v2.1.2 Thu Jan 28 12:38:40 2016

Tools Copyright (c) 2012-2015 Texas Instruments Incorporated
spi.asm                                                              PAGE   55

    2959 00000048 000000E11C2280          SBBO      &r0, r2, 28, 4        ; [ALU_PRU] |96| clkD
    2960        .dwpsn  file "../spi.c",line 99,column 2,is_stmt,isa 0
    2961 0000004c 000000F104228E          LBBO      &r14, r2, 4, 4        ; [ALU_PRU] |99| spiInClk
    2962 00000050 000000F108228F          LBBO      &r15, r2, 8, 4        ; [ALU_PRU] |99| spiOutClk
    2963$C$DW$223       .dwtag  DW_TAG_TI_branch
    2964        .dwattr $C$DW$223, DW_AT_low_pc(0x00)
    2965        .dwattr $C$DW$223, DW_AT_name("__pruabi_divu")
    2966        .dwattr $C$DW$223, DW_AT_TI_call
    2967 00000054 000000230000C3!         JAL       r3.w2, ||__pruabi_divu|| ; [ALU_PRU] |99| __pruabi_divu
    2968 00000058 000000E114228E          SBBO      &r14, r2, 20, 4       ; [ALU_PRU] |99| fRatio
    2969        .dwpsn  file "../spi.c",line 102,column 2,is_stmt,isa 0
    2970 0000005c 000000F1142280          LBBO      &r0, r2, 20, 4        ; [ALU_PRU] |102| fRatio
    2971 00000060 000000F1142281          LBBO      &r1, r2, 20, 4        ; [ALU_PRU] |102| fRatio
    2972 00000064 0000000501E0E0          SUB       r0, r0, 0x01          ; [ALU_PRU] |102| 
    2973 00000068 00000010E0E1E0          AND       r0, r1, r0            ; [ALU_PRU] |102| 
    2974 0000006c 0000005100E02F          QBEQ      ||$C$L10||, r0, 0x00  ; [ALU_PRU] |102| 
    2975;* --------------------------------------------------------------------------*
    2976        .dwpsn  file "../spi.c",line 105,column 3,is_stmt,isa 0
    2977 00000070 000000F10C2280          LBBO      &r0, r2, 12, 4        ; [ALU_PRU] |105| chNum
    2978 00000074 0000000902E0E1          LSL       r1, r0, 0x02          ; [ALU_PRU] |105| 
    2979 00000078 0000000904E0E0          LSL       r0, r0, 0x04          ; [ALU_PRU] |105| 
    2980 0000007c 00000000E1E0E0          ADD       r0, r0, r1            ; [ALU_PRU] |105| 
    2981 00000080 000000F1002281          LBBO      &r1, r2, 0, 4         ; [ALU_PRU] |105| spiAddr
    2982 00000084 00000000E0E1E1          ADD       r1, r1, r0            ; [ALU_PRU] |105| 
    2983 00000088 00000024012CE0          LDI       r0, 0x012c            ; [ALU_PRU] |105| 
    2984 0000008c 00000000E0E1E0          ADD       r0, r1, r0            ; [ALU_PRU] |105| 
    2985 00000090 000000F1002081          LBBO      &r1, r0, 0, 4         ; [ALU_PRU] |105| 
    2986 00000094 0000001F1DE1E1          SET       r1, r1, 0x0000001d    ; [ALU_PRU] |105| 
    2987 00000098 000000E1002081          SBBO      &r1, r0, 0, 4         ; [ALU_PRU] |105| 
    2988        .dwpsn  file "../spi.c",line 108,column 3,is_stmt,isa 0
    2989 0000009c 000000F1142280          LBBO      &r0, r2, 20, 4        ; [ALU_PRU] |108| fRatio
    2990 000000a0 0000000501E0E0          SUB       r0, r0, 0x01          ; [ALU_PRU] |108| 
    2991 000000a4 0000000B04E0E0          LSR       r0, r0, 0x04          ; [ALU_PRU] |108| 
    2992 000000a8 000000E1182280          SBBO      &r0, r2, 24, 4        ; [ALU_PRU] |108| extClk
    2993        .dwpsn  file "../spi.c",line 109,column 3,is_stmt,isa 0
    2994 000000ac 000000F1142280          LBBO      &r0, r2, 20, 4        ; [ALU_PRU] |109| fRatio
    2995 000000b0 0000000501E0E0          SUB       r0, r0, 0x01          ; [ALU_PRU] |109| 
    2996 000000b4 000000110FE0E0          AND       r0, r0, 0x0f          ; [ALU_PRU] |109| 
    2997 000000b8 000000E11C2280          SBBO      &r0, r2, 28, 4        ; [ALU_PRU] |109| clkD
    2998        .dwpsn  file "../spi.c",line 112,column 3,is_stmt,isa 0
    2999 000000bc 000000F10C2280          LBBO      &r0, r2, 12, 4        ; [ALU_PRU] |112| chNum
    3000 000000c0 0000000902E0E1          LSL       r1, r0, 0x02          ; [ALU_PRU] |112| 
    3001 000000c4 0000000904E0E0          LSL       r0, r0, 0x04          ; [ALU_PRU] |112| 
    3002 000000c8 00000000E1E0E0          ADD       r0, r0, r1            ; [ALU_PRU] |112| 
    3003 000000cc 000000F1002281          LBBO      &r1, r2, 0, 4         ; [ALU_PRU] |112| spiAddr
    3004 000000d0 00000000E0E1E1          ADD       r1, r1, r0            ; [ALU_PRU] |112| 
    3005 000000d4 000000240134E0          LDI       r0, 0x0134            ; [ALU_PRU] |112| 
    3006 000000d8 00000000E0E1E0          ADD       r0, r1, r0            ; [ALU_PRU] |112| 
    3007 000000dc 00FF8124FFFFC1          LDI32     r1, 0xffff00ff        ; [ALU_PRU] |112| 
         000000e3 00000000004024 
    3008 000000e4 000000F100208E          LBBO      &r14, r0, 0, 4        ; [ALU_PRU] |112| 
    3009 000000e8 00000010E1EEE1          AND       r1, r14, r1           ; [ALU_PRU] |112| 
    3010 000000ec 000000E1002081          SBBO      &r1, r0, 0, 4         ; [ALU_PRU] |112| 
    3011        .dwpsn  file "../spi.c",line 115,column 3,is_stmt,isa 0
    3012 000000f0 000000F10C2280          LBBO      &r0, r2, 12, 4        ; [ALU_PRU] |115| chNum
PRU Assembler Unix v2.1.2 Thu Jan 28 12:38:40 2016

Tools Copyright (c) 2012-2015 Texas Instruments Incorporated
spi.asm                                                              PAGE   56

    3013 000000f4 0000000902E0E1          LSL       r1, r0, 0x02          ; [ALU_PRU] |115| 
    3014 000000f8 0000000904E0E0          LSL       r0, r0, 0x04          ; [ALU_PRU] |115| 
    3015 000000fc 00000000E1E0E0          ADD       r0, r0, r1            ; [ALU_PRU] |115| 
    3016 00000100 000000F1002281          LBBO      &r1, r2, 0, 4         ; [ALU_PRU] |115| spiAddr
    3017 00000104 00000000E0E1E1          ADD       r1, r1, r0            ; [ALU_PRU] |115| 
    3018 00000108 000000240134E0          LDI       r0, 0x0134            ; [ALU_PRU] |115| 
    3019 0000010c 00000000E0E1E0          ADD       r0, r1, r0            ; [ALU_PRU] |115| 
    3020 00000110 000000F1182281          LBBO      &r1, r2, 24, 4        ; [ALU_PRU] |115| extClk
    3021 00000114 000000F100208E          LBBO      &r14, r0, 0, 4        ; [ALU_PRU] |115| 
    3022 00000118 0000000908E1E1          LSL       r1, r1, 0x08          ; [ALU_PRU] |115| 
    3023 0000011c 00000012E1EEE1          OR        r1, r14, r1           ; [ALU_PRU] |115| 
    3024 00000120 000000E1002081          SBBO      &r1, r0, 0, 4         ; [ALU_PRU] |115| 
    3025        .dwpsn  file "../spi.c",line 116,column 2,is_stmt,isa 0
    3026 00000124 00000021000000!         JMP       ||$C$L12||            ; [ALU_PRU] |116| 
    3027;* --------------------------------------------------------------------------*
    3028 00000128                 ||$C$L10||:    
    3029        .dwpsn  file "../spi.c",line 118,column 3,is_stmt,isa 0
    3030 00000128 000000F10C2280          LBBO      &r0, r2, 12, 4        ; [ALU_PRU] |118| chNum
    3031 0000012c 0000000902E0E1          LSL       r1, r0, 0x02          ; [ALU_PRU] |118| 
    3032 00000130 0000000904E0E0          LSL       r0, r0, 0x04          ; [ALU_PRU] |118| 
    3033 00000134 00000000E1E0E0          ADD       r0, r0, r1            ; [ALU_PRU] |118| 
    3034 00000138 000000F1002281          LBBO      &r1, r2, 0, 4         ; [ALU_PRU] |118| spiAddr
    3035 0000013c 00000000E0E1E1          ADD       r1, r1, r0            ; [ALU_PRU] |118| 
    3036 00000140 00000024012CE0          LDI       r0, 0x012c            ; [ALU_PRU] |118| 
    3037 00000144 00000000E0E1E0          ADD       r0, r1, r0            ; [ALU_PRU] |118| 
    3038 00000148 000000F1002081          LBBO      &r1, r0, 0, 4         ; [ALU_PRU] |118| 
    3039 0000014c 0000001D1DE1E1          CLR       r1, r1, 0x0000001d    ; [ALU_PRU] |118| 
    3040 00000150 000000E1002081          SBBO      &r1, r0, 0, 4         ; [ALU_PRU] |118| 
    3041        .dwpsn  file "../spi.c",line 120,column 9,is_stmt,isa 0
    3042 00000154 000000F1142280          LBBO      &r0, r2, 20, 4        ; [ALU_PRU] |120| fRatio
    3043 00000158 0000005101E008          QBEQ      ||$C$L12||, r0, 0x01  ; [ALU_PRU] |120| 
    3044;* --------------------------------------------------------------------------*
    3045;*   BEGIN LOOP ||$C$L11||
    3046;*
    3047;*   Loop source line                : 120
    3048;*   Loop closing brace source line  : 124
    3049;*   Known Minimum Trip Count        : 1
    3050;*   Known Maximum Trip Count        : 4294967295
    3051;*   Known Max Trip Count Factor     : 1
    3052;* --------------------------------------------------------------------------*
    3053 0000015c                 ||$C$L11||:    
    3054        .dwpsn  file "../spi.c",line 122,column 4,is_stmt,isa 0
    3055 0000015c 0000000B01E0E0          LSR       r0, r0, 0x01          ; [ALU_PRU] |122| 
    3056 00000160 000000E1142280          SBBO      &r0, r2, 20, 4        ; [ALU_PRU] |122| fRatio
    3057        .dwpsn  file "../spi.c",line 123,column 4,is_stmt,isa 0
    3058 00000164 000000F11C2280          LBBO      &r0, r2, 28, 4        ; [ALU_PRU] |123| clkD
    3059 00000168 0000000101E0E0          ADD       r0, r0, 0x01          ; [ALU_PRU] |123| 
    3060 0000016c 000000E11C2280          SBBO      &r0, r2, 28, 4        ; [ALU_PRU] |123| clkD
    3061        .dwpsn  file "../spi.c",line 120,column 9,is_stmt,isa 0
    3062 00000170 000000F1142280          LBBO      &r0, r2, 20, 4        ; [ALU_PRU] |120| fRatio
    3063 00000174 0000006F01E0FA          QBNE      ||$C$L11||, r0, 0x01  ; [ALU_PRU] |120| 
    3064;* --------------------------------------------------------------------------*
    3065 00000178                 ||$C$L12||:    
    3066        .dwpsn  file "../spi.c",line 128,column 2,is_stmt,isa 0
    3067 00000178 000000F10C2280          LBBO      &r0, r2, 12, 4        ; [ALU_PRU] |128| chNum
PRU Assembler Unix v2.1.2 Thu Jan 28 12:38:40 2016

Tools Copyright (c) 2012-2015 Texas Instruments Incorporated
spi.asm                                                              PAGE   57

    3068 0000017c 0000000902E0E1          LSL       r1, r0, 0x02          ; [ALU_PRU] |128| 
    3069 00000180 0000000904E0E0          LSL       r0, r0, 0x04          ; [ALU_PRU] |128| 
    3070 00000184 00000000E1E0E0          ADD       r0, r0, r1            ; [ALU_PRU] |128| 
    3071 00000188 000000F1002281          LBBO      &r1, r2, 0, 4         ; [ALU_PRU] |128| spiAddr
    3072 0000018c 00000000E0E1E1          ADD       r1, r1, r0            ; [ALU_PRU] |128| 
    3073 00000190 00000024012CE0          LDI       r0, 0x012c            ; [ALU_PRU] |128| 
    3074 00000194 00000000E0E1E0          ADD       r0, r1, r0            ; [ALU_PRU] |128| 
    3075 00000198 000000F100208E          LBBO      &r14, r0, 0, 4        ; [ALU_PRU] |128| 
    3076 0000019c FFC38124FFFFC1          LDI32     r1, 0xffffffc3        ; [ALU_PRU] |128| 
         000001a3 00000000004024 
    3077 000001a4 00000010E1EEE1          AND       r1, r14, r1           ; [ALU_PRU] |128| 
    3078 000001a8 000000E1002081          SBBO      &r1, r0, 0, 4         ; [ALU_PRU] |128| 
    3079        .dwpsn  file "../spi.c",line 131,column 2,is_stmt,isa 0
    3080 000001ac 000000F10C2280          LBBO      &r0, r2, 12, 4        ; [ALU_PRU] |131| chNum
    3081 000001b0 0000000902E0E1          LSL       r1, r0, 0x02          ; [ALU_PRU] |131| 
    3082 000001b4 0000000904E0E0          LSL       r0, r0, 0x04          ; [ALU_PRU] |131| 
    3083 000001b8 00000000E1E0E0          ADD       r0, r0, r1            ; [ALU_PRU] |131| 
    3084 000001bc 000000F1002281          LBBO      &r1, r2, 0, 4         ; [ALU_PRU] |131| spiAddr
    3085 000001c0 00000000E0E1E1          ADD       r1, r1, r0            ; [ALU_PRU] |131| 
    3086 000001c4 00000024012CE0          LDI       r0, 0x012c            ; [ALU_PRU] |131| 
    3087 000001c8 00000000E0E1E0          ADD       r0, r1, r0            ; [ALU_PRU] |131| 
    3088 000001cc 000000F11C2281          LBBO      &r1, r2, 28, 4        ; [ALU_PRU] |131| clkD
    3089 000001d0 000000F100208E          LBBO      &r14, r0, 0, 4        ; [ALU_PRU] |131| 
    3090 000001d4 0000000902E1E1          LSL       r1, r1, 0x02          ; [ALU_PRU] |131| 
    3091 000001d8 00000012E1EEE1          OR        r1, r14, r1           ; [ALU_PRU] |131| 
    3092 000001dc 000000E1002081          SBBO      &r1, r0, 0, 4         ; [ALU_PRU] |131| 
    3093        .dwpsn  file "../spi.c",line 134,column 2,is_stmt,isa 0
    3094 000001e0 000000F10C2280          LBBO      &r0, r2, 12, 4        ; [ALU_PRU] |134| chNum
    3095 000001e4 0000000902E0E1          LSL       r1, r0, 0x02          ; [ALU_PRU] |134| 
    3096 000001e8 0000000904E0E0          LSL       r0, r0, 0x04          ; [ALU_PRU] |134| 
    3097 000001ec 00000000E1E0E0          ADD       r0, r0, r1            ; [ALU_PRU] |134| 
    3098 000001f0 000000F1002281          LBBO      &r1, r2, 0, 4         ; [ALU_PRU] |134| spiAddr
    3099 000001f4 00000000E0E1E1          ADD       r1, r1, r0            ; [ALU_PRU] |134| 
    3100 000001f8 00000024012CE0          LDI       r0, 0x012c            ; [ALU_PRU] |134| 
    3101 000001fc 00000000E0E1E0          ADD       r0, r1, r0            ; [ALU_PRU] |134| 
    3102 00000200 FFFC8124FFFFC1          LDI32     r1, 0xfffffffc        ; [ALU_PRU] |134| 
         00000207 00000000004024 
    3103 00000208 000000F100208E          LBBO      &r14, r0, 0, 4        ; [ALU_PRU] |134| 
    3104 0000020c 00000010E1EEE1          AND       r1, r14, r1           ; [ALU_PRU] |134| 
    3105 00000210 000000E1002081          SBBO      &r1, r0, 0, 4         ; [ALU_PRU] |134| 
    3106        .dwpsn  file "../spi.c",line 137,column 2,is_stmt,isa 0
    3107 00000214 000000F10C2280          LBBO      &r0, r2, 12, 4        ; [ALU_PRU] |137| chNum
    3108 00000218 0000000902E0E1          LSL       r1, r0, 0x02          ; [ALU_PRU] |137| 
    3109 0000021c 0000000904E0E0          LSL       r0, r0, 0x04          ; [ALU_PRU] |137| 
    3110 00000220 00000000E1E0E0          ADD       r0, r0, r1            ; [ALU_PRU] |137| 
    3111 00000224 000000F1002281          LBBO      &r1, r2, 0, 4         ; [ALU_PRU] |137| spiAddr
    3112 00000228 00000000E0E1E1          ADD       r1, r1, r0            ; [ALU_PRU] |137| 
    3113 0000022c 00000024012CE0          LDI       r0, 0x012c            ; [ALU_PRU] |137| 
    3114 00000230 00000000E0E1E0          ADD       r0, r1, r0            ; [ALU_PRU] |137| 
    3115 00000234 000000F1102281          LBBO      &r1, r2, 16, 4        ; [ALU_PRU] |137| clkMode
    3116 00000238 000000F100208E          LBBO      &r14, r0, 0, 4        ; [ALU_PRU] |137| 
    3117 0000023c 0000001103E1E1          AND       r1, r1, 0x03          ; [ALU_PRU] |137| 
    3118 00000240 00000012E1EEE1          OR        r1, r14, r1           ; [ALU_PRU] |137| 
    3119 00000244 000000E1002081          SBBO      &r1, r0, 0, 4         ; [ALU_PRU] |137| 
    3120        .dwpsn  file "../spi.c",line 138,column 1,is_stmt,isa 0
PRU Assembler Unix v2.1.2 Thu Jan 28 12:38:40 2016

Tools Copyright (c) 2012-2015 Texas Instruments Incorporated
spi.asm                                                              PAGE   58

    3121 00000248 000000F12002C3          LBBO      &r3.b2, r2, 32, 2     ; [ALU_PRU] 
    3122        .dwcfi  restore_reg, 14
    3123        .dwcfi  restore_reg, 15
    3124 0000024c 0000000122E2E2          ADD       r2, r2, 0x22          ; [ALU_PRU] 
    3125        .dwcfi  cfa_offset, 0
    3126$C$DW$224       .dwtag  DW_TAG_TI_branch
    3127        .dwattr $C$DW$224, DW_AT_low_pc(0x00)
    3128        .dwattr $C$DW$224, DW_AT_TI_return
    3129 00000250 00000020C30000          JMP       r3.w2                 ; [ALU_PRU] 
    3130        .dwattr $C$DW$209, DW_AT_TI_end_file("../spi.c")
    3131        .dwattr $C$DW$209, DW_AT_TI_end_line(0x8a)
    3132        .dwattr $C$DW$209, DW_AT_TI_end_column(0x01)
    3133        .dwendentry
    3134        .dwendtag $C$DW$209
    3135
    3136 00000000                         .sect   ".text:SPI_CSSet"
    3137        .clink
    3138        .global ||SPI_CSSet||
    3139
    3140$C$DW$225       .dwtag  DW_TAG_subprogram, DW_AT_name("SPI_CSSet")
    3141        .dwattr $C$DW$225, DW_AT_low_pc(||SPI_CSSet||)
    3142        .dwattr $C$DW$225, DW_AT_high_pc(0x00)
    3143        .dwattr $C$DW$225, DW_AT_TI_symbol_name("SPI_CSSet")
    3144        .dwattr $C$DW$225, DW_AT_external
    3145        .dwattr $C$DW$225, DW_AT_TI_begin_file("../spi.c")
    3146        .dwattr $C$DW$225, DW_AT_TI_begin_line(0xa9)
    3147        .dwattr $C$DW$225, DW_AT_TI_begin_column(0x06)
    3148        .dwattr $C$DW$225, DW_AT_decl_file("../spi.c")
    3149        .dwattr $C$DW$225, DW_AT_decl_line(0xa9)
    3150        .dwattr $C$DW$225, DW_AT_decl_column(0x06)
    3151        .dwattr $C$DW$225, DW_AT_TI_max_frame_size(0x08)
    3152        .dwpsn  file "../spi.c",line 170,column 1,is_stmt,address ||SPI_CSSet||,isa 0
    3153
    3154        .dwfde $C$DW$CIE, ||SPI_CSSet||
    3155$C$DW$226       .dwtag  DW_TAG_formal_parameter, DW_AT_name("spiAddr")
    3156        .dwattr $C$DW$226, DW_AT_TI_symbol_name("spiAddr")
    3157        .dwattr $C$DW$226, DW_AT_type(*$C$DW$T$19)
    3158        .dwattr $C$DW$226, DW_AT_location[DW_OP_regx 0x38]
    3159$C$DW$227       .dwtag  DW_TAG_formal_parameter, DW_AT_name("mode")
    3160        .dwattr $C$DW$227, DW_AT_TI_symbol_name("mode")
    3161        .dwattr $C$DW$227, DW_AT_type(*$C$DW$T$19)
    3162        .dwattr $C$DW$227, DW_AT_location[DW_OP_regx 0x3c]
    3163
    3164;***************************************************************
    3165;* FNAME: SPI_CSSet                     FR SIZE:   8           *
    3166;*                                                             *
    3167;* FUNCTION ENVIRONMENT                                        *
    3168;*                                                             *
    3169;* FUNCTION PROPERTIES                                         *
    3170;*                            8 Auto,  0 SOE     *
    3171;***************************************************************
    3172
    3173 00000000                 ||SPI_CSSet||:
    3174;* --------------------------------------------------------------------------*
    3175        .dwcfi  cfa_offset, 0
PRU Assembler Unix v2.1.2 Thu Jan 28 12:38:40 2016

Tools Copyright (c) 2012-2015 Texas Instruments Incorporated
spi.asm                                                              PAGE   59

    3176 00000000 0000000508E2E2          SUB       r2, r2, 0x08          ; [ALU_PRU] 
    3177        .dwcfi  cfa_offset, 8
    3178$C$DW$228       .dwtag  DW_TAG_variable, DW_AT_name("spiAddr")
    3179        .dwattr $C$DW$228, DW_AT_TI_symbol_name("spiAddr")
    3180        .dwattr $C$DW$228, DW_AT_type(*$C$DW$T$19)
    3181        .dwattr $C$DW$228, DW_AT_location[DW_OP_breg8 0]
    3182 00000004 00000010000000          NOP                             ; [ALU_PRU] 
    3183$C$DW$229       .dwtag  DW_TAG_variable, DW_AT_name("mode")
    3184        .dwattr $C$DW$229, DW_AT_TI_symbol_name("mode")
    3185        .dwattr $C$DW$229, DW_AT_type(*$C$DW$T$19)
    3186        .dwattr $C$DW$229, DW_AT_location[DW_OP_breg8 4]
    3187 00000008 00000010000000          NOP                             ; [ALU_PRU] 
    3188 0000000c 000000E104228F          SBBO      &r15, r2, 4, 4        ; [ALU_PRU] |170| mode
    3189 00000010 000000E100228E          SBBO      &r14, r2, 0, 4        ; [ALU_PRU] |170| spiAddr
    3190        .dwpsn  file "../spi.c",line 171,column 2,is_stmt,isa 0
    3191 00000014 000000F1042280          LBBO      &r0, r2, 4, 4         ; [ALU_PRU] |171| mode
    3192 00000018 0000006901E008          QBNE      ||$C$L13||, r0, 0x01  ; [ALU_PRU] |171| 
    3193;* --------------------------------------------------------------------------*
    3194        .dwpsn  file "../spi.c",line 173,column 3,is_stmt,isa 0
    3195 0000001c 000000240128E0          LDI       r0, 0x0128            ; [ALU_PRU] |173| 
    3196 00000020 000000F1002281          LBBO      &r1, r2, 0, 4         ; [ALU_PRU] |173| spiAddr
    3197 00000024 00000000E0E1E0          ADD       r0, r1, r0            ; [ALU_PRU] |173| 
    3198 00000028 000000F1002081          LBBO      &r1, r0, 0, 4         ; [ALU_PRU] |173| 
    3199 0000002c 0000001D01E1E1          CLR       r1, r1, 0x00000001    ; [ALU_PRU] |173| 
    3200 00000030 000000E1002081          SBBO      &r1, r0, 0, 4         ; [ALU_PRU] |173| 
    3201        .dwpsn  file "../spi.c",line 174,column 2,is_stmt,isa 0
    3202 00000034 00000021000000!         JMP       ||$C$L14||            ; [ALU_PRU] |174| 
    3203;* --------------------------------------------------------------------------*
    3204 00000038                 ||$C$L13||:    
    3205        .dwpsn  file "../spi.c",line 174,column 9,is_stmt,isa 0
    3206 00000038 0000006900E007          QBNE      ||$C$L14||, r0, 0x00  ; [ALU_PRU] |174| 
    3207;* --------------------------------------------------------------------------*
    3208        .dwpsn  file "../spi.c",line 175,column 3,is_stmt,isa 0
    3209 0000003c 000000240128E0          LDI       r0, 0x0128            ; [ALU_PRU] |175| 
    3210 00000040 000000F1002281          LBBO      &r1, r2, 0, 4         ; [ALU_PRU] |175| spiAddr
    3211 00000044 00000000E0E1E0          ADD       r0, r1, r0            ; [ALU_PRU] |175| 
    3212 00000048 000000F1002081          LBBO      &r1, r0, 0, 4         ; [ALU_PRU] |175| 
    3213 0000004c 0000001F01E1E1          SET       r1, r1, 0x00000001    ; [ALU_PRU] |175| 
    3214 00000050 000000E1002081          SBBO      &r1, r0, 0, 4         ; [ALU_PRU] |175| 
    3215        .dwpsn  file "../spi.c",line 177,column 1,is_stmt,isa 0
    3216;* --------------------------------------------------------------------------*
    3217 00000054                 ||$C$L14||:    
    3218 00000054 0000000108E2E2          ADD       r2, r2, 0x08          ; [ALU_PRU] 
    3219        .dwcfi  cfa_offset, 0
    3220$C$DW$230       .dwtag  DW_TAG_TI_branch
    3221        .dwattr $C$DW$230, DW_AT_low_pc(0x00)
    3222        .dwattr $C$DW$230, DW_AT_TI_return
    3223 00000058 00000020C30000          JMP       r3.w2                 ; [ALU_PRU] 
    3224        .dwattr $C$DW$225, DW_AT_TI_end_file("../spi.c")
    3225        .dwattr $C$DW$225, DW_AT_TI_end_line(0xb1)
    3226        .dwattr $C$DW$225, DW_AT_TI_end_column(0x01)
    3227        .dwendentry
    3228        .dwendtag $C$DW$225
    3229
    3230 00000000                         .sect   ".text:SPI_MasterModeSet"
PRU Assembler Unix v2.1.2 Thu Jan 28 12:38:40 2016

Tools Copyright (c) 2012-2015 Texas Instruments Incorporated
spi.asm                                                              PAGE   60

    3231        .clink
    3232        .global ||SPI_MasterModeSet||
    3233
    3234$C$DW$231       .dwtag  DW_TAG_subprogram, DW_AT_name("SPI_MasterModeSet")
    3235        .dwattr $C$DW$231, DW_AT_low_pc(||SPI_MasterModeSet||)
    3236        .dwattr $C$DW$231, DW_AT_high_pc(0x00)
    3237        .dwattr $C$DW$231, DW_AT_TI_symbol_name("SPI_MasterModeSet")
    3238        .dwattr $C$DW$231, DW_AT_external
    3239        .dwattr $C$DW$231, DW_AT_type(*$C$DW$T$19)
    3240        .dwattr $C$DW$231, DW_AT_TI_begin_file("../spi.c")
    3241        .dwattr $C$DW$231, DW_AT_TI_begin_line(0x148)
    3242        .dwattr $C$DW$231, DW_AT_TI_begin_column(0x0a)
    3243        .dwattr $C$DW$231, DW_AT_decl_file("../spi.c")
    3244        .dwattr $C$DW$231, DW_AT_decl_line(0x148)
    3245        .dwattr $C$DW$231, DW_AT_decl_column(0x0a)
    3246        .dwattr $C$DW$231, DW_AT_TI_max_frame_size(0x18)
    3247        .dwpsn  file "../spi.c",line 329,column 1,is_stmt,address ||SPI_MasterModeSet||,isa 0
    3248
    3249        .dwfde $C$DW$CIE, ||SPI_MasterModeSet||
    3250$C$DW$232       .dwtag  DW_TAG_formal_parameter, DW_AT_name("spiAddr")
    3251        .dwattr $C$DW$232, DW_AT_TI_symbol_name("spiAddr")
    3252        .dwattr $C$DW$232, DW_AT_type(*$C$DW$T$19)
    3253        .dwattr $C$DW$232, DW_AT_location[DW_OP_regx 0x38]
    3254$C$DW$233       .dwtag  DW_TAG_formal_parameter, DW_AT_name("channelMode")
    3255        .dwattr $C$DW$233, DW_AT_TI_symbol_name("channelMode")
    3256        .dwattr $C$DW$233, DW_AT_type(*$C$DW$T$19)
    3257        .dwattr $C$DW$233, DW_AT_location[DW_OP_regx 0x3c]
    3258$C$DW$234       .dwtag  DW_TAG_formal_parameter, DW_AT_name("trMode")
    3259        .dwattr $C$DW$234, DW_AT_TI_symbol_name("trMode")
    3260        .dwattr $C$DW$234, DW_AT_type(*$C$DW$T$19)
    3261        .dwattr $C$DW$234, DW_AT_location[DW_OP_regx 0x40]
    3262$C$DW$235       .dwtag  DW_TAG_formal_parameter, DW_AT_name("pinMode")
    3263        .dwattr $C$DW$235, DW_AT_TI_symbol_name("pinMode")
    3264        .dwattr $C$DW$235, DW_AT_type(*$C$DW$T$19)
    3265        .dwattr $C$DW$235, DW_AT_location[DW_OP_regx 0x44]
    3266$C$DW$236       .dwtag  DW_TAG_formal_parameter, DW_AT_name("chNum")
    3267        .dwattr $C$DW$236, DW_AT_TI_symbol_name("chNum")
    3268        .dwattr $C$DW$236, DW_AT_type(*$C$DW$T$19)
    3269        .dwattr $C$DW$236, DW_AT_location[DW_OP_regx 0x48]
    3270
    3271;***************************************************************
    3272;* FNAME: SPI_MasterModeSet             FR SIZE:  24           *
    3273;*                                                             *
    3274;* FUNCTION ENVIRONMENT                                        *
    3275;*                                                             *
    3276;* FUNCTION PROPERTIES                                         *
    3277;*                           24 Auto,  0 SOE     *
    3278;***************************************************************
    3279
    3280 00000000                 ||SPI_MasterModeSet||:
    3281;* --------------------------------------------------------------------------*
    3282        .dwcfi  cfa_offset, 0
    3283 00000000 0000000518E2E2          SUB       r2, r2, 0x18          ; [ALU_PRU] 
    3284        .dwcfi  cfa_offset, 24
    3285$C$DW$237       .dwtag  DW_TAG_variable, DW_AT_name("spiAddr")
PRU Assembler Unix v2.1.2 Thu Jan 28 12:38:40 2016

Tools Copyright (c) 2012-2015 Texas Instruments Incorporated
spi.asm                                                              PAGE   61

    3286        .dwattr $C$DW$237, DW_AT_TI_symbol_name("spiAddr")
    3287        .dwattr $C$DW$237, DW_AT_type(*$C$DW$T$19)
    3288        .dwattr $C$DW$237, DW_AT_location[DW_OP_breg8 0]
    3289 00000004 00000010000000          NOP                             ; [ALU_PRU] 
    3290$C$DW$238       .dwtag  DW_TAG_variable, DW_AT_name("channelMode")
    3291        .dwattr $C$DW$238, DW_AT_TI_symbol_name("channelMode")
    3292        .dwattr $C$DW$238, DW_AT_type(*$C$DW$T$19)
    3293        .dwattr $C$DW$238, DW_AT_location[DW_OP_breg8 4]
    3294 00000008 00000010000000          NOP                             ; [ALU_PRU] 
    3295$C$DW$239       .dwtag  DW_TAG_variable, DW_AT_name("trMode")
    3296        .dwattr $C$DW$239, DW_AT_TI_symbol_name("trMode")
    3297        .dwattr $C$DW$239, DW_AT_type(*$C$DW$T$19)
    3298        .dwattr $C$DW$239, DW_AT_location[DW_OP_breg8 8]
    3299 0000000c 00000010000000          NOP                             ; [ALU_PRU] 
    3300$C$DW$240       .dwtag  DW_TAG_variable, DW_AT_name("pinMode")
    3301        .dwattr $C$DW$240, DW_AT_TI_symbol_name("pinMode")
    3302        .dwattr $C$DW$240, DW_AT_type(*$C$DW$T$19)
    3303        .dwattr $C$DW$240, DW_AT_location[DW_OP_breg8 12]
    3304 00000010 00000010000000          NOP                             ; [ALU_PRU] 
    3305$C$DW$241       .dwtag  DW_TAG_variable, DW_AT_name("chNum")
    3306        .dwattr $C$DW$241, DW_AT_TI_symbol_name("chNum")
    3307        .dwattr $C$DW$241, DW_AT_type(*$C$DW$T$19)
    3308        .dwattr $C$DW$241, DW_AT_location[DW_OP_breg8 16]
    3309 00000014 00000010000000          NOP                             ; [ALU_PRU] 
    3310$C$DW$242       .dwtag  DW_TAG_variable, DW_AT_name("retVal")
    3311        .dwattr $C$DW$242, DW_AT_TI_symbol_name("retVal")
    3312        .dwattr $C$DW$242, DW_AT_type(*$C$DW$T$19)
    3313        .dwattr $C$DW$242, DW_AT_location[DW_OP_breg8 20]
    3314 00000018 00000010000000          NOP                             ; [ALU_PRU] 
    3315 0000001c 000000E1102292          SBBO      &r18, r2, 16, 4       ; [ALU_PRU] |329| chNum
    3316 00000020 000000E10C2291          SBBO      &r17, r2, 12, 4       ; [ALU_PRU] |329| pinMode
    3317 00000024 000000E1082290          SBBO      &r16, r2, 8, 4        ; [ALU_PRU] |329| trMode
    3318 00000028 000000E104228F          SBBO      &r15, r2, 4, 4        ; [ALU_PRU] |329| channelMode
    3319 0000002c 000000E100228E          SBBO      &r14, r2, 0, 4        ; [ALU_PRU] |329| spiAddr
    3320        .dwpsn  file "../spi.c",line 330,column 18,is_stmt,isa 0
    3321 00000030 000000240000E0          LDI       r0, 0x0000            ; [ALU_PRU] |330| 
    3322 00000034 000000E1142280          SBBO      &r0, r2, 20, 4        ; [ALU_PRU] |330| retVal
    3323        .dwpsn  file "../spi.c",line 333,column 2,is_stmt,isa 0
    3324 00000038 000000F1002281          LBBO      &r1, r2, 0, 4         ; [ALU_PRU] |333| spiAddr
    3325 0000003c 000000240128E0          LDI       r0, 0x0128            ; [ALU_PRU] |333| 
    3326 00000040 00000000E0E1E0          ADD       r0, r1, r0            ; [ALU_PRU] |333| 
    3327 00000044 000000F1002081          LBBO      &r1, r0, 0, 4         ; [ALU_PRU] |333| 
    3328 00000048 0000001D00E1E1          CLR       r1, r1, 0x00000000    ; [ALU_PRU] |333| 
    3329 0000004c 000000E1002081          SBBO      &r1, r0, 0, 4         ; [ALU_PRU] |333| 
    3330        .dwpsn  file "../spi.c",line 336,column 2,is_stmt,isa 0
    3331 00000050 000000240128E0          LDI       r0, 0x0128            ; [ALU_PRU] |336| 
    3332 00000054 000000F1002281          LBBO      &r1, r2, 0, 4         ; [ALU_PRU] |336| spiAddr
    3333 00000058 00000000E0E1E0          ADD       r0, r1, r0            ; [ALU_PRU] |336| 
    3334 0000005c 000000F1042281          LBBO      &r1, r2, 4, 4         ; [ALU_PRU] |336| channelMode
    3335 00000060 000000F100208E          LBBO      &r14, r0, 0, 4        ; [ALU_PRU] |336| 
    3336 00000064 0000001101E1E1          AND       r1, r1, 0x01          ; [ALU_PRU] |336| 
    3337 00000068 00000012E1EEE1          OR        r1, r14, r1           ; [ALU_PRU] |336| 
    3338 0000006c 000000E1002081          SBBO      &r1, r0, 0, 4         ; [ALU_PRU] |336| 
    3339        .dwpsn  file "../spi.c",line 339,column 2,is_stmt,isa 0
    3340 00000070 000000F1102280          LBBO      &r0, r2, 16, 4        ; [ALU_PRU] |339| chNum
PRU Assembler Unix v2.1.2 Thu Jan 28 12:38:40 2016

Tools Copyright (c) 2012-2015 Texas Instruments Incorporated
spi.asm                                                              PAGE   62

    3341 00000074 0000000902E0E1          LSL       r1, r0, 0x02          ; [ALU_PRU] |339| 
    3342 00000078 0000000904E0E0          LSL       r0, r0, 0x04          ; [ALU_PRU] |339| 
    3343 0000007c 00000000E1E0E0          ADD       r0, r0, r1            ; [ALU_PRU] |339| 
    3344 00000080 000000F1002281          LBBO      &r1, r2, 0, 4         ; [ALU_PRU] |339| spiAddr
    3345 00000084 00000000E0E1E1          ADD       r1, r1, r0            ; [ALU_PRU] |339| 
    3346 00000088 00000024012CE0          LDI       r0, 0x012c            ; [ALU_PRU] |339| 
    3347 0000008c 00000000E0E1E0          ADD       r0, r1, r0            ; [ALU_PRU] |339| 
    3348 00000090 CFFF8124FFFFC1          LDI32     r1, 0xffffcfff        ; [ALU_PRU] |339| 
         00000097 00000000004024 
    3349 00000098 000000F100208E          LBBO      &r14, r0, 0, 4        ; [ALU_PRU] |339| 
    3350 0000009c 00000010E1EEE1          AND       r1, r14, r1           ; [ALU_PRU] |339| 
    3351 000000a0 000000E1002081          SBBO      &r1, r0, 0, 4         ; [ALU_PRU] |339| 
    3352        .dwpsn  file "../spi.c",line 342,column 2,is_stmt,isa 0
    3353 000000a4 000000F1102280          LBBO      &r0, r2, 16, 4        ; [ALU_PRU] |342| chNum
    3354 000000a8 000000F108228E          LBBO      &r14, r2, 8, 4        ; [ALU_PRU] |342| trMode
    3355 000000ac 0000000902E0E1          LSL       r1, r0, 0x02          ; [ALU_PRU] |342| 
    3356 000000b0 0000000904E0E0          LSL       r0, r0, 0x04          ; [ALU_PRU] |342| 
    3357 000000b4 00000000E1E0E0          ADD       r0, r0, r1            ; [ALU_PRU] |342| 
    3358 000000b8 000000F1002281          LBBO      &r1, r2, 0, 4         ; [ALU_PRU] |342| spiAddr
    3359 000000bc 00000000E0E1E1          ADD       r1, r1, r0            ; [ALU_PRU] |342| 
    3360 000000c0 00000024012CE0          LDI       r0, 0x012c            ; [ALU_PRU] |342| 
    3361 000000c4 00000000E0E1E0          ADD       r0, r1, r0            ; [ALU_PRU] |342| 
    3362 000000c8 000000243000E1          LDI       r1, 0x3000            ; [ALU_PRU] |342| 
    3363 000000cc 00000010E1EEE1          AND       r1, r14, r1           ; [ALU_PRU] |342| 
    3364 000000d0 000000F100208E          LBBO      &r14, r0, 0, 4        ; [ALU_PRU] |342| 
    3365 000000d4 00000012E1EEE1          OR        r1, r14, r1           ; [ALU_PRU] |342| 
    3366 000000d8 000000E1002081          SBBO      &r1, r0, 0, 4         ; [ALU_PRU] |342| 
    3367        .dwpsn  file "../spi.c",line 344,column 2,is_stmt,isa 0
    3368 000000dc 000000F1082280          LBBO      &r0, r2, 8, 4         ; [ALU_PRU] |344| trMode
    3369 000000e0 0000006900E006          QBNE      ||$C$L15||, r0, 0x00  ; [ALU_PRU] |344| 
    3370;* --------------------------------------------------------------------------*
    3371 000000e4 000000F10C2280          LBBO      &r0, r2, 12, 4        ; [ALU_PRU] |344| pinMode
    3372 000000e8 000081240003C1          LDI32     r1, 0x00030000        ; [ALU_PRU] |344| 
         000000ef 00000000004024 
    3373 000000f0 00000068E1E002          QBNE      ||$C$L15||, r0, r1    ; [ALU_PRU] |344| 
    3374;* --------------------------------------------------------------------------*
    3375 000000f4 00000021000000!         JMP       ||$C$L18||            ; [ALU_PRU] |344| 
    3376;* --------------------------------------------------------------------------*
    3377 000000f8                 ||$C$L15||:    
    3378 000000f8 000000F1082280          LBBO      &r0, r2, 8, 4         ; [ALU_PRU] |344| trMode
    3379 000000fc 000000242000E1          LDI       r1, 0x2000            ; [ALU_PRU] |344| 
    3380 00000100 00000068E1E006          QBNE      ||$C$L16||, r0, r1    ; [ALU_PRU] |344| 
    3381;* --------------------------------------------------------------------------*
    3382 00000104 000000F10C2280          LBBO      &r0, r2, 12, 4        ; [ALU_PRU] |344| pinMode
    3383 00000108 000081240003C1          LDI32     r1, 0x00030000        ; [ALU_PRU] |344| 
         0000010f 00000000004024 
    3384 00000110 00000068E1E002          QBNE      ||$C$L16||, r0, r1    ; [ALU_PRU] |344| 
    3385;* --------------------------------------------------------------------------*
    3386 00000114 00000021000000!         JMP       ||$C$L18||            ; [ALU_PRU] |344| 
    3387;* --------------------------------------------------------------------------*
    3388 00000118                 ||$C$L16||:    
    3389 00000118 000000F1082280          LBBO      &r0, r2, 8, 4         ; [ALU_PRU] |344| trMode
    3390 0000011c 0000006900E006          QBNE      ||$C$L17||, r0, 0x00  ; [ALU_PRU] |344| 
    3391;* --------------------------------------------------------------------------*
    3392 00000120 000000F10C2280          LBBO      &r0, r2, 12, 4        ; [ALU_PRU] |344| pinMode
PRU Assembler Unix v2.1.2 Thu Jan 28 12:38:40 2016

Tools Copyright (c) 2012-2015 Texas Instruments Incorporated
spi.asm                                                              PAGE   63

    3393 00000124 000081240007C1          LDI32     r1, 0x00070000        ; [ALU_PRU] |344| 
         0000012b 00000000004024 
    3394 0000012c 00000068E1E002          QBNE      ||$C$L17||, r0, r1    ; [ALU_PRU] |344| 
    3395;* --------------------------------------------------------------------------*
    3396 00000130 00000021000000!         JMP       ||$C$L18||            ; [ALU_PRU] |344| 
    3397;* --------------------------------------------------------------------------*
    3398 00000134                 ||$C$L17||:    
    3399 00000134 000000F1082280          LBBO      &r0, r2, 8, 4         ; [ALU_PRU] |344| trMode
    3400 00000138 000000242000E1          LDI       r1, 0x2000            ; [ALU_PRU] |344| 
    3401 0000013c 00000068E1E008          QBNE      ||$C$L19||, r0, r1    ; [ALU_PRU] |344| 
    3402;* --------------------------------------------------------------------------*
    3403 00000140 000000F10C2280          LBBO      &r0, r2, 12, 4        ; [ALU_PRU] |344| pinMode
    3404 00000144 000081240007C1          LDI32     r1, 0x00070000        ; [ALU_PRU] |344| 
         0000014b 00000000004024 
    3405 0000014c 00000068E1E004          QBNE      ||$C$L19||, r0, r1    ; [ALU_PRU] |344| 
    3406;* --------------------------------------------------------------------------*
    3407 00000150                 ||$C$L18||:    
    3408        .dwpsn  file "../spi.c",line 349,column 3,is_stmt,isa 0
    3409 00000150 000000240000E0          LDI       r0, 0x0000            ; [ALU_PRU] |349| 
    3410 00000154 000000E1142280          SBBO      &r0, r2, 20, 4        ; [ALU_PRU] |349| retVal
    3411        .dwpsn  file "../spi.c",line 350,column 2,is_stmt,isa 0
    3412 00000158 00000021000000!         JMP       ||$C$L20||            ; [ALU_PRU] |350| 
    3413;* --------------------------------------------------------------------------*
    3414 0000015c                 ||$C$L19||:    
    3415        .dwpsn  file "../spi.c",line 352,column 3,is_stmt,isa 0
    3416 0000015c 000000F1102280          LBBO      &r0, r2, 16, 4        ; [ALU_PRU] |352| chNum
    3417 00000160 0000000902E0E1          LSL       r1, r0, 0x02          ; [ALU_PRU] |352| 
    3418 00000164 0000000904E0E0          LSL       r0, r0, 0x04          ; [ALU_PRU] |352| 
    3419 00000168 00000000E1E0E0          ADD       r0, r0, r1            ; [ALU_PRU] |352| 
    3420 0000016c 000000F1002281          LBBO      &r1, r2, 0, 4         ; [ALU_PRU] |352| spiAddr
    3421 00000170 00000000E0E1E1          ADD       r1, r1, r0            ; [ALU_PRU] |352| 
    3422 00000174 00000024012CE0          LDI       r0, 0x012c            ; [ALU_PRU] |352| 
    3423 00000178 00000000E0E1E0          ADD       r0, r1, r0            ; [ALU_PRU] |352| 
    3424 0000017c 000000F100208E          LBBO      &r14, r0, 0, 4        ; [ALU_PRU] |352| 
    3425 00000180 FFFF8124FFF8C1          LDI32     r1, 0xfff8ffff        ; [ALU_PRU] |352| 
         00000187 00000000004024 
    3426 00000188 00000010E1EEE1          AND       r1, r14, r1           ; [ALU_PRU] |352| 
    3427 0000018c 000000E1002081          SBBO      &r1, r0, 0, 4         ; [ALU_PRU] |352| 
    3428        .dwpsn  file "../spi.c",line 355,column 3,is_stmt,isa 0
    3429 00000190 000000F1102280          LBBO      &r0, r2, 16, 4        ; [ALU_PRU] |355| chNum
    3430 00000194 000000F10C228E          LBBO      &r14, r2, 12, 4       ; [ALU_PRU] |355| pinMode
    3431 00000198 0000000902E0E1          LSL       r1, r0, 0x02          ; [ALU_PRU] |355| 
    3432 0000019c 0000000904E0E0          LSL       r0, r0, 0x04          ; [ALU_PRU] |355| 
    3433 000001a0 00000000E1E0E0          ADD       r0, r0, r1            ; [ALU_PRU] |355| 
    3434 000001a4 000000F1002281          LBBO      &r1, r2, 0, 4         ; [ALU_PRU] |355| spiAddr
    3435 000001a8 00000000E0E1E1          ADD       r1, r1, r0            ; [ALU_PRU] |355| 
    3436 000001ac 00000024012CE0          LDI       r0, 0x012c            ; [ALU_PRU] |355| 
    3437 000001b0 00000000E0E1E0          ADD       r0, r1, r0            ; [ALU_PRU] |355| 
    3438 000001b4 000081240007C1          LDI32     r1, 0x00070000        ; [ALU_PRU] |355| 
         000001bb 00000000004024 
    3439 000001bc 00000010E1EEE1          AND       r1, r14, r1           ; [ALU_PRU] |355| 
    3440 000001c0 000000F100208E          LBBO      &r14, r0, 0, 4        ; [ALU_PRU] |355| 
    3441 000001c4 00000012E1EEE1          OR        r1, r14, r1           ; [ALU_PRU] |355| 
    3442 000001c8 000000E1002081          SBBO      &r1, r0, 0, 4         ; [ALU_PRU] |355| 
    3443        .dwpsn  file "../spi.c",line 357,column 3,is_stmt,isa 0
PRU Assembler Unix v2.1.2 Thu Jan 28 12:38:40 2016

Tools Copyright (c) 2012-2015 Texas Instruments Incorporated
spi.asm                                                              PAGE   64

    3444 000001cc 000000240001E0          LDI       r0, 0x0001            ; [ALU_PRU] |357| 
    3445 000001d0 000000E1142280          SBBO      &r0, r2, 20, 4        ; [ALU_PRU] |357| retVal
    3446;* --------------------------------------------------------------------------*
    3447 000001d4                 ||$C$L20||:    
    3448        .dwpsn  file "../spi.c",line 360,column 2,is_stmt,isa 0
    3449 000001d4 000000F114228E          LBBO      &r14, r2, 20, 4       ; [ALU_PRU] |360| retVal
    3450        .dwpsn  file "../spi.c",line 361,column 1,is_stmt,isa 0
    3451 000001d8 0000000118E2E2          ADD       r2, r2, 0x18          ; [ALU_PRU] 
    3452        .dwcfi  cfa_offset, 0
    3453$C$DW$243       .dwtag  DW_TAG_TI_branch
    3454        .dwattr $C$DW$243, DW_AT_low_pc(0x00)
    3455        .dwattr $C$DW$243, DW_AT_TI_return
    3456 000001dc 00000020C30000          JMP       r3.w2                 ; [ALU_PRU] 
    3457        .dwattr $C$DW$231, DW_AT_TI_end_file("../spi.c")
    3458        .dwattr $C$DW$231, DW_AT_TI_end_line(0x169)
    3459        .dwattr $C$DW$231, DW_AT_TI_end_column(0x01)
    3460        .dwendentry
    3461        .dwendtag $C$DW$231
    3462
    3463 00000000                         .sect   ".text:SPI_SlaveModeSet"
    3464        .clink
    3465        .global ||SPI_SlaveModeSet||
    3466
    3467$C$DW$244       .dwtag  DW_TAG_subprogram, DW_AT_name("SPI_SlaveModeSet")
    3468        .dwattr $C$DW$244, DW_AT_low_pc(||SPI_SlaveModeSet||)
    3469        .dwattr $C$DW$244, DW_AT_high_pc(0x00)
    3470        .dwattr $C$DW$244, DW_AT_TI_symbol_name("SPI_SlaveModeSet")
    3471        .dwattr $C$DW$244, DW_AT_external
    3472        .dwattr $C$DW$244, DW_AT_type(*$C$DW$T$19)
    3473        .dwattr $C$DW$244, DW_AT_TI_begin_file("../spi.c")
    3474        .dwattr $C$DW$244, DW_AT_TI_begin_line(0x17d)
    3475        .dwattr $C$DW$244, DW_AT_TI_begin_column(0x0a)
    3476        .dwattr $C$DW$244, DW_AT_decl_file("../spi.c")
    3477        .dwattr $C$DW$244, DW_AT_decl_line(0x17d)
    3478        .dwattr $C$DW$244, DW_AT_decl_column(0x0a)
    3479        .dwattr $C$DW$244, DW_AT_TI_max_frame_size(0x10)
    3480        .dwpsn  file "../spi.c",line 382,column 1,is_stmt,address ||SPI_SlaveModeSet||,isa 0
    3481
    3482        .dwfde $C$DW$CIE, ||SPI_SlaveModeSet||
    3483$C$DW$245       .dwtag  DW_TAG_formal_parameter, DW_AT_name("spiAddr")
    3484        .dwattr $C$DW$245, DW_AT_TI_symbol_name("spiAddr")
    3485        .dwattr $C$DW$245, DW_AT_type(*$C$DW$T$19)
    3486        .dwattr $C$DW$245, DW_AT_location[DW_OP_regx 0x38]
    3487$C$DW$246       .dwtag  DW_TAG_formal_parameter, DW_AT_name("trMode")
    3488        .dwattr $C$DW$246, DW_AT_TI_symbol_name("trMode")
    3489        .dwattr $C$DW$246, DW_AT_type(*$C$DW$T$19)
    3490        .dwattr $C$DW$246, DW_AT_location[DW_OP_regx 0x3c]
    3491$C$DW$247       .dwtag  DW_TAG_formal_parameter, DW_AT_name("pinMode")
    3492        .dwattr $C$DW$247, DW_AT_TI_symbol_name("pinMode")
    3493        .dwattr $C$DW$247, DW_AT_type(*$C$DW$T$19)
    3494        .dwattr $C$DW$247, DW_AT_location[DW_OP_regx 0x40]
    3495
    3496;***************************************************************
    3497;* FNAME: SPI_SlaveModeSet              FR SIZE:  16           *
    3498;*                                                             *
PRU Assembler Unix v2.1.2 Thu Jan 28 12:38:40 2016

Tools Copyright (c) 2012-2015 Texas Instruments Incorporated
spi.asm                                                              PAGE   65

    3499;* FUNCTION ENVIRONMENT                                        *
    3500;*                                                             *
    3501;* FUNCTION PROPERTIES                                         *
    3502;*                           16 Auto,  0 SOE     *
    3503;***************************************************************
    3504
    3505 00000000                 ||SPI_SlaveModeSet||:
    3506;* --------------------------------------------------------------------------*
    3507        .dwcfi  cfa_offset, 0
    3508 00000000 0000000510E2E2          SUB       r2, r2, 0x10          ; [ALU_PRU] 
    3509        .dwcfi  cfa_offset, 16
    3510$C$DW$248       .dwtag  DW_TAG_variable, DW_AT_name("spiAddr")
    3511        .dwattr $C$DW$248, DW_AT_TI_symbol_name("spiAddr")
    3512        .dwattr $C$DW$248, DW_AT_type(*$C$DW$T$19)
    3513        .dwattr $C$DW$248, DW_AT_location[DW_OP_breg8 0]
    3514 00000004 00000010000000          NOP                             ; [ALU_PRU] 
    3515$C$DW$249       .dwtag  DW_TAG_variable, DW_AT_name("trMode")
    3516        .dwattr $C$DW$249, DW_AT_TI_symbol_name("trMode")
    3517        .dwattr $C$DW$249, DW_AT_type(*$C$DW$T$19)
    3518        .dwattr $C$DW$249, DW_AT_location[DW_OP_breg8 4]
    3519 00000008 00000010000000          NOP                             ; [ALU_PRU] 
    3520$C$DW$250       .dwtag  DW_TAG_variable, DW_AT_name("pinMode")
    3521        .dwattr $C$DW$250, DW_AT_TI_symbol_name("pinMode")
    3522        .dwattr $C$DW$250, DW_AT_type(*$C$DW$T$19)
    3523        .dwattr $C$DW$250, DW_AT_location[DW_OP_breg8 8]
    3524 0000000c 00000010000000          NOP                             ; [ALU_PRU] 
    3525$C$DW$251       .dwtag  DW_TAG_variable, DW_AT_name("retVal")
    3526        .dwattr $C$DW$251, DW_AT_TI_symbol_name("retVal")
    3527        .dwattr $C$DW$251, DW_AT_type(*$C$DW$T$19)
    3528        .dwattr $C$DW$251, DW_AT_location[DW_OP_breg8 12]
    3529 00000010 00000010000000          NOP                             ; [ALU_PRU] 
    3530 00000014 000000E1082290          SBBO      &r16, r2, 8, 4        ; [ALU_PRU] |382| pinMode
    3531 00000018 000000E104228F          SBBO      &r15, r2, 4, 4        ; [ALU_PRU] |382| trMode
    3532 0000001c 000000E100228E          SBBO      &r14, r2, 0, 4        ; [ALU_PRU] |382| spiAddr
    3533        .dwpsn  file "../spi.c",line 383,column 18,is_stmt,isa 0
    3534 00000020 000000240001E0          LDI       r0, 0x0001            ; [ALU_PRU] |383| 
    3535 00000024 000000E10C2280          SBBO      &r0, r2, 12, 4        ; [ALU_PRU] |383| retVal
    3536        .dwpsn  file "../spi.c",line 386,column 2,is_stmt,isa 0
    3537 00000028 000000F1002281          LBBO      &r1, r2, 0, 4         ; [ALU_PRU] |386| spiAddr
    3538 0000002c 00000024012CE0          LDI       r0, 0x012c            ; [ALU_PRU] |386| 
    3539 00000030 00000000E0E1E0          ADD       r0, r1, r0            ; [ALU_PRU] |386| 
    3540 00000034 CFFF8124FFFFC1          LDI32     r1, 0xffffcfff        ; [ALU_PRU] |386| 
         0000003b 00000000004024 
    3541 0000003c 000000F100208E          LBBO      &r14, r0, 0, 4        ; [ALU_PRU] |386| 
    3542 00000040 00000010E1EEE1          AND       r1, r14, r1           ; [ALU_PRU] |386| 
    3543 00000044 000000E1002081          SBBO      &r1, r0, 0, 4         ; [ALU_PRU] |386| 
    3544        .dwpsn  file "../spi.c",line 389,column 2,is_stmt,isa 0
    3545 00000048 00000024012CE0          LDI       r0, 0x012c            ; [ALU_PRU] |389| 
    3546 0000004c 000000F1002281          LBBO      &r1, r2, 0, 4         ; [ALU_PRU] |389| spiAddr
    3547 00000050 000000F104228E          LBBO      &r14, r2, 4, 4        ; [ALU_PRU] |389| trMode
    3548 00000054 00000000E0E1E0          ADD       r0, r1, r0            ; [ALU_PRU] |389| 
    3549 00000058 000000243000E1          LDI       r1, 0x3000            ; [ALU_PRU] |389| 
    3550 0000005c 00000010E1EEE1          AND       r1, r14, r1           ; [ALU_PRU] |389| 
    3551 00000060 000000F100208E          LBBO      &r14, r0, 0, 4        ; [ALU_PRU] |389| 
    3552 00000064 00000012E1EEE1          OR        r1, r14, r1           ; [ALU_PRU] |389| 
PRU Assembler Unix v2.1.2 Thu Jan 28 12:38:40 2016

Tools Copyright (c) 2012-2015 Texas Instruments Incorporated
spi.asm                                                              PAGE   66

    3553 00000068 000000E1002081          SBBO      &r1, r0, 0, 4         ; [ALU_PRU] |389| 
    3554        .dwpsn  file "../spi.c",line 391,column 2,is_stmt,isa 0
    3555 0000006c 000000F1042280          LBBO      &r0, r2, 4, 4         ; [ALU_PRU] |391| trMode
    3556 00000070 0000006900E006          QBNE      ||$C$L21||, r0, 0x00  ; [ALU_PRU] |391| 
    3557;* --------------------------------------------------------------------------*
    3558 00000074 000000F1082280          LBBO      &r0, r2, 8, 4         ; [ALU_PRU] |391| pinMode
    3559 00000078 000081240003C1          LDI32     r1, 0x00030000        ; [ALU_PRU] |391| 
         0000007f 00000000004024 
    3560 00000080 00000068E1E002          QBNE      ||$C$L21||, r0, r1    ; [ALU_PRU] |391| 
    3561;* --------------------------------------------------------------------------*
    3562 00000084 00000021000000!         JMP       ||$C$L24||            ; [ALU_PRU] |391| 
    3563;* --------------------------------------------------------------------------*
    3564 00000088                 ||$C$L21||:    
    3565 00000088 000000F1042280          LBBO      &r0, r2, 4, 4         ; [ALU_PRU] |391| trMode
    3566 0000008c 000000242000E1          LDI       r1, 0x2000            ; [ALU_PRU] |391| 
    3567 00000090 00000068E1E006          QBNE      ||$C$L22||, r0, r1    ; [ALU_PRU] |391| 
    3568;* --------------------------------------------------------------------------*
    3569 00000094 000000F1082280          LBBO      &r0, r2, 8, 4         ; [ALU_PRU] |391| pinMode
    3570 00000098 000081240003C1          LDI32     r1, 0x00030000        ; [ALU_PRU] |391| 
         0000009f 00000000004024 
    3571 000000a0 00000068E1E002          QBNE      ||$C$L22||, r0, r1    ; [ALU_PRU] |391| 
    3572;* --------------------------------------------------------------------------*
    3573 000000a4 00000021000000!         JMP       ||$C$L24||            ; [ALU_PRU] |391| 
    3574;* --------------------------------------------------------------------------*
    3575 000000a8                 ||$C$L22||:    
    3576 000000a8 000000F1042280          LBBO      &r0, r2, 4, 4         ; [ALU_PRU] |391| trMode
    3577 000000ac 0000006900E006          QBNE      ||$C$L23||, r0, 0x00  ; [ALU_PRU] |391| 
    3578;* --------------------------------------------------------------------------*
    3579 000000b0 000000F1082280          LBBO      &r0, r2, 8, 4         ; [ALU_PRU] |391| pinMode
    3580 000000b4 000081240007C1          LDI32     r1, 0x00070000        ; [ALU_PRU] |391| 
         000000bb 00000000004024 
    3581 000000bc 00000068E1E002          QBNE      ||$C$L23||, r0, r1    ; [ALU_PRU] |391| 
    3582;* --------------------------------------------------------------------------*
    3583 000000c0 00000021000000!         JMP       ||$C$L24||            ; [ALU_PRU] |391| 
    3584;* --------------------------------------------------------------------------*
    3585 000000c4                 ||$C$L23||:    
    3586 000000c4 000000F1042280          LBBO      &r0, r2, 4, 4         ; [ALU_PRU] |391| trMode
    3587 000000c8 000000242000E1          LDI       r1, 0x2000            ; [ALU_PRU] |391| 
    3588 000000cc 00000068E1E008          QBNE      ||$C$L25||, r0, r1    ; [ALU_PRU] |391| 
    3589;* --------------------------------------------------------------------------*
    3590 000000d0 000000F1082280          LBBO      &r0, r2, 8, 4         ; [ALU_PRU] |391| pinMode
    3591 000000d4 000081240007C1          LDI32     r1, 0x00070000        ; [ALU_PRU] |391| 
         000000db 00000000004024 
    3592 000000dc 00000068E1E004          QBNE      ||$C$L25||, r0, r1    ; [ALU_PRU] |391| 
    3593;* --------------------------------------------------------------------------*
    3594 000000e0                 ||$C$L24||:    
    3595        .dwpsn  file "../spi.c",line 396,column 3,is_stmt,isa 0
    3596 000000e0 000000240000E0          LDI       r0, 0x0000            ; [ALU_PRU] |396| 
    3597 000000e4 000000E10C2280          SBBO      &r0, r2, 12, 4        ; [ALU_PRU] |396| retVal
    3598        .dwpsn  file "../spi.c",line 397,column 2,is_stmt,isa 0
    3599 000000e8 00000021000000!         JMP       ||$C$L26||            ; [ALU_PRU] |397| 
    3600;* --------------------------------------------------------------------------*
    3601 000000ec                 ||$C$L25||:    
    3602        .dwpsn  file "../spi.c",line 399,column 3,is_stmt,isa 0
    3603 000000ec 00000024012CE0          LDI       r0, 0x012c            ; [ALU_PRU] |399| 
PRU Assembler Unix v2.1.2 Thu Jan 28 12:38:40 2016

Tools Copyright (c) 2012-2015 Texas Instruments Incorporated
spi.asm                                                              PAGE   67

    3604 000000f0 000000F1002281          LBBO      &r1, r2, 0, 4         ; [ALU_PRU] |399| spiAddr
    3605 000000f4 00000000E0E1E0          ADD       r0, r1, r0            ; [ALU_PRU] |399| 
    3606 000000f8 000000F100208E          LBBO      &r14, r0, 0, 4        ; [ALU_PRU] |399| 
    3607 000000fc FFFF8124FFF8C1          LDI32     r1, 0xfff8ffff        ; [ALU_PRU] |399| 
         00000103 00000000004024 
    3608 00000104 00000010E1EEE1          AND       r1, r14, r1           ; [ALU_PRU] |399| 
    3609 00000108 000000E1002081          SBBO      &r1, r0, 0, 4         ; [ALU_PRU] |399| 
    3610        .dwpsn  file "../spi.c",line 402,column 3,is_stmt,isa 0
    3611 0000010c 000000F1002281          LBBO      &r1, r2, 0, 4         ; [ALU_PRU] |402| spiAddr
    3612 00000110 00000024012CE0          LDI       r0, 0x012c            ; [ALU_PRU] |402| 
    3613 00000114 000000F108228E          LBBO      &r14, r2, 8, 4        ; [ALU_PRU] |402| pinMode
    3614 00000118 00000000E0E1E0          ADD       r0, r1, r0            ; [ALU_PRU] |402| 
    3615 0000011c 000081240007C1          LDI32     r1, 0x00070000        ; [ALU_PRU] |402| 
         00000123 00000000004024 
    3616 00000124 00000010E1EEE1          AND       r1, r14, r1           ; [ALU_PRU] |402| 
    3617 00000128 000000F100208E          LBBO      &r14, r0, 0, 4        ; [ALU_PRU] |402| 
    3618 0000012c 00000012E1EEE1          OR        r1, r14, r1           ; [ALU_PRU] |402| 
    3619 00000130 000000E1002081          SBBO      &r1, r0, 0, 4         ; [ALU_PRU] |402| 
    3620;* --------------------------------------------------------------------------*
    3621 00000134                 ||$C$L26||:    
    3622        .dwpsn  file "../spi.c",line 405,column 2,is_stmt,isa 0
    3623 00000134 000000F10C228E          LBBO      &r14, r2, 12, 4       ; [ALU_PRU] |405| retVal
    3624        .dwpsn  file "../spi.c",line 406,column 1,is_stmt,isa 0
    3625 00000138 0000000110E2E2          ADD       r2, r2, 0x10          ; [ALU_PRU] 
    3626        .dwcfi  cfa_offset, 0
    3627$C$DW$252       .dwtag  DW_TAG_TI_branch
    3628        .dwattr $C$DW$252, DW_AT_low_pc(0x00)
    3629        .dwattr $C$DW$252, DW_AT_TI_return
    3630 0000013c 00000020C30000          JMP       r3.w2                 ; [ALU_PRU] 
    3631        .dwattr $C$DW$244, DW_AT_TI_end_file("../spi.c")
    3632        .dwattr $C$DW$244, DW_AT_TI_end_line(0x196)
    3633        .dwattr $C$DW$244, DW_AT_TI_end_column(0x01)
    3634        .dwendentry
    3635        .dwendtag $C$DW$244
    3636
    3637 00000000                         .sect   ".text:SPI_FIFOTrigLvlSet"
    3638        .clink
    3639        .global ||SPI_FIFOTrigLvlSet||
    3640
    3641$C$DW$253       .dwtag  DW_TAG_subprogram, DW_AT_name("SPI_FIFOTrigLvlSet")
    3642        .dwattr $C$DW$253, DW_AT_low_pc(||SPI_FIFOTrigLvlSet||)
    3643        .dwattr $C$DW$253, DW_AT_high_pc(0x00)
    3644        .dwattr $C$DW$253, DW_AT_TI_symbol_name("SPI_FIFOTrigLvlSet")
    3645        .dwattr $C$DW$253, DW_AT_external
    3646        .dwattr $C$DW$253, DW_AT_TI_begin_file("../spi.c")
    3647        .dwattr $C$DW$253, DW_AT_TI_begin_line(0x220)
    3648        .dwattr $C$DW$253, DW_AT_TI_begin_column(0x06)
    3649        .dwattr $C$DW$253, DW_AT_decl_file("../spi.c")
    3650        .dwattr $C$DW$253, DW_AT_decl_line(0x220)
    3651        .dwattr $C$DW$253, DW_AT_decl_column(0x06)
    3652        .dwattr $C$DW$253, DW_AT_TI_max_frame_size(0x0a)
    3653        .dwpsn  file "../spi.c",line 545,column 1,is_stmt,address ||SPI_FIFOTrigLvlSet||,isa 0
    3654
    3655        .dwfde $C$DW$CIE, ||SPI_FIFOTrigLvlSet||
    3656$C$DW$254       .dwtag  DW_TAG_formal_parameter, DW_AT_name("spiAddr")
PRU Assembler Unix v2.1.2 Thu Jan 28 12:38:40 2016

Tools Copyright (c) 2012-2015 Texas Instruments Incorporated
spi.asm                                                              PAGE   68

    3657        .dwattr $C$DW$254, DW_AT_TI_symbol_name("spiAddr")
    3658        .dwattr $C$DW$254, DW_AT_type(*$C$DW$T$19)
    3659        .dwattr $C$DW$254, DW_AT_location[DW_OP_regx 0x38]
    3660$C$DW$255       .dwtag  DW_TAG_formal_parameter, DW_AT_name("afl")
    3661        .dwattr $C$DW$255, DW_AT_TI_symbol_name("afl")
    3662        .dwattr $C$DW$255, DW_AT_type(*$C$DW$T$6)
    3663        .dwattr $C$DW$255, DW_AT_location[DW_OP_regx 0x3c]
    3664$C$DW$256       .dwtag  DW_TAG_formal_parameter, DW_AT_name("ael")
    3665        .dwattr $C$DW$256, DW_AT_TI_symbol_name("ael")
    3666        .dwattr $C$DW$256, DW_AT_type(*$C$DW$T$6)
    3667        .dwattr $C$DW$256, DW_AT_location[DW_OP_regx 0x3d]
    3668$C$DW$257       .dwtag  DW_TAG_formal_parameter, DW_AT_name("trMode")
    3669        .dwattr $C$DW$257, DW_AT_TI_symbol_name("trMode")
    3670        .dwattr $C$DW$257, DW_AT_type(*$C$DW$T$19)
    3671        .dwattr $C$DW$257, DW_AT_location[DW_OP_regx 0x40]
    3672
    3673;***************************************************************
    3674;* FNAME: SPI_FIFOTrigLvlSet            FR SIZE:  10           *
    3675;*                                                             *
    3676;* FUNCTION ENVIRONMENT                                        *
    3677;*                                                             *
    3678;* FUNCTION PROPERTIES                                         *
    3679;*                           10 Auto,  0 SOE     *
    3680;***************************************************************
    3681
    3682 00000000                 ||SPI_FIFOTrigLvlSet||:
    3683;* --------------------------------------------------------------------------*
    3684        .dwcfi  cfa_offset, 0
    3685 00000000 000000050AE2E2          SUB       r2, r2, 0x0a          ; [ALU_PRU] 
    3686        .dwcfi  cfa_offset, 10
    3687$C$DW$258       .dwtag  DW_TAG_variable, DW_AT_name("spiAddr")
    3688        .dwattr $C$DW$258, DW_AT_TI_symbol_name("spiAddr")
    3689        .dwattr $C$DW$258, DW_AT_type(*$C$DW$T$19)
    3690        .dwattr $C$DW$258, DW_AT_location[DW_OP_breg8 0]
    3691 00000004 00000010000000          NOP                             ; [ALU_PRU] 
    3692$C$DW$259       .dwtag  DW_TAG_variable, DW_AT_name("afl")
    3693        .dwattr $C$DW$259, DW_AT_TI_symbol_name("afl")
    3694        .dwattr $C$DW$259, DW_AT_type(*$C$DW$T$6)
    3695        .dwattr $C$DW$259, DW_AT_location[DW_OP_breg8 4]
    3696 00000008 00000010000000          NOP                             ; [ALU_PRU] 
    3697$C$DW$260       .dwtag  DW_TAG_variable, DW_AT_name("ael")
    3698        .dwattr $C$DW$260, DW_AT_TI_symbol_name("ael")
    3699        .dwattr $C$DW$260, DW_AT_type(*$C$DW$T$6)
    3700        .dwattr $C$DW$260, DW_AT_location[DW_OP_breg8 5]
    3701 0000000c 00000010000000          NOP                             ; [ALU_PRU] 
    3702$C$DW$261       .dwtag  DW_TAG_variable, DW_AT_name("trMode")
    3703        .dwattr $C$DW$261, DW_AT_TI_symbol_name("trMode")
    3704        .dwattr $C$DW$261, DW_AT_type(*$C$DW$T$19)
    3705        .dwattr $C$DW$261, DW_AT_location[DW_OP_breg8 6]
    3706 00000010 00000010000000          NOP                             ; [ALU_PRU] 
    3707 00000014 000000E1062290          SBBO      &r16, r2, 6, 4        ; [ALU_PRU] |545| trMode
    3708 00000018 000000E105022F          SBBO      &r15.b1, r2, 5, 1     ; [ALU_PRU] |545| ael
    3709 0000001c 000000E104020F          SBBO      &r15.b0, r2, 4, 1     ; [ALU_PRU] |545| afl
    3710 00000020 000000E100228E          SBBO      &r14, r2, 0, 4        ; [ALU_PRU] |545| spiAddr
    3711        .dwpsn  file "../spi.c",line 546,column 2,is_stmt,isa 0
PRU Assembler Unix v2.1.2 Thu Jan 28 12:38:40 2016

Tools Copyright (c) 2012-2015 Texas Instruments Incorporated
spi.asm                                                              PAGE   69

    3712 00000024 000000F1062280          LBBO      &r0, r2, 6, 4         ; [ALU_PRU] |546| trMode
    3713 00000028 0000006900E019          QBNE      ||$C$L27||, r0, 0x00  ; [ALU_PRU] |546| 
    3714;* --------------------------------------------------------------------------*
    3715        .dwpsn  file "../spi.c",line 549,column 3,is_stmt,isa 0
    3716 0000002c 00000024017CE0          LDI       r0, 0x017c            ; [ALU_PRU] |549| 
    3717 00000030 000000F1002281          LBBO      &r1, r2, 0, 4         ; [ALU_PRU] |549| spiAddr
    3718 00000034 00000000E0E1E0          ADD       r0, r1, r0            ; [ALU_PRU] |549| 
    3719 00000038 000000F100208E          LBBO      &r14, r0, 0, 4        ; [ALU_PRU] |549| 
    3720 0000003c 00008124FFFFC1          LDI32     r1, 0xffff0000        ; [ALU_PRU] |549| 
         00000043 00000000004024 
    3721 00000044 00000010E1EEE1          AND       r1, r14, r1           ; [ALU_PRU] |549| 
    3722 00000048 000000E1002081          SBBO      &r1, r0, 0, 4         ; [ALU_PRU] |549| 
    3723        .dwpsn  file "../spi.c",line 552,column 3,is_stmt,isa 0
    3724 0000004c 000000F104020E          LBBO      &r14.b0, r2, 4, 1     ; [ALU_PRU] |552| afl
    3725 00000050 000000F1002281          LBBO      &r1, r2, 0, 4         ; [ALU_PRU] |552| spiAddr
    3726 00000054 00000024017CE0          LDI       r0, 0x017c            ; [ALU_PRU] |552| 
    3727 00000058 00000000E0E1E0          ADD       r0, r1, r0            ; [ALU_PRU] |552| 
    3728 0000005c 00000024FF00E1          LDI       r1, 0xff00            ; [ALU_PRU] |552| 
    3729 00000060 00000005010EEE          SUB       r14, r14.b0, 0x01     ; [ALU_PRU] |552| 
    3730 00000064 0000000908EEEE          LSL       r14, r14, 0x08        ; [ALU_PRU] |552| 
    3731 00000068 00000010E1EEE1          AND       r1, r14, r1           ; [ALU_PRU] |552| 
    3732 0000006c 000000F100208E          LBBO      &r14, r0, 0, 4        ; [ALU_PRU] |552| 
    3733 00000070 00000012E1EEEE          OR        r14, r14, r1          ; [ALU_PRU] |552| 
    3734 00000074 000000F1050201          LBBO      &r1.b0, r2, 5, 1      ; [ALU_PRU] |552| ael
    3735 00000078 000000050101E1          SUB       r1, r1.b0, 0x01       ; [ALU_PRU] |552| 
    3736 0000007c 00000011FFE1E1          AND       r1, r1, 0xff          ; [ALU_PRU] |552| 
    3737 00000080 00000012E1EEE1          OR        r1, r14, r1           ; [ALU_PRU] |552| 
    3738 00000084 000000E1002081          SBBO      &r1, r0, 0, 4         ; [ALU_PRU] |552| 
    3739        .dwpsn  file "../spi.c",line 554,column 2,is_stmt,isa 0
    3740 00000088 00000021000000!         JMP       ||$C$L29||            ; [ALU_PRU] |554| 
    3741;* --------------------------------------------------------------------------*
    3742 0000008c                 ||$C$L27||:    
    3743        .dwpsn  file "../spi.c",line 554,column 9,is_stmt,isa 0
    3744 0000008c 000000242000E1          LDI       r1, 0x2000            ; [ALU_PRU] |554| 
    3745 00000090 00000068E1E013          QBNE      ||$C$L28||, r0, r1    ; [ALU_PRU] |554| 
    3746;* --------------------------------------------------------------------------*
    3747        .dwpsn  file "../spi.c",line 556,column 3,is_stmt,isa 0
    3748 00000094 00000024017CE0          LDI       r0, 0x017c            ; [ALU_PRU] |556| 
    3749 00000098 000000F1002281          LBBO      &r1, r2, 0, 4         ; [ALU_PRU] |556| spiAddr
    3750 0000009c 00000000E0E1E0          ADD       r0, r1, r0            ; [ALU_PRU] |556| 
    3751 000000a0 000000F100208E          LBBO      &r14, r0, 0, 4        ; [ALU_PRU] |556| 
    3752 000000a4 FF008124FFFFC1          LDI32     r1, 0xffffff00        ; [ALU_PRU] |556| 
         000000ab 00000000004024 
    3753 000000ac 00000010E1EEE1          AND       r1, r14, r1           ; [ALU_PRU] |556| 
    3754 000000b0 000000E1002081          SBBO      &r1, r0, 0, 4         ; [ALU_PRU] |556| 
    3755        .dwpsn  file "../spi.c",line 559,column 3,is_stmt,isa 0
    3756 000000b4 000000F1002281          LBBO      &r1, r2, 0, 4         ; [ALU_PRU] |559| spiAddr
    3757 000000b8 00000024017CE0          LDI       r0, 0x017c            ; [ALU_PRU] |559| 
    3758 000000bc 00000000E0E1E0          ADD       r0, r1, r0            ; [ALU_PRU] |559| 
    3759 000000c0 000000F1050201          LBBO      &r1.b0, r2, 5, 1      ; [ALU_PRU] |559| ael
    3760 000000c4 000000050101E1          SUB       r1, r1.b0, 0x01       ; [ALU_PRU] |559| 
    3761 000000c8 000000F100208E          LBBO      &r14, r0, 0, 4        ; [ALU_PRU] |559| 
    3762 000000cc 00000011FFE1E1          AND       r1, r1, 0xff          ; [ALU_PRU] |559| 
    3763 000000d0 00000012E1EEE1          OR        r1, r14, r1           ; [ALU_PRU] |559| 
    3764 000000d4 000000E1002081          SBBO      &r1, r0, 0, 4         ; [ALU_PRU] |559| 
PRU Assembler Unix v2.1.2 Thu Jan 28 12:38:40 2016

Tools Copyright (c) 2012-2015 Texas Instruments Incorporated
spi.asm                                                              PAGE   70

    3765        .dwpsn  file "../spi.c",line 560,column 2,is_stmt,isa 0
    3766 000000d8 00000021000000!         JMP       ||$C$L29||            ; [ALU_PRU] |560| 
    3767;* --------------------------------------------------------------------------*
    3768 000000dc                 ||$C$L28||:    
    3769        .dwpsn  file "../spi.c",line 560,column 9,is_stmt,isa 0
    3770 000000dc 000000241000E1          LDI       r1, 0x1000            ; [ALU_PRU] |560| 
    3771 000000e0 00000068E1E014          QBNE      ||$C$L29||, r0, r1    ; [ALU_PRU] |560| 
    3772;* --------------------------------------------------------------------------*
    3773        .dwpsn  file "../spi.c",line 562,column 3,is_stmt,isa 0
    3774 000000e4 00000024017CE0          LDI       r0, 0x017c            ; [ALU_PRU] |562| 
    3775 000000e8 000000F1002281          LBBO      &r1, r2, 0, 4         ; [ALU_PRU] |562| spiAddr
    3776 000000ec 00000000E0E1E0          ADD       r0, r1, r0            ; [ALU_PRU] |562| 
    3777 000000f0 000000F100208E          LBBO      &r14, r0, 0, 4        ; [ALU_PRU] |562| 
    3778 000000f4 00FF8124FFFFC1          LDI32     r1, 0xffff00ff        ; [ALU_PRU] |562| 
         000000fb 00000000004024 
    3779 000000fc 00000010E1EEE1          AND       r1, r14, r1           ; [ALU_PRU] |562| 
    3780 00000100 000000E1002081          SBBO      &r1, r0, 0, 4         ; [ALU_PRU] |562| 
    3781        .dwpsn  file "../spi.c",line 565,column 3,is_stmt,isa 0
    3782 00000104 000000F104020E          LBBO      &r14.b0, r2, 4, 1     ; [ALU_PRU] |565| afl
    3783 00000108 000000F1002281          LBBO      &r1, r2, 0, 4         ; [ALU_PRU] |565| spiAddr
    3784 0000010c 00000024017CE0          LDI       r0, 0x017c            ; [ALU_PRU] |565| 
    3785 00000110 00000000E0E1E0          ADD       r0, r1, r0            ; [ALU_PRU] |565| 
    3786 00000114 00000024FF00E1          LDI       r1, 0xff00            ; [ALU_PRU] |565| 
    3787 00000118 00000005010EEE          SUB       r14, r14.b0, 0x01     ; [ALU_PRU] |565| 
    3788 0000011c 0000000908EEEE          LSL       r14, r14, 0x08        ; [ALU_PRU] |565| 
    3789 00000120 00000010E1EEE1          AND       r1, r14, r1           ; [ALU_PRU] |565| 
    3790 00000124 000000F100208E          LBBO      &r14, r0, 0, 4        ; [ALU_PRU] |565| 
    3791 00000128 00000012E1EEE1          OR        r1, r14, r1           ; [ALU_PRU] |565| 
    3792 0000012c 000000E1002081          SBBO      &r1, r0, 0, 4         ; [ALU_PRU] |565| 
    3793        .dwpsn  file "../spi.c",line 567,column 1,is_stmt,isa 0
    3794;* --------------------------------------------------------------------------*
    3795 00000130                 ||$C$L29||:    
    3796 00000130 000000010AE2E2          ADD       r2, r2, 0x0a          ; [ALU_PRU] 
    3797        .dwcfi  cfa_offset, 0
    3798$C$DW$262       .dwtag  DW_TAG_TI_branch
    3799        .dwattr $C$DW$262, DW_AT_low_pc(0x00)
    3800        .dwattr $C$DW$262, DW_AT_TI_return
    3801 00000134 00000020C30000          JMP       r3.w2                 ; [ALU_PRU] 
    3802        .dwattr $C$DW$253, DW_AT_TI_end_file("../spi.c")
    3803        .dwattr $C$DW$253, DW_AT_TI_end_line(0x237)
    3804        .dwattr $C$DW$253, DW_AT_TI_end_column(0x01)
    3805        .dwendentry
    3806        .dwendtag $C$DW$253
    3807
    3808 00000000                         .sect   ".text:SPI_ClkRead"
    3809        .clink
    3810        .global ||SPI_ClkRead||
    3811
    3812$C$DW$263       .dwtag  DW_TAG_subprogram, DW_AT_name("SPI_ClkRead")
    3813        .dwattr $C$DW$263, DW_AT_low_pc(||SPI_ClkRead||)
    3814        .dwattr $C$DW$263, DW_AT_high_pc(0x00)
    3815        .dwattr $C$DW$263, DW_AT_TI_symbol_name("SPI_ClkRead")
    3816        .dwattr $C$DW$263, DW_AT_external
    3817        .dwattr $C$DW$263, DW_AT_type(*$C$DW$T$19)
    3818        .dwattr $C$DW$263, DW_AT_TI_begin_file("../spi.c")
PRU Assembler Unix v2.1.2 Thu Jan 28 12:38:40 2016

Tools Copyright (c) 2012-2015 Texas Instruments Incorporated
spi.asm                                                              PAGE   71

    3819        .dwattr $C$DW$263, DW_AT_TI_begin_line(0x2ef)
    3820        .dwattr $C$DW$263, DW_AT_TI_begin_column(0x0a)
    3821        .dwattr $C$DW$263, DW_AT_decl_file("../spi.c")
    3822        .dwattr $C$DW$263, DW_AT_decl_line(0x2ef)
    3823        .dwattr $C$DW$263, DW_AT_decl_column(0x0a)
    3824        .dwattr $C$DW$263, DW_AT_TI_max_frame_size(0x0c)
    3825        .dwpsn  file "../spi.c",line 752,column 1,is_stmt,address ||SPI_ClkRead||,isa 0
    3826
    3827        .dwfde $C$DW$CIE, ||SPI_ClkRead||
    3828$C$DW$264       .dwtag  DW_TAG_formal_parameter, DW_AT_name("spiAddr")
    3829        .dwattr $C$DW$264, DW_AT_TI_symbol_name("spiAddr")
    3830        .dwattr $C$DW$264, DW_AT_type(*$C$DW$T$19)
    3831        .dwattr $C$DW$264, DW_AT_location[DW_OP_regx 0x38]
    3832$C$DW$265       .dwtag  DW_TAG_formal_parameter, DW_AT_name("spiClk")
    3833        .dwattr $C$DW$265, DW_AT_TI_symbol_name("spiClk")
    3834        .dwattr $C$DW$265, DW_AT_type(*$C$DW$T$31)
    3835        .dwattr $C$DW$265, DW_AT_location[DW_OP_regx 0x3c]
    3836
    3837;***************************************************************
    3838;* FNAME: SPI_ClkRead                   FR SIZE:  12           *
    3839;*                                                             *
    3840;* FUNCTION ENVIRONMENT                                        *
    3841;*                                                             *
    3842;* FUNCTION PROPERTIES                                         *
    3843;*                           12 Auto,  0 SOE     *
    3844;***************************************************************
    3845
    3846 00000000                 ||SPI_ClkRead||:
    3847;* --------------------------------------------------------------------------*
    3848        .dwcfi  cfa_offset, 0
    3849 00000000 000000050CE2E2          SUB       r2, r2, 0x0c          ; [ALU_PRU] 
    3850        .dwcfi  cfa_offset, 12
    3851$C$DW$266       .dwtag  DW_TAG_variable, DW_AT_name("spiAddr")
    3852        .dwattr $C$DW$266, DW_AT_TI_symbol_name("spiAddr")
    3853        .dwattr $C$DW$266, DW_AT_type(*$C$DW$T$19)
    3854        .dwattr $C$DW$266, DW_AT_location[DW_OP_breg8 0]
    3855 00000004 00000010000000          NOP                             ; [ALU_PRU] 
    3856$C$DW$267       .dwtag  DW_TAG_variable, DW_AT_name("spiClk")
    3857        .dwattr $C$DW$267, DW_AT_TI_symbol_name("spiClk")
    3858        .dwattr $C$DW$267, DW_AT_type(*$C$DW$T$31)
    3859        .dwattr $C$DW$267, DW_AT_location[DW_OP_breg8 4]
    3860 00000008 00000010000000          NOP                             ; [ALU_PRU] 
    3861$C$DW$268       .dwtag  DW_TAG_variable, DW_AT_name("retVal")
    3862        .dwattr $C$DW$268, DW_AT_TI_symbol_name("retVal")
    3863        .dwattr $C$DW$268, DW_AT_type(*$C$DW$T$19)
    3864        .dwattr $C$DW$268, DW_AT_location[DW_OP_breg8 8]
    3865 0000000c 00000010000000          NOP                             ; [ALU_PRU] 
    3866 00000010 000000E104228F          SBBO      &r15, r2, 4, 4        ; [ALU_PRU] |752| spiClk
    3867 00000014 000000E100228E          SBBO      &r14, r2, 0, 4        ; [ALU_PRU] |752| spiAddr
    3868        .dwpsn  file "../spi.c",line 753,column 18,is_stmt,isa 0
    3869 00000018 000000240000E0          LDI       r0, 0x0000            ; [ALU_PRU] |753| 
    3870 0000001c 000000E1082280          SBBO      &r0, r2, 8, 4         ; [ALU_PRU] |753| retVal
    3871        .dwpsn  file "../spi.c",line 756,column 2,is_stmt,isa 0
    3872 00000020 00000024012481          LDI       r1.w0, 0x0124         ; [ALU_PRU] |756| 
    3873 00000024 000000F1002280          LBBO      &r0, r2, 0, 4         ; [ALU_PRU] |756| spiAddr
PRU Assembler Unix v2.1.2 Thu Jan 28 12:38:40 2016

Tools Copyright (c) 2012-2015 Texas Instruments Incorporated
spi.asm                                                              PAGE   72

    3874 00000028 000000F0812080          LBBO      &r0, r0, r1.w0, 4     ; [ALU_PRU] |756| 
    3875 0000002c 000000C90AE008          QBBC      ||$C$L30||, r0, 0x0a  ; [ALU_PRU] |756| 
    3876;* --------------------------------------------------------------------------*
    3877        .dwpsn  file "../spi.c",line 758,column 3,is_stmt,isa 0
    3878 00000030 000000240001E0          LDI       r0, 0x0001            ; [ALU_PRU] |758| 
    3879 00000034 000000E1082280          SBBO      &r0, r2, 8, 4         ; [ALU_PRU] |758| retVal
    3880        .dwpsn  file "../spi.c",line 759,column 3,is_stmt,isa 0
    3881 00000038 000000F1002280          LBBO      &r0, r2, 0, 4         ; [ALU_PRU] |759| spiAddr
    3882 0000003c 000000F0812080          LBBO      &r0, r0, r1.w0, 4     ; [ALU_PRU] |759| 
    3883 00000040 000000F1042281          LBBO      &r1, r2, 4, 4         ; [ALU_PRU] |759| spiClk
    3884 00000044 0000001140E0E0          AND       r0, r0, 0x40          ; [ALU_PRU] |759| 
    3885 00000048 000000E1002180          SBBO      &r0, r1, 0, 4         ; [ALU_PRU] |759| 
    3886;* --------------------------------------------------------------------------*
    3887 0000004c                 ||$C$L30||:    
    3888        .dwpsn  file "../spi.c",line 762,column 2,is_stmt,isa 0
    3889 0000004c 000000F108228E          LBBO      &r14, r2, 8, 4        ; [ALU_PRU] |762| retVal
    3890        .dwpsn  file "../spi.c",line 763,column 1,is_stmt,isa 0
    3891 00000050 000000010CE2E2          ADD       r2, r2, 0x0c          ; [ALU_PRU] 
    3892        .dwcfi  cfa_offset, 0
    3893$C$DW$269       .dwtag  DW_TAG_TI_branch
    3894        .dwattr $C$DW$269, DW_AT_low_pc(0x00)
    3895        .dwattr $C$DW$269, DW_AT_TI_return
    3896 00000054 00000020C30000          JMP       r3.w2                 ; [ALU_PRU] 
    3897        .dwattr $C$DW$263, DW_AT_TI_end_file("../spi.c")
    3898        .dwattr $C$DW$263, DW_AT_TI_end_line(0x2fb)
    3899        .dwattr $C$DW$263, DW_AT_TI_end_column(0x01)
    3900        .dwendentry
    3901        .dwendtag $C$DW$263
    3902
    3903 00000000                         .sect   ".text:SPI_ClkWrite"
    3904        .clink
    3905        .global ||SPI_ClkWrite||
    3906
    3907$C$DW$270       .dwtag  DW_TAG_subprogram, DW_AT_name("SPI_ClkWrite")
    3908        .dwattr $C$DW$270, DW_AT_low_pc(||SPI_ClkWrite||)
    3909        .dwattr $C$DW$270, DW_AT_high_pc(0x00)
    3910        .dwattr $C$DW$270, DW_AT_TI_symbol_name("SPI_ClkWrite")
    3911        .dwattr $C$DW$270, DW_AT_external
    3912        .dwattr $C$DW$270, DW_AT_type(*$C$DW$T$19)
    3913        .dwattr $C$DW$270, DW_AT_TI_begin_file("../spi.c")
    3914        .dwattr $C$DW$270, DW_AT_TI_begin_line(0x307)
    3915        .dwattr $C$DW$270, DW_AT_TI_begin_column(0x0a)
    3916        .dwattr $C$DW$270, DW_AT_decl_file("../spi.c")
    3917        .dwattr $C$DW$270, DW_AT_decl_line(0x307)
    3918        .dwattr $C$DW$270, DW_AT_decl_column(0x0a)
    3919        .dwattr $C$DW$270, DW_AT_TI_max_frame_size(0x0c)
    3920        .dwpsn  file "../spi.c",line 776,column 1,is_stmt,address ||SPI_ClkWrite||,isa 0
    3921
    3922        .dwfde $C$DW$CIE, ||SPI_ClkWrite||
    3923$C$DW$271       .dwtag  DW_TAG_formal_parameter, DW_AT_name("spiAddr")
    3924        .dwattr $C$DW$271, DW_AT_TI_symbol_name("spiAddr")
    3925        .dwattr $C$DW$271, DW_AT_type(*$C$DW$T$19)
    3926        .dwattr $C$DW$271, DW_AT_location[DW_OP_regx 0x38]
    3927$C$DW$272       .dwtag  DW_TAG_formal_parameter, DW_AT_name("spiClk")
    3928        .dwattr $C$DW$272, DW_AT_TI_symbol_name("spiClk")
PRU Assembler Unix v2.1.2 Thu Jan 28 12:38:40 2016

Tools Copyright (c) 2012-2015 Texas Instruments Incorporated
spi.asm                                                              PAGE   73

    3929        .dwattr $C$DW$272, DW_AT_type(*$C$DW$T$19)
    3930        .dwattr $C$DW$272, DW_AT_location[DW_OP_regx 0x3c]
    3931
    3932;***************************************************************
    3933;* FNAME: SPI_ClkWrite                  FR SIZE:  12           *
    3934;*                                                             *
    3935;* FUNCTION ENVIRONMENT                                        *
    3936;*                                                             *
    3937;* FUNCTION PROPERTIES                                         *
    3938;*                           12 Auto,  0 SOE     *
    3939;***************************************************************
    3940
    3941 00000000                 ||SPI_ClkWrite||:
    3942;* --------------------------------------------------------------------------*
    3943        .dwcfi  cfa_offset, 0
    3944 00000000 000000050CE2E2          SUB       r2, r2, 0x0c          ; [ALU_PRU] 
    3945        .dwcfi  cfa_offset, 12
    3946$C$DW$273       .dwtag  DW_TAG_variable, DW_AT_name("spiAddr")
    3947        .dwattr $C$DW$273, DW_AT_TI_symbol_name("spiAddr")
    3948        .dwattr $C$DW$273, DW_AT_type(*$C$DW$T$19)
    3949        .dwattr $C$DW$273, DW_AT_location[DW_OP_breg8 0]
    3950 00000004 00000010000000          NOP                             ; [ALU_PRU] 
    3951$C$DW$274       .dwtag  DW_TAG_variable, DW_AT_name("spiClk")
    3952        .dwattr $C$DW$274, DW_AT_TI_symbol_name("spiClk")
    3953        .dwattr $C$DW$274, DW_AT_type(*$C$DW$T$19)
    3954        .dwattr $C$DW$274, DW_AT_location[DW_OP_breg8 4]
    3955 00000008 00000010000000          NOP                             ; [ALU_PRU] 
    3956$C$DW$275       .dwtag  DW_TAG_variable, DW_AT_name("retVal")
    3957        .dwattr $C$DW$275, DW_AT_TI_symbol_name("retVal")
    3958        .dwattr $C$DW$275, DW_AT_type(*$C$DW$T$19)
    3959        .dwattr $C$DW$275, DW_AT_location[DW_OP_breg8 8]
    3960 0000000c 00000010000000          NOP                             ; [ALU_PRU] 
    3961 00000010 000000E104228F          SBBO      &r15, r2, 4, 4        ; [ALU_PRU] |776| spiClk
    3962 00000014 000000E100228E          SBBO      &r14, r2, 0, 4        ; [ALU_PRU] |776| spiAddr
    3963        .dwpsn  file "../spi.c",line 777,column 18,is_stmt,isa 0
    3964 00000018 000000240000E0          LDI       r0, 0x0000            ; [ALU_PRU] |777| 
    3965 0000001c 000000E1082280          SBBO      &r0, r2, 8, 4         ; [ALU_PRU] |777| retVal
    3966        .dwpsn  file "../spi.c",line 779,column 2,is_stmt,isa 0
    3967 00000020 00000024012481          LDI       r1.w0, 0x0124         ; [ALU_PRU] |779| 
    3968 00000024 000000F1002280          LBBO      &r0, r2, 0, 4         ; [ALU_PRU] |779| spiAddr
    3969 00000028 000000F0812080          LBBO      &r0, r0, r1.w0, 4     ; [ALU_PRU] |779| 
    3970 0000002c 000000D10AE011          QBBS      ||$C$L31||, r0, 0x0a  ; [ALU_PRU] |779| 
    3971;* --------------------------------------------------------------------------*
    3972        .dwpsn  file "../spi.c",line 781,column 3,is_stmt,isa 0
    3973 00000030 000000240001E0          LDI       r0, 0x0001            ; [ALU_PRU] |781| 
    3974 00000034 000000E1082280          SBBO      &r0, r2, 8, 4         ; [ALU_PRU] |781| retVal
    3975        .dwpsn  file "../spi.c",line 784,column 3,is_stmt,isa 0
    3976 00000038 000000F1002281          LBBO      &r1, r2, 0, 4         ; [ALU_PRU] |784| spiAddr
    3977 0000003c 000000240124E0          LDI       r0, 0x0124            ; [ALU_PRU] |784| 
    3978 00000040 00000000E0E1E0          ADD       r0, r1, r0            ; [ALU_PRU] |784| 
    3979 00000044 000000F1002081          LBBO      &r1, r0, 0, 4         ; [ALU_PRU] |784| 
    3980 00000048 0000001D06E1E1          CLR       r1, r1, 0x00000006    ; [ALU_PRU] |784| 
    3981 0000004c 000000E1002081          SBBO      &r1, r0, 0, 4         ; [ALU_PRU] |784| 
    3982        .dwpsn  file "../spi.c",line 787,column 3,is_stmt,isa 0
    3983 00000050 000000F1002281          LBBO      &r1, r2, 0, 4         ; [ALU_PRU] |787| spiAddr
PRU Assembler Unix v2.1.2 Thu Jan 28 12:38:40 2016

Tools Copyright (c) 2012-2015 Texas Instruments Incorporated
spi.asm                                                              PAGE   74

    3984 00000054 000000240124E0          LDI       r0, 0x0124            ; [ALU_PRU] |787| 
    3985 00000058 00000000E0E1E0          ADD       r0, r1, r0            ; [ALU_PRU] |787| 
    3986 0000005c 000000F1042281          LBBO      &r1, r2, 4, 4         ; [ALU_PRU] |787| spiClk
    3987 00000060 000000F100208E          LBBO      &r14, r0, 0, 4        ; [ALU_PRU] |787| 
    3988 00000064 0000001140E1E1          AND       r1, r1, 0x40          ; [ALU_PRU] |787| 
    3989 00000068 00000012E1EEE1          OR        r1, r14, r1           ; [ALU_PRU] |787| 
    3990 0000006c 000000E1002081          SBBO      &r1, r0, 0, 4         ; [ALU_PRU] |787| 
    3991;* --------------------------------------------------------------------------*
    3992 00000070                 ||$C$L31||:    
    3993        .dwpsn  file "../spi.c",line 790,column 2,is_stmt,isa 0
    3994 00000070 000000F108228E          LBBO      &r14, r2, 8, 4        ; [ALU_PRU] |790| retVal
    3995        .dwpsn  file "../spi.c",line 791,column 1,is_stmt,isa 0
    3996 00000074 000000010CE2E2          ADD       r2, r2, 0x0c          ; [ALU_PRU] 
    3997        .dwcfi  cfa_offset, 0
    3998$C$DW$276       .dwtag  DW_TAG_TI_branch
    3999        .dwattr $C$DW$276, DW_AT_low_pc(0x00)
    4000        .dwattr $C$DW$276, DW_AT_TI_return
    4001 00000078 00000020C30000          JMP       r3.w2                 ; [ALU_PRU] 
    4002        .dwattr $C$DW$270, DW_AT_TI_end_file("../spi.c")
    4003        .dwattr $C$DW$270, DW_AT_TI_end_line(0x317)
    4004        .dwattr $C$DW$270, DW_AT_TI_end_column(0x01)
    4005        .dwendentry
    4006        .dwendtag $C$DW$270
    4007
    4008 00000000                         .sect   ".text:SPI_DataPinRead"
    4009        .clink
    4010        .global ||SPI_DataPinRead||
    4011
    4012$C$DW$277       .dwtag  DW_TAG_subprogram, DW_AT_name("SPI_DataPinRead")
    4013        .dwattr $C$DW$277, DW_AT_low_pc(||SPI_DataPinRead||)
    4014        .dwattr $C$DW$277, DW_AT_high_pc(0x00)
    4015        .dwattr $C$DW$277, DW_AT_TI_symbol_name("SPI_DataPinRead")
    4016        .dwattr $C$DW$277, DW_AT_external
    4017        .dwattr $C$DW$277, DW_AT_type(*$C$DW$T$19)
    4018        .dwattr $C$DW$277, DW_AT_TI_begin_file("../spi.c")
    4019        .dwattr $C$DW$277, DW_AT_TI_begin_line(0x325)
    4020        .dwattr $C$DW$277, DW_AT_TI_begin_column(0x0a)
    4021        .dwattr $C$DW$277, DW_AT_decl_file("../spi.c")
    4022        .dwattr $C$DW$277, DW_AT_decl_line(0x325)
    4023        .dwattr $C$DW$277, DW_AT_decl_column(0x0a)
    4024        .dwattr $C$DW$277, DW_AT_TI_max_frame_size(0x10)
    4025        .dwpsn  file "../spi.c",line 806,column 1,is_stmt,address ||SPI_DataPinRead||,isa 0
    4026
    4027        .dwfde $C$DW$CIE, ||SPI_DataPinRead||
    4028$C$DW$278       .dwtag  DW_TAG_formal_parameter, DW_AT_name("spiAddr")
    4029        .dwattr $C$DW$278, DW_AT_TI_symbol_name("spiAddr")
    4030        .dwattr $C$DW$278, DW_AT_type(*$C$DW$T$19)
    4031        .dwattr $C$DW$278, DW_AT_location[DW_OP_regx 0x38]
    4032$C$DW$279       .dwtag  DW_TAG_formal_parameter, DW_AT_name("dataPinDir")
    4033        .dwattr $C$DW$279, DW_AT_TI_symbol_name("dataPinDir")
    4034        .dwattr $C$DW$279, DW_AT_type(*$C$DW$T$19)
    4035        .dwattr $C$DW$279, DW_AT_location[DW_OP_regx 0x3c]
    4036$C$DW$280       .dwtag  DW_TAG_formal_parameter, DW_AT_name("spiDat")
    4037        .dwattr $C$DW$280, DW_AT_TI_symbol_name("spiDat")
    4038        .dwattr $C$DW$280, DW_AT_type(*$C$DW$T$31)
PRU Assembler Unix v2.1.2 Thu Jan 28 12:38:40 2016

Tools Copyright (c) 2012-2015 Texas Instruments Incorporated
spi.asm                                                              PAGE   75

    4039        .dwattr $C$DW$280, DW_AT_location[DW_OP_regx 0x40]
    4040
    4041;***************************************************************
    4042;* FNAME: SPI_DataPinRead               FR SIZE:  16           *
    4043;*                                                             *
    4044;* FUNCTION ENVIRONMENT                                        *
    4045;*                                                             *
    4046;* FUNCTION PROPERTIES                                         *
    4047;*                           16 Auto,  0 SOE     *
    4048;***************************************************************
    4049
    4050 00000000                 ||SPI_DataPinRead||:
    4051;* --------------------------------------------------------------------------*
    4052        .dwcfi  cfa_offset, 0
    4053 00000000 0000000510E2E2          SUB       r2, r2, 0x10          ; [ALU_PRU] 
    4054        .dwcfi  cfa_offset, 16
    4055$C$DW$281       .dwtag  DW_TAG_variable, DW_AT_name("spiAddr")
    4056        .dwattr $C$DW$281, DW_AT_TI_symbol_name("spiAddr")
    4057        .dwattr $C$DW$281, DW_AT_type(*$C$DW$T$19)
    4058        .dwattr $C$DW$281, DW_AT_location[DW_OP_breg8 0]
    4059 00000004 00000010000000          NOP                             ; [ALU_PRU] 
    4060$C$DW$282       .dwtag  DW_TAG_variable, DW_AT_name("dataPinDir")
    4061        .dwattr $C$DW$282, DW_AT_TI_symbol_name("dataPinDir")
    4062        .dwattr $C$DW$282, DW_AT_type(*$C$DW$T$19)
    4063        .dwattr $C$DW$282, DW_AT_location[DW_OP_breg8 4]
    4064 00000008 00000010000000          NOP                             ; [ALU_PRU] 
    4065$C$DW$283       .dwtag  DW_TAG_variable, DW_AT_name("spiDat")
    4066        .dwattr $C$DW$283, DW_AT_TI_symbol_name("spiDat")
    4067        .dwattr $C$DW$283, DW_AT_type(*$C$DW$T$31)
    4068        .dwattr $C$DW$283, DW_AT_location[DW_OP_breg8 8]
    4069 0000000c 00000010000000          NOP                             ; [ALU_PRU] 
    4070$C$DW$284       .dwtag  DW_TAG_variable, DW_AT_name("retVal")
    4071        .dwattr $C$DW$284, DW_AT_TI_symbol_name("retVal")
    4072        .dwattr $C$DW$284, DW_AT_type(*$C$DW$T$19)
    4073        .dwattr $C$DW$284, DW_AT_location[DW_OP_breg8 12]
    4074 00000010 00000010000000          NOP                             ; [ALU_PRU] 
    4075 00000014 000000E1082290          SBBO      &r16, r2, 8, 4        ; [ALU_PRU] |806| spiDat
    4076 00000018 000000E104228F          SBBO      &r15, r2, 4, 4        ; [ALU_PRU] |806| dataPinDir
    4077 0000001c 000000E100228E          SBBO      &r14, r2, 0, 4        ; [ALU_PRU] |806| spiAddr
    4078        .dwpsn  file "../spi.c",line 807,column 18,is_stmt,isa 0
    4079 00000020 000000240000E0          LDI       r0, 0x0000            ; [ALU_PRU] |807| 
    4080 00000024 000000E10C2280          SBBO      &r0, r2, 12, 4        ; [ALU_PRU] |807| retVal
    4081        .dwpsn  file "../spi.c",line 809,column 2,is_stmt,isa 0
    4082 00000028 00000024012481          LDI       r1.w0, 0x0124         ; [ALU_PRU] |809| 
    4083 0000002c 000000F1002280          LBBO      &r0, r2, 0, 4         ; [ALU_PRU] |809| spiAddr
    4084 00000030 000000F0812081          LBBO      &r1, r0, r1.w0, 4     ; [ALU_PRU] |809| 
    4085 00000034 000000240200E0          LDI       r0, 0x0200            ; [ALU_PRU] |809| 
    4086 00000038 00000010E0E1E0          AND       r0, r1, r0            ; [ALU_PRU] |809| 
    4087 0000003c 000000F1042281          LBBO      &r1, r2, 4, 4         ; [ALU_PRU] |809| dataPinDir
    4088 00000040 00000068E1E00A          QBNE      ||$C$L32||, r0, r1    ; [ALU_PRU] |809| 
    4089;* --------------------------------------------------------------------------*
    4090        .dwpsn  file "../spi.c",line 811,column 3,is_stmt,isa 0
    4091 00000044 000000240001E0          LDI       r0, 0x0001            ; [ALU_PRU] |811| 
    4092 00000048 000000E10C2280          SBBO      &r0, r2, 12, 4        ; [ALU_PRU] |811| retVal
    4093        .dwpsn  file "../spi.c",line 814,column 3,is_stmt,isa 0
PRU Assembler Unix v2.1.2 Thu Jan 28 12:38:40 2016

Tools Copyright (c) 2012-2015 Texas Instruments Incorporated
spi.asm                                                              PAGE   76

    4094 0000004c 00000024012481          LDI       r1.w0, 0x0124         ; [ALU_PRU] |814| 
    4095 00000050 000000F1002280          LBBO      &r0, r2, 0, 4         ; [ALU_PRU] |814| spiAddr
    4096 00000054 000000F0812080          LBBO      &r0, r0, r1.w0, 4     ; [ALU_PRU] |814| 
    4097 00000058 000000F1082281          LBBO      &r1, r2, 8, 4         ; [ALU_PRU] |814| spiDat
    4098 0000005c 0000001120E0E0          AND       r0, r0, 0x20          ; [ALU_PRU] |814| 
    4099 00000060 000000E1002180          SBBO      &r0, r1, 0, 4         ; [ALU_PRU] |814| 
    4100        .dwpsn  file "../spi.c",line 815,column 2,is_stmt,isa 0
    4101 00000064 00000021000000!         JMP       ||$C$L33||            ; [ALU_PRU] |815| 
    4102;* --------------------------------------------------------------------------*
    4103 00000068                 ||$C$L32||:    
    4104        .dwpsn  file "../spi.c",line 815,column 9,is_stmt,isa 0
    4105 00000068 000000F1002280          LBBO      &r0, r2, 0, 4         ; [ALU_PRU] |815| spiAddr
    4106 0000006c 00000024012481          LDI       r1.w0, 0x0124         ; [ALU_PRU] |815| 
    4107 00000070 000000F0812081          LBBO      &r1, r0, r1.w0, 4     ; [ALU_PRU] |815| 
    4108 00000074 000000240100E0          LDI       r0, 0x0100            ; [ALU_PRU] |815| 
    4109 00000078 00000010E0E1E0          AND       r0, r1, r0            ; [ALU_PRU] |815| 
    4110 0000007c 000000F1042281          LBBO      &r1, r2, 4, 4         ; [ALU_PRU] |815| dataPinDir
    4111 00000080 00000068E1E009          QBNE      ||$C$L33||, r0, r1    ; [ALU_PRU] |815| 
    4112;* --------------------------------------------------------------------------*
    4113        .dwpsn  file "../spi.c",line 816,column 3,is_stmt,isa 0
    4114 00000084 000000240001E0          LDI       r0, 0x0001            ; [ALU_PRU] |816| 
    4115 00000088 000000E10C2280          SBBO      &r0, r2, 12, 4        ; [ALU_PRU] |816| retVal
    4116        .dwpsn  file "../spi.c",line 819,column 3,is_stmt,isa 0
    4117 0000008c 00000024012481          LDI       r1.w0, 0x0124         ; [ALU_PRU] |819| 
    4118 00000090 000000F1002280          LBBO      &r0, r2, 0, 4         ; [ALU_PRU] |819| spiAddr
    4119 00000094 000000F0812080          LBBO      &r0, r0, r1.w0, 4     ; [ALU_PRU] |819| 
    4120 00000098 000000F1082281          LBBO      &r1, r2, 8, 4         ; [ALU_PRU] |819| spiDat
    4121 0000009c 0000001110E0E0          AND       r0, r0, 0x10          ; [ALU_PRU] |819| 
    4122 000000a0 000000E1002180          SBBO      &r0, r1, 0, 4         ; [ALU_PRU] |819| 
    4123;* --------------------------------------------------------------------------*
    4124 000000a4                 ||$C$L33||:    
    4125        .dwpsn  file "../spi.c",line 822,column 2,is_stmt,isa 0
    4126 000000a4 000000F10C228E          LBBO      &r14, r2, 12, 4       ; [ALU_PRU] |822| retVal
    4127        .dwpsn  file "../spi.c",line 823,column 1,is_stmt,isa 0
    4128 000000a8 0000000110E2E2          ADD       r2, r2, 0x10          ; [ALU_PRU] 
    4129        .dwcfi  cfa_offset, 0
    4130$C$DW$285       .dwtag  DW_TAG_TI_branch
    4131        .dwattr $C$DW$285, DW_AT_low_pc(0x00)
    4132        .dwattr $C$DW$285, DW_AT_TI_return
    4133 000000ac 00000020C30000          JMP       r3.w2                 ; [ALU_PRU] 
    4134        .dwattr $C$DW$277, DW_AT_TI_end_file("../spi.c")
    4135        .dwattr $C$DW$277, DW_AT_TI_end_line(0x337)
    4136        .dwattr $C$DW$277, DW_AT_TI_end_column(0x01)
    4137        .dwendentry
    4138        .dwendtag $C$DW$277
    4139
    4140 00000000                         .sect   ".text:SPI_DataPinWrite"
    4141        .clink
    4142        .global ||SPI_DataPinWrite||
    4143
    4144$C$DW$286       .dwtag  DW_TAG_subprogram, DW_AT_name("SPI_DataPinWrite")
    4145        .dwattr $C$DW$286, DW_AT_low_pc(||SPI_DataPinWrite||)
    4146        .dwattr $C$DW$286, DW_AT_high_pc(0x00)
    4147        .dwattr $C$DW$286, DW_AT_TI_symbol_name("SPI_DataPinWrite")
    4148        .dwattr $C$DW$286, DW_AT_external
PRU Assembler Unix v2.1.2 Thu Jan 28 12:38:40 2016

Tools Copyright (c) 2012-2015 Texas Instruments Incorporated
spi.asm                                                              PAGE   77

    4149        .dwattr $C$DW$286, DW_AT_type(*$C$DW$T$19)
    4150        .dwattr $C$DW$286, DW_AT_TI_begin_file("../spi.c")
    4151        .dwattr $C$DW$286, DW_AT_TI_begin_line(0x345)
    4152        .dwattr $C$DW$286, DW_AT_TI_begin_column(0x0a)
    4153        .dwattr $C$DW$286, DW_AT_decl_file("../spi.c")
    4154        .dwattr $C$DW$286, DW_AT_decl_line(0x345)
    4155        .dwattr $C$DW$286, DW_AT_decl_column(0x0a)
    4156        .dwattr $C$DW$286, DW_AT_TI_max_frame_size(0x10)
    4157        .dwpsn  file "../spi.c",line 838,column 1,is_stmt,address ||SPI_DataPinWrite||,isa 0
    4158
    4159        .dwfde $C$DW$CIE, ||SPI_DataPinWrite||
    4160$C$DW$287       .dwtag  DW_TAG_formal_parameter, DW_AT_name("spiAddr")
    4161        .dwattr $C$DW$287, DW_AT_TI_symbol_name("spiAddr")
    4162        .dwattr $C$DW$287, DW_AT_type(*$C$DW$T$19)
    4163        .dwattr $C$DW$287, DW_AT_location[DW_OP_regx 0x38]
    4164$C$DW$288       .dwtag  DW_TAG_formal_parameter, DW_AT_name("dataPinDir")
    4165        .dwattr $C$DW$288, DW_AT_TI_symbol_name("dataPinDir")
    4166        .dwattr $C$DW$288, DW_AT_type(*$C$DW$T$19)
    4167        .dwattr $C$DW$288, DW_AT_location[DW_OP_regx 0x3c]
    4168$C$DW$289       .dwtag  DW_TAG_formal_parameter, DW_AT_name("spiDat")
    4169        .dwattr $C$DW$289, DW_AT_TI_symbol_name("spiDat")
    4170        .dwattr $C$DW$289, DW_AT_type(*$C$DW$T$19)
    4171        .dwattr $C$DW$289, DW_AT_location[DW_OP_regx 0x40]
    4172
    4173;***************************************************************
    4174;* FNAME: SPI_DataPinWrite              FR SIZE:  16           *
    4175;*                                                             *
    4176;* FUNCTION ENVIRONMENT                                        *
    4177;*                                                             *
    4178;* FUNCTION PROPERTIES                                         *
    4179;*                           16 Auto,  0 SOE     *
    4180;***************************************************************
    4181
    4182 00000000                 ||SPI_DataPinWrite||:
    4183;* --------------------------------------------------------------------------*
    4184        .dwcfi  cfa_offset, 0
    4185 00000000 0000000510E2E2          SUB       r2, r2, 0x10          ; [ALU_PRU] 
    4186        .dwcfi  cfa_offset, 16
    4187$C$DW$290       .dwtag  DW_TAG_variable, DW_AT_name("spiAddr")
    4188        .dwattr $C$DW$290, DW_AT_TI_symbol_name("spiAddr")
    4189        .dwattr $C$DW$290, DW_AT_type(*$C$DW$T$19)
    4190        .dwattr $C$DW$290, DW_AT_location[DW_OP_breg8 0]
    4191 00000004 00000010000000          NOP                             ; [ALU_PRU] 
    4192$C$DW$291       .dwtag  DW_TAG_variable, DW_AT_name("dataPinDir")
    4193        .dwattr $C$DW$291, DW_AT_TI_symbol_name("dataPinDir")
    4194        .dwattr $C$DW$291, DW_AT_type(*$C$DW$T$19)
    4195        .dwattr $C$DW$291, DW_AT_location[DW_OP_breg8 4]
    4196 00000008 00000010000000          NOP                             ; [ALU_PRU] 
    4197$C$DW$292       .dwtag  DW_TAG_variable, DW_AT_name("spiDat")
    4198        .dwattr $C$DW$292, DW_AT_TI_symbol_name("spiDat")
    4199        .dwattr $C$DW$292, DW_AT_type(*$C$DW$T$19)
    4200        .dwattr $C$DW$292, DW_AT_location[DW_OP_breg8 8]
    4201 0000000c 00000010000000          NOP                             ; [ALU_PRU] 
    4202$C$DW$293       .dwtag  DW_TAG_variable, DW_AT_name("retVal")
    4203        .dwattr $C$DW$293, DW_AT_TI_symbol_name("retVal")
PRU Assembler Unix v2.1.2 Thu Jan 28 12:38:40 2016

Tools Copyright (c) 2012-2015 Texas Instruments Incorporated
spi.asm                                                              PAGE   78

    4204        .dwattr $C$DW$293, DW_AT_type(*$C$DW$T$19)
    4205        .dwattr $C$DW$293, DW_AT_location[DW_OP_breg8 12]
    4206 00000010 00000010000000          NOP                             ; [ALU_PRU] 
    4207 00000014 000000E1082290          SBBO      &r16, r2, 8, 4        ; [ALU_PRU] |838| spiDat
    4208 00000018 000000E104228F          SBBO      &r15, r2, 4, 4        ; [ALU_PRU] |838| dataPinDir
    4209 0000001c 000000E100228E          SBBO      &r14, r2, 0, 4        ; [ALU_PRU] |838| spiAddr
    4210        .dwpsn  file "../spi.c",line 839,column 18,is_stmt,isa 0
    4211 00000020 000000240000E0          LDI       r0, 0x0000            ; [ALU_PRU] |839| 
    4212 00000024 000000E10C2280          SBBO      &r0, r2, 12, 4        ; [ALU_PRU] |839| retVal
    4213        .dwpsn  file "../spi.c",line 841,column 2,is_stmt,isa 0
    4214 00000028 00000024012481          LDI       r1.w0, 0x0124         ; [ALU_PRU] |841| 
    4215 0000002c 000000F1002280          LBBO      &r0, r2, 0, 4         ; [ALU_PRU] |841| spiAddr
    4216 00000030 000000F0812081          LBBO      &r1, r0, r1.w0, 4     ; [ALU_PRU] |841| 
    4217 00000034 000000240200E0          LDI       r0, 0x0200            ; [ALU_PRU] |841| 
    4218 00000038 00000010E0E1E0          AND       r0, r1, r0            ; [ALU_PRU] |841| 
    4219 0000003c 000000F1042281          LBBO      &r1, r2, 4, 4         ; [ALU_PRU] |841| dataPinDir
    4220 00000040 00000068E1E012          QBNE      ||$C$L34||, r0, r1    ; [ALU_PRU] |841| 
    4221;* --------------------------------------------------------------------------*
    4222        .dwpsn  file "../spi.c",line 843,column 3,is_stmt,isa 0
    4223 00000044 000000240001E0          LDI       r0, 0x0001            ; [ALU_PRU] |843| 
    4224 00000048 000000E10C2280          SBBO      &r0, r2, 12, 4        ; [ALU_PRU] |843| retVal
    4225        .dwpsn  file "../spi.c",line 846,column 3,is_stmt,isa 0
    4226 0000004c 000000F1002281          LBBO      &r1, r2, 0, 4         ; [ALU_PRU] |846| spiAddr
    4227 00000050 000000240124E0          LDI       r0, 0x0124            ; [ALU_PRU] |846| 
    4228 00000054 00000000E0E1E0          ADD       r0, r1, r0            ; [ALU_PRU] |846| 
    4229 00000058 000000F1002081          LBBO      &r1, r0, 0, 4         ; [ALU_PRU] |846| 
    4230 0000005c 0000001D05E1E1          CLR       r1, r1, 0x00000005    ; [ALU_PRU] |846| 
    4231 00000060 000000E1002081          SBBO      &r1, r0, 0, 4         ; [ALU_PRU] |846| 
    4232        .dwpsn  file "../spi.c",line 849,column 3,is_stmt,isa 0
    4233 00000064 000000F1002281          LBBO      &r1, r2, 0, 4         ; [ALU_PRU] |849| spiAddr
    4234 00000068 000000240124E0          LDI       r0, 0x0124            ; [ALU_PRU] |849| 
    4235 0000006c 00000000E0E1E0          ADD       r0, r1, r0            ; [ALU_PRU] |849| 
    4236 00000070 000000F1082281          LBBO      &r1, r2, 8, 4         ; [ALU_PRU] |849| spiDat
    4237 00000074 000000F100208E          LBBO      &r14, r0, 0, 4        ; [ALU_PRU] |849| 
    4238 00000078 0000000905E1E1          LSL       r1, r1, 0x05          ; [ALU_PRU] |849| 
    4239 0000007c 00000012E1EEE1          OR        r1, r14, r1           ; [ALU_PRU] |849| 
    4240 00000080 000000E1002081          SBBO      &r1, r0, 0, 4         ; [ALU_PRU] |849| 
    4241        .dwpsn  file "../spi.c",line 850,column 2,is_stmt,isa 0
    4242 00000084 00000021000000!         JMP       ||$C$L35||            ; [ALU_PRU] |850| 
    4243;* --------------------------------------------------------------------------*
    4244 00000088                 ||$C$L34||:    
    4245        .dwpsn  file "../spi.c",line 850,column 9,is_stmt,isa 0
    4246 00000088 000000F1002280          LBBO      &r0, r2, 0, 4         ; [ALU_PRU] |850| spiAddr
    4247 0000008c 00000024012481          LDI       r1.w0, 0x0124         ; [ALU_PRU] |850| 
    4248 00000090 000000F0812081          LBBO      &r1, r0, r1.w0, 4     ; [ALU_PRU] |850| 
    4249 00000094 000000240100E0          LDI       r0, 0x0100            ; [ALU_PRU] |850| 
    4250 00000098 00000010E0E1E0          AND       r0, r1, r0            ; [ALU_PRU] |850| 
    4251 0000009c 000000F1042281          LBBO      &r1, r2, 4, 4         ; [ALU_PRU] |850| dataPinDir
    4252 000000a0 00000068E1E011          QBNE      ||$C$L35||, r0, r1    ; [ALU_PRU] |850| 
    4253;* --------------------------------------------------------------------------*
    4254        .dwpsn  file "../spi.c",line 851,column 3,is_stmt,isa 0
    4255 000000a4 000000240001E0          LDI       r0, 0x0001            ; [ALU_PRU] |851| 
    4256 000000a8 000000E10C2280          SBBO      &r0, r2, 12, 4        ; [ALU_PRU] |851| retVal
    4257        .dwpsn  file "../spi.c",line 854,column 3,is_stmt,isa 0
    4258 000000ac 000000F1002281          LBBO      &r1, r2, 0, 4         ; [ALU_PRU] |854| spiAddr
PRU Assembler Unix v2.1.2 Thu Jan 28 12:38:40 2016

Tools Copyright (c) 2012-2015 Texas Instruments Incorporated
spi.asm                                                              PAGE   79

    4259 000000b0 000000240124E0          LDI       r0, 0x0124            ; [ALU_PRU] |854| 
    4260 000000b4 00000000E0E1E0          ADD       r0, r1, r0            ; [ALU_PRU] |854| 
    4261 000000b8 000000F1002081          LBBO      &r1, r0, 0, 4         ; [ALU_PRU] |854| 
    4262 000000bc 0000001D04E1E1          CLR       r1, r1, 0x00000004    ; [ALU_PRU] |854| 
    4263 000000c0 000000E1002081          SBBO      &r1, r0, 0, 4         ; [ALU_PRU] |854| 
    4264        .dwpsn  file "../spi.c",line 857,column 3,is_stmt,isa 0
    4265 000000c4 000000F1002281          LBBO      &r1, r2, 0, 4         ; [ALU_PRU] |857| spiAddr
    4266 000000c8 000000240124E0          LDI       r0, 0x0124            ; [ALU_PRU] |857| 
    4267 000000cc 00000000E0E1E0          ADD       r0, r1, r0            ; [ALU_PRU] |857| 
    4268 000000d0 000000F1082281          LBBO      &r1, r2, 8, 4         ; [ALU_PRU] |857| spiDat
    4269 000000d4 000000F100208E          LBBO      &r14, r0, 0, 4        ; [ALU_PRU] |857| 
    4270 000000d8 0000000904E1E1          LSL       r1, r1, 0x04          ; [ALU_PRU] |857| 
    4271 000000dc 00000012E1EEE1          OR        r1, r14, r1           ; [ALU_PRU] |857| 
    4272 000000e0 000000E1002081          SBBO      &r1, r0, 0, 4         ; [ALU_PRU] |857| 
    4273;* --------------------------------------------------------------------------*
    4274 000000e4                 ||$C$L35||:    
    4275        .dwpsn  file "../spi.c",line 860,column 2,is_stmt,isa 0
    4276 000000e4 000000F10C228E          LBBO      &r14, r2, 12, 4       ; [ALU_PRU] |860| retVal
    4277        .dwpsn  file "../spi.c",line 861,column 1,is_stmt,isa 0
    4278 000000e8 0000000110E2E2          ADD       r2, r2, 0x10          ; [ALU_PRU] 
    4279        .dwcfi  cfa_offset, 0
    4280$C$DW$294       .dwtag  DW_TAG_TI_branch
    4281        .dwattr $C$DW$294, DW_AT_low_pc(0x00)
    4282        .dwattr $C$DW$294, DW_AT_TI_return
    4283 000000ec 00000020C30000          JMP       r3.w2                 ; [ALU_PRU] 
    4284        .dwattr $C$DW$286, DW_AT_TI_end_file("../spi.c")
    4285        .dwattr $C$DW$286, DW_AT_TI_end_line(0x35d)
    4286        .dwattr $C$DW$286, DW_AT_TI_end_column(0x01)
    4287        .dwendentry
    4288        .dwendtag $C$DW$286
    4289
    4290 00000000                         .sect   ".text:SPI_CSRead"
    4291        .clink
    4292        .global ||SPI_CSRead||
    4293
    4294$C$DW$295       .dwtag  DW_TAG_subprogram, DW_AT_name("SPI_CSRead")
    4295        .dwattr $C$DW$295, DW_AT_low_pc(||SPI_CSRead||)
    4296        .dwattr $C$DW$295, DW_AT_high_pc(0x00)
    4297        .dwattr $C$DW$295, DW_AT_TI_symbol_name("SPI_CSRead")
    4298        .dwattr $C$DW$295, DW_AT_external
    4299        .dwattr $C$DW$295, DW_AT_type(*$C$DW$T$19)
    4300        .dwattr $C$DW$295, DW_AT_TI_begin_file("../spi.c")
    4301        .dwattr $C$DW$295, DW_AT_TI_begin_line(0x369)
    4302        .dwattr $C$DW$295, DW_AT_TI_begin_column(0x0a)
    4303        .dwattr $C$DW$295, DW_AT_decl_file("../spi.c")
    4304        .dwattr $C$DW$295, DW_AT_decl_line(0x369)
    4305        .dwattr $C$DW$295, DW_AT_decl_column(0x0a)
    4306        .dwattr $C$DW$295, DW_AT_TI_max_frame_size(0x10)
    4307        .dwpsn  file "../spi.c",line 874,column 1,is_stmt,address ||SPI_CSRead||,isa 0
    4308
    4309        .dwfde $C$DW$CIE, ||SPI_CSRead||
    4310$C$DW$296       .dwtag  DW_TAG_formal_parameter, DW_AT_name("spiAddr")
    4311        .dwattr $C$DW$296, DW_AT_TI_symbol_name("spiAddr")
    4312        .dwattr $C$DW$296, DW_AT_type(*$C$DW$T$19)
    4313        .dwattr $C$DW$296, DW_AT_location[DW_OP_regx 0x38]
PRU Assembler Unix v2.1.2 Thu Jan 28 12:38:40 2016

Tools Copyright (c) 2012-2015 Texas Instruments Incorporated
spi.asm                                                              PAGE   80

    4314$C$DW$297       .dwtag  DW_TAG_formal_parameter, DW_AT_name("spiEn")
    4315        .dwattr $C$DW$297, DW_AT_TI_symbol_name("spiEn")
    4316        .dwattr $C$DW$297, DW_AT_type(*$C$DW$T$31)
    4317        .dwattr $C$DW$297, DW_AT_location[DW_OP_regx 0x3c]
    4318$C$DW$298       .dwtag  DW_TAG_formal_parameter, DW_AT_name("spiEnNum")
    4319        .dwattr $C$DW$298, DW_AT_TI_symbol_name("spiEnNum")
    4320        .dwattr $C$DW$298, DW_AT_type(*$C$DW$T$19)
    4321        .dwattr $C$DW$298, DW_AT_location[DW_OP_regx 0x40]
    4322
    4323;***************************************************************
    4324;* FNAME: SPI_CSRead                    FR SIZE:  16           *
    4325;*                                                             *
    4326;* FUNCTION ENVIRONMENT                                        *
    4327;*                                                             *
    4328;* FUNCTION PROPERTIES                                         *
    4329;*                           16 Auto,  0 SOE     *
    4330;***************************************************************
    4331
    4332 00000000                 ||SPI_CSRead||:
    4333;* --------------------------------------------------------------------------*
    4334        .dwcfi  cfa_offset, 0
    4335 00000000 0000000510E2E2          SUB       r2, r2, 0x10          ; [ALU_PRU] 
    4336        .dwcfi  cfa_offset, 16
    4337$C$DW$299       .dwtag  DW_TAG_variable, DW_AT_name("spiAddr")
    4338        .dwattr $C$DW$299, DW_AT_TI_symbol_name("spiAddr")
    4339        .dwattr $C$DW$299, DW_AT_type(*$C$DW$T$19)
    4340        .dwattr $C$DW$299, DW_AT_location[DW_OP_breg8 0]
    4341 00000004 00000010000000          NOP                             ; [ALU_PRU] 
    4342$C$DW$300       .dwtag  DW_TAG_variable, DW_AT_name("spiEn")
    4343        .dwattr $C$DW$300, DW_AT_TI_symbol_name("spiEn")
    4344        .dwattr $C$DW$300, DW_AT_type(*$C$DW$T$31)
    4345        .dwattr $C$DW$300, DW_AT_location[DW_OP_breg8 4]
    4346 00000008 00000010000000          NOP                             ; [ALU_PRU] 
    4347$C$DW$301       .dwtag  DW_TAG_variable, DW_AT_name("spiEnNum")
    4348        .dwattr $C$DW$301, DW_AT_TI_symbol_name("spiEnNum")
    4349        .dwattr $C$DW$301, DW_AT_type(*$C$DW$T$19)
    4350        .dwattr $C$DW$301, DW_AT_location[DW_OP_breg8 8]
    4351 0000000c 00000010000000          NOP                             ; [ALU_PRU] 
    4352$C$DW$302       .dwtag  DW_TAG_variable, DW_AT_name("retVal")
    4353        .dwattr $C$DW$302, DW_AT_TI_symbol_name("retVal")
    4354        .dwattr $C$DW$302, DW_AT_type(*$C$DW$T$19)
    4355        .dwattr $C$DW$302, DW_AT_location[DW_OP_breg8 12]
    4356 00000010 00000010000000          NOP                             ; [ALU_PRU] 
    4357 00000014 000000E1082290          SBBO      &r16, r2, 8, 4        ; [ALU_PRU] |874| spiEnNum
    4358 00000018 000000E104228F          SBBO      &r15, r2, 4, 4        ; [ALU_PRU] |874| spiEn
    4359 0000001c 000000E100228E          SBBO      &r14, r2, 0, 4        ; [ALU_PRU] |874| spiAddr
    4360        .dwpsn  file "../spi.c",line 875,column 18,is_stmt,isa 0
    4361 00000020 000000240000E0          LDI       r0, 0x0000            ; [ALU_PRU] |875| 
    4362 00000024 000000E10C2280          SBBO      &r0, r2, 12, 4        ; [ALU_PRU] |875| retVal
    4363        .dwpsn  file "../spi.c",line 877,column 2,is_stmt,isa 0
    4364 00000028 00000024012481          LDI       r1.w0, 0x0124         ; [ALU_PRU] |877| 
    4365 0000002c 000000F1002280          LBBO      &r0, r2, 0, 4         ; [ALU_PRU] |877| spiAddr
    4366 00000030 000000F0812080          LBBO      &r0, r0, r1.w0, 4     ; [ALU_PRU] |877| 
    4367 00000034 000000C90AE009          QBBC      ||$C$L36||, r0, 0x0a  ; [ALU_PRU] |877| 
    4368;* --------------------------------------------------------------------------*
PRU Assembler Unix v2.1.2 Thu Jan 28 12:38:40 2016

Tools Copyright (c) 2012-2015 Texas Instruments Incorporated
spi.asm                                                              PAGE   81

    4369        .dwpsn  file "../spi.c",line 879,column 3,is_stmt,isa 0
    4370 00000038 000000240001E0          LDI       r0, 0x0001            ; [ALU_PRU] |879| 
    4371 0000003c 000000E10C2280          SBBO      &r0, r2, 12, 4        ; [ALU_PRU] |879| retVal
    4372        .dwpsn  file "../spi.c",line 882,column 3,is_stmt,isa 0
    4373 00000040 000000F1002280          LBBO      &r0, r2, 0, 4         ; [ALU_PRU] |882| spiAddr
    4374 00000044 000000F0812081          LBBO      &r1, r0, r1.w0, 4     ; [ALU_PRU] |882| 
    4375 00000048 000000F1082280          LBBO      &r0, r2, 8, 4         ; [ALU_PRU] |882| spiEnNum
    4376 0000004c 00000010E0E1E0          AND       r0, r1, r0            ; [ALU_PRU] |882| 
    4377 00000050 000000F1042281          LBBO      &r1, r2, 4, 4         ; [ALU_PRU] |882| spiEn
    4378 00000054 000000E1002180          SBBO      &r0, r1, 0, 4         ; [ALU_PRU] |882| 
    4379;* --------------------------------------------------------------------------*
    4380 00000058                 ||$C$L36||:    
    4381        .dwpsn  file "../spi.c",line 885,column 2,is_stmt,isa 0
    4382 00000058 000000F10C228E          LBBO      &r14, r2, 12, 4       ; [ALU_PRU] |885| retVal
    4383        .dwpsn  file "../spi.c",line 886,column 1,is_stmt,isa 0
    4384 0000005c 0000000110E2E2          ADD       r2, r2, 0x10          ; [ALU_PRU] 
    4385        .dwcfi  cfa_offset, 0
    4386$C$DW$303       .dwtag  DW_TAG_TI_branch
    4387        .dwattr $C$DW$303, DW_AT_low_pc(0x00)
    4388        .dwattr $C$DW$303, DW_AT_TI_return
    4389 00000060 00000020C30000          JMP       r3.w2                 ; [ALU_PRU] 
    4390        .dwattr $C$DW$295, DW_AT_TI_end_file("../spi.c")
    4391        .dwattr $C$DW$295, DW_AT_TI_end_line(0x376)
    4392        .dwattr $C$DW$295, DW_AT_TI_end_column(0x01)
    4393        .dwendentry
    4394        .dwendtag $C$DW$295
    4395
    4396 00000000                         .sect   ".text:SPI_CSWrite"
    4397        .clink
    4398        .global ||SPI_CSWrite||
    4399
    4400$C$DW$304       .dwtag  DW_TAG_subprogram, DW_AT_name("SPI_CSWrite")
    4401        .dwattr $C$DW$304, DW_AT_low_pc(||SPI_CSWrite||)
    4402        .dwattr $C$DW$304, DW_AT_high_pc(0x00)
    4403        .dwattr $C$DW$304, DW_AT_TI_symbol_name("SPI_CSWrite")
    4404        .dwattr $C$DW$304, DW_AT_external
    4405        .dwattr $C$DW$304, DW_AT_type(*$C$DW$T$19)
    4406        .dwattr $C$DW$304, DW_AT_TI_begin_file("../spi.c")
    4407        .dwattr $C$DW$304, DW_AT_TI_begin_line(0x384)
    4408        .dwattr $C$DW$304, DW_AT_TI_begin_column(0x0a)
    4409        .dwattr $C$DW$304, DW_AT_decl_file("../spi.c")
    4410        .dwattr $C$DW$304, DW_AT_decl_line(0x384)
    4411        .dwattr $C$DW$304, DW_AT_decl_column(0x0a)
    4412        .dwattr $C$DW$304, DW_AT_TI_max_frame_size(0x10)
    4413        .dwpsn  file "../spi.c",line 901,column 1,is_stmt,address ||SPI_CSWrite||,isa 0
    4414
    4415        .dwfde $C$DW$CIE, ||SPI_CSWrite||
    4416$C$DW$305       .dwtag  DW_TAG_formal_parameter, DW_AT_name("spiAddr")
    4417        .dwattr $C$DW$305, DW_AT_TI_symbol_name("spiAddr")
    4418        .dwattr $C$DW$305, DW_AT_type(*$C$DW$T$19)
    4419        .dwattr $C$DW$305, DW_AT_location[DW_OP_regx 0x38]
    4420$C$DW$306       .dwtag  DW_TAG_formal_parameter, DW_AT_name("spiEnLvl")
    4421        .dwattr $C$DW$306, DW_AT_TI_symbol_name("spiEnLvl")
    4422        .dwattr $C$DW$306, DW_AT_type(*$C$DW$T$19)
    4423        .dwattr $C$DW$306, DW_AT_location[DW_OP_regx 0x3c]
PRU Assembler Unix v2.1.2 Thu Jan 28 12:38:40 2016

Tools Copyright (c) 2012-2015 Texas Instruments Incorporated
spi.asm                                                              PAGE   82

    4424$C$DW$307       .dwtag  DW_TAG_formal_parameter, DW_AT_name("spiEnNum")
    4425        .dwattr $C$DW$307, DW_AT_TI_symbol_name("spiEnNum")
    4426        .dwattr $C$DW$307, DW_AT_type(*$C$DW$T$19)
    4427        .dwattr $C$DW$307, DW_AT_location[DW_OP_regx 0x40]
    4428
    4429;***************************************************************
    4430;* FNAME: SPI_CSWrite                   FR SIZE:  16           *
    4431;*                                                             *
    4432;* FUNCTION ENVIRONMENT                                        *
    4433;*                                                             *
    4434;* FUNCTION PROPERTIES                                         *
    4435;*                           16 Auto,  0 SOE     *
    4436;***************************************************************
    4437
    4438 00000000                 ||SPI_CSWrite||:
    4439;* --------------------------------------------------------------------------*
    4440        .dwcfi  cfa_offset, 0
    4441 00000000 0000000510E2E2          SUB       r2, r2, 0x10          ; [ALU_PRU] 
    4442        .dwcfi  cfa_offset, 16
    4443$C$DW$308       .dwtag  DW_TAG_variable, DW_AT_name("spiAddr")
    4444        .dwattr $C$DW$308, DW_AT_TI_symbol_name("spiAddr")
    4445        .dwattr $C$DW$308, DW_AT_type(*$C$DW$T$19)
    4446        .dwattr $C$DW$308, DW_AT_location[DW_OP_breg8 0]
    4447 00000004 00000010000000          NOP                             ; [ALU_PRU] 
    4448$C$DW$309       .dwtag  DW_TAG_variable, DW_AT_name("spiEnLvl")
    4449        .dwattr $C$DW$309, DW_AT_TI_symbol_name("spiEnLvl")
    4450        .dwattr $C$DW$309, DW_AT_type(*$C$DW$T$19)
    4451        .dwattr $C$DW$309, DW_AT_location[DW_OP_breg8 4]
    4452 00000008 00000010000000          NOP                             ; [ALU_PRU] 
    4453$C$DW$310       .dwtag  DW_TAG_variable, DW_AT_name("spiEnNum")
    4454        .dwattr $C$DW$310, DW_AT_TI_symbol_name("spiEnNum")
    4455        .dwattr $C$DW$310, DW_AT_type(*$C$DW$T$19)
    4456        .dwattr $C$DW$310, DW_AT_location[DW_OP_breg8 8]
    4457 0000000c 00000010000000          NOP                             ; [ALU_PRU] 
    4458$C$DW$311       .dwtag  DW_TAG_variable, DW_AT_name("retVal")
    4459        .dwattr $C$DW$311, DW_AT_TI_symbol_name("retVal")
    4460        .dwattr $C$DW$311, DW_AT_type(*$C$DW$T$19)
    4461        .dwattr $C$DW$311, DW_AT_location[DW_OP_breg8 12]
    4462 00000010 00000010000000          NOP                             ; [ALU_PRU] 
    4463 00000014 000000E1082290          SBBO      &r16, r2, 8, 4        ; [ALU_PRU] |901| spiEnNum
    4464 00000018 000000E104228F          SBBO      &r15, r2, 4, 4        ; [ALU_PRU] |901| spiEnLvl
    4465 0000001c 000000E100228E          SBBO      &r14, r2, 0, 4        ; [ALU_PRU] |901| spiAddr
    4466        .dwpsn  file "../spi.c",line 902,column 18,is_stmt,isa 0
    4467 00000020 000000240000E0          LDI       r0, 0x0000            ; [ALU_PRU] |902| 
    4468 00000024 000000E10C2280          SBBO      &r0, r2, 12, 4        ; [ALU_PRU] |902| retVal
    4469        .dwpsn  file "../spi.c",line 904,column 2,is_stmt,isa 0
    4470 00000028 00000024012481          LDI       r1.w0, 0x0124         ; [ALU_PRU] |904| 
    4471 0000002c 000000F1002280          LBBO      &r0, r2, 0, 4         ; [ALU_PRU] |904| spiAddr
    4472 00000030 000000F0812080          LBBO      &r0, r0, r1.w0, 4     ; [ALU_PRU] |904| 
    4473 00000034 000000D10AE046          QBBS      ||$C$L40||, r0, 0x0a  ; [ALU_PRU] |904| 
    4474;* --------------------------------------------------------------------------*
    4475        .dwpsn  file "../spi.c",line 906,column 3,is_stmt,isa 0
    4476 00000038 000000240001E0          LDI       r0, 0x0001            ; [ALU_PRU] |906| 
    4477 0000003c 000000E10C2280          SBBO      &r0, r2, 12, 4        ; [ALU_PRU] |906| retVal
    4478        .dwpsn  file "../spi.c",line 908,column 3,is_stmt,isa 0
PRU Assembler Unix v2.1.2 Thu Jan 28 12:38:40 2016

Tools Copyright (c) 2012-2015 Texas Instruments Incorporated
spi.asm                                                              PAGE   83

    4479 00000040 000000F1082280          LBBO      &r0, r2, 8, 4         ; [ALU_PRU] |908| spiEnNum
    4480 00000044 0000006901E010          QBNE      ||$C$L37||, r0, 0x01  ; [ALU_PRU] |908| 
    4481;* --------------------------------------------------------------------------*
    4482        .dwpsn  file "../spi.c",line 911,column 4,is_stmt,isa 0
    4483 00000048 000000240124E0          LDI       r0, 0x0124            ; [ALU_PRU] |911| 
    4484 0000004c 000000F1002281          LBBO      &r1, r2, 0, 4         ; [ALU_PRU] |911| spiAddr
    4485 00000050 00000000E0E1E0          ADD       r0, r1, r0            ; [ALU_PRU] |911| 
    4486 00000054 000000F1002081          LBBO      &r1, r0, 0, 4         ; [ALU_PRU] |911| 
    4487 00000058 0000001D00E1E1          CLR       r1, r1, 0x00000000    ; [ALU_PRU] |911| 
    4488 0000005c 000000E1002081          SBBO      &r1, r0, 0, 4         ; [ALU_PRU] |911| 
    4489        .dwpsn  file "../spi.c",line 914,column 4,is_stmt,isa 0
    4490 00000060 000000F1002281          LBBO      &r1, r2, 0, 4         ; [ALU_PRU] |914| spiAddr
    4491 00000064 000000240124E0          LDI       r0, 0x0124            ; [ALU_PRU] |914| 
    4492 00000068 00000000E0E1E0          ADD       r0, r1, r0            ; [ALU_PRU] |914| 
    4493 0000006c 000000F100208E          LBBO      &r14, r0, 0, 4        ; [ALU_PRU] |914| 
    4494 00000070 000000F1042281          LBBO      &r1, r2, 4, 4         ; [ALU_PRU] |914| spiEnLvl
    4495 00000074 0000001101E1E1          AND       r1, r1, 0x01          ; [ALU_PRU] |914| 
    4496 00000078 00000012E1EEE1          OR        r1, r14, r1           ; [ALU_PRU] |914| 
    4497 0000007c 000000E1002081          SBBO      &r1, r0, 0, 4         ; [ALU_PRU] |914| 
    4498        .dwpsn  file "../spi.c",line 915,column 3,is_stmt,isa 0
    4499 00000080 00000021000000!         JMP       ||$C$L40||            ; [ALU_PRU] |915| 
    4500;* --------------------------------------------------------------------------*
    4501 00000084                 ||$C$L37||:    
    4502        .dwpsn  file "../spi.c",line 915,column 10,is_stmt,isa 0
    4503 00000084 0000006902E011          QBNE      ||$C$L38||, r0, 0x02  ; [ALU_PRU] |915| 
    4504;* --------------------------------------------------------------------------*
    4505        .dwpsn  file "../spi.c",line 917,column 4,is_stmt,isa 0
    4506 00000088 000000240124E0          LDI       r0, 0x0124            ; [ALU_PRU] |917| 
    4507 0000008c 000000F1002281          LBBO      &r1, r2, 0, 4         ; [ALU_PRU] |917| spiAddr
    4508 00000090 00000000E0E1E0          ADD       r0, r1, r0            ; [ALU_PRU] |917| 
    4509 00000094 000000F1002081          LBBO      &r1, r0, 0, 4         ; [ALU_PRU] |917| 
    4510 00000098 0000001D01E1E1          CLR       r1, r1, 0x00000001    ; [ALU_PRU] |917| 
    4511 0000009c 000000E1002081          SBBO      &r1, r0, 0, 4         ; [ALU_PRU] |917| 
    4512        .dwpsn  file "../spi.c",line 920,column 4,is_stmt,isa 0
    4513 000000a0 000000F1002281          LBBO      &r1, r2, 0, 4         ; [ALU_PRU] |920| spiAddr
    4514 000000a4 000000240124E0          LDI       r0, 0x0124            ; [ALU_PRU] |920| 
    4515 000000a8 00000000E0E1E0          ADD       r0, r1, r0            ; [ALU_PRU] |920| 
    4516 000000ac 000000F1042281          LBBO      &r1, r2, 4, 4         ; [ALU_PRU] |920| spiEnLvl
    4517 000000b0 000000F100208E          LBBO      &r14, r0, 0, 4        ; [ALU_PRU] |920| 
    4518 000000b4 0000000901E1E1          LSL       r1, r1, 0x01          ; [ALU_PRU] |920| 
    4519 000000b8 0000001102E1E1          AND       r1, r1, 0x02          ; [ALU_PRU] |920| 
    4520 000000bc 00000012E1EEE1          OR        r1, r14, r1           ; [ALU_PRU] |920| 
    4521 000000c0 000000E1002081          SBBO      &r1, r0, 0, 4         ; [ALU_PRU] |920| 
    4522        .dwpsn  file "../spi.c",line 921,column 3,is_stmt,isa 0
    4523 000000c4 00000021000000!         JMP       ||$C$L40||            ; [ALU_PRU] |921| 
    4524;* --------------------------------------------------------------------------*
    4525 000000c8                 ||$C$L38||:    
    4526        .dwpsn  file "../spi.c",line 921,column 10,is_stmt,isa 0
    4527 000000c8 0000006904E011          QBNE      ||$C$L39||, r0, 0x04  ; [ALU_PRU] |921| 
    4528;* --------------------------------------------------------------------------*
    4529        .dwpsn  file "../spi.c",line 923,column 4,is_stmt,isa 0
    4530 000000cc 000000240124E0          LDI       r0, 0x0124            ; [ALU_PRU] |923| 
    4531 000000d0 000000F1002281          LBBO      &r1, r2, 0, 4         ; [ALU_PRU] |923| spiAddr
    4532 000000d4 00000000E0E1E0          ADD       r0, r1, r0            ; [ALU_PRU] |923| 
    4533 000000d8 000000F1002081          LBBO      &r1, r0, 0, 4         ; [ALU_PRU] |923| 
PRU Assembler Unix v2.1.2 Thu Jan 28 12:38:40 2016

Tools Copyright (c) 2012-2015 Texas Instruments Incorporated
spi.asm                                                              PAGE   84

    4534 000000dc 0000001D02E1E1          CLR       r1, r1, 0x00000002    ; [ALU_PRU] |923| 
    4535 000000e0 000000E1002081          SBBO      &r1, r0, 0, 4         ; [ALU_PRU] |923| 
    4536        .dwpsn  file "../spi.c",line 926,column 4,is_stmt,isa 0
    4537 000000e4 000000F1002281          LBBO      &r1, r2, 0, 4         ; [ALU_PRU] |926| spiAddr
    4538 000000e8 000000240124E0          LDI       r0, 0x0124            ; [ALU_PRU] |926| 
    4539 000000ec 00000000E0E1E0          ADD       r0, r1, r0            ; [ALU_PRU] |926| 
    4540 000000f0 000000F1042281          LBBO      &r1, r2, 4, 4         ; [ALU_PRU] |926| spiEnLvl
    4541 000000f4 000000F100208E          LBBO      &r14, r0, 0, 4        ; [ALU_PRU] |926| 
    4542 000000f8 0000000902E1E1          LSL       r1, r1, 0x02          ; [ALU_PRU] |926| 
    4543 000000fc 0000001104E1E1          AND       r1, r1, 0x04          ; [ALU_PRU] |926| 
    4544 00000100 00000012E1EEE1          OR        r1, r14, r1           ; [ALU_PRU] |926| 
    4545 00000104 000000E1002081          SBBO      &r1, r0, 0, 4         ; [ALU_PRU] |926| 
    4546        .dwpsn  file "../spi.c",line 927,column 3,is_stmt,isa 0
    4547 00000108 00000021000000!         JMP       ||$C$L40||            ; [ALU_PRU] |927| 
    4548;* --------------------------------------------------------------------------*
    4549 0000010c                 ||$C$L39||:    
    4550        .dwpsn  file "../spi.c",line 927,column 10,is_stmt,isa 0
    4551 0000010c 0000006908E010          QBNE      ||$C$L40||, r0, 0x08  ; [ALU_PRU] |927| 
    4552;* --------------------------------------------------------------------------*
    4553        .dwpsn  file "../spi.c",line 929,column 4,is_stmt,isa 0
    4554 00000110 000000240124E0          LDI       r0, 0x0124            ; [ALU_PRU] |929| 
    4555 00000114 000000F1002281          LBBO      &r1, r2, 0, 4         ; [ALU_PRU] |929| spiAddr
    4556 00000118 00000000E0E1E0          ADD       r0, r1, r0            ; [ALU_PRU] |929| 
    4557 0000011c 000000F1002081          LBBO      &r1, r0, 0, 4         ; [ALU_PRU] |929| 
    4558 00000120 0000001D03E1E1          CLR       r1, r1, 0x00000003    ; [ALU_PRU] |929| 
    4559 00000124 000000E1002081          SBBO      &r1, r0, 0, 4         ; [ALU_PRU] |929| 
    4560        .dwpsn  file "../spi.c",line 932,column 4,is_stmt,isa 0
    4561 00000128 000000F1002281          LBBO      &r1, r2, 0, 4         ; [ALU_PRU] |932| spiAddr
    4562 0000012c 000000240124E0          LDI       r0, 0x0124            ; [ALU_PRU] |932| 
    4563 00000130 00000000E0E1E0          ADD       r0, r1, r0            ; [ALU_PRU] |932| 
    4564 00000134 000000F1042281          LBBO      &r1, r2, 4, 4         ; [ALU_PRU] |932| spiEnLvl
    4565 00000138 000000F100208E          LBBO      &r14, r0, 0, 4        ; [ALU_PRU] |932| 
    4566 0000013c 0000000903E1E1          LSL       r1, r1, 0x03          ; [ALU_PRU] |932| 
    4567 00000140 0000001108E1E1          AND       r1, r1, 0x08          ; [ALU_PRU] |932| 
    4568 00000144 00000012E1EEE1          OR        r1, r14, r1           ; [ALU_PRU] |932| 
    4569 00000148 000000E1002081          SBBO      &r1, r0, 0, 4         ; [ALU_PRU] |932| 
    4570;* --------------------------------------------------------------------------*
    4571 0000014c                 ||$C$L40||:    
    4572        .dwpsn  file "../spi.c",line 936,column 2,is_stmt,isa 0
    4573 0000014c 000000F10C228E          LBBO      &r14, r2, 12, 4       ; [ALU_PRU] |936| retVal
    4574        .dwpsn  file "../spi.c",line 937,column 1,is_stmt,isa 0
    4575 00000150 0000000110E2E2          ADD       r2, r2, 0x10          ; [ALU_PRU] 
    4576        .dwcfi  cfa_offset, 0
    4577$C$DW$312       .dwtag  DW_TAG_TI_branch
    4578        .dwattr $C$DW$312, DW_AT_low_pc(0x00)
    4579        .dwattr $C$DW$312, DW_AT_TI_return
    4580 00000154 00000020C30000          JMP       r3.w2                 ; [ALU_PRU] 
    4581        .dwattr $C$DW$304, DW_AT_TI_end_file("../spi.c")
    4582        .dwattr $C$DW$304, DW_AT_TI_end_line(0x3a9)
    4583        .dwattr $C$DW$304, DW_AT_TI_end_column(0x01)
    4584        .dwendentry
    4585        .dwendtag $C$DW$304
    4586
    4587;*****************************************************************************
    4588;* UNDEFINED EXTERNAL REFERENCES                                             *
PRU Assembler Unix v2.1.2 Thu Jan 28 12:38:40 2016

Tools Copyright (c) 2012-2015 Texas Instruments Incorporated
spi.asm                                                              PAGE   85

    4589;*****************************************************************************
    4590        .global ||__pruabi_divu||
    4591;*****************************************************************************
    4592;* SECTION GROUPS                                                            *
    4593;*****************************************************************************
    4594        .group    "SPI_AutoIdleConfig", 1
    4595        .gmember  ".text:SPI_AutoIdleConfig"
    4596        .endgroup
    4597        .group    "SPI_CSAssert", 1
    4598        .gmember  ".text:SPI_CSAssert"
    4599        .endgroup
    4600        .group    "SPI_CSDeAssert", 1
    4601        .gmember  ".text:SPI_CSDeAssert"
    4602        .endgroup
    4603        .group    "SPI_CSPolarityConfig", 1
    4604        .gmember  ".text:SPI_CSPolarityConfig"
    4605        .endgroup
    4606        .group    "SPI_CSTimeControlSet", 1
    4607        .gmember  ".text:SPI_CSTimeControlSet"
    4608        .endgroup
    4609        .group    "SPI_ChannelSet", 1
    4610        .gmember  ".text:SPI_ChannelSet"
    4611        .endgroup
    4612        .group    "SPI_ChannelStatusGet", 1
    4613        .gmember  ".text:SPI_ChannelStatusGet"
    4614        .endgroup
    4615        .group    "SPI_ClkActivityConfig", 1
    4616        .gmember  ".text:SPI_ClkActivityConfig"
    4617        .endgroup
    4618        .group    "SPI_DMASet", 1
    4619        .gmember  ".text:SPI_DMASet"
    4620        .endgroup
    4621        .group    "SPI_DataPinDirectionConfig", 1
    4622        .gmember  ".text:SPI_DataPinDirectionConfig"
    4623        .endgroup
    4624        .group    "SPI_FIFODatSet", 1
    4625        .gmember  ".text:SPI_FIFODatSet"
    4626        .endgroup
    4627        .group    "SPI_InitDelayConfig", 1
    4628        .gmember  ".text:SPI_InitDelayConfig"
    4629        .endgroup
    4630        .group    "SPI_IntSet", 1
    4631        .gmember  ".text:SPI_IntSet"
    4632        .endgroup
    4633        .group    "SPI_IntStatusClear", 1
    4634        .gmember  ".text:SPI_IntStatusClear"
    4635        .endgroup
    4636        .group    "SPI_IntStatusGet", 1
    4637        .gmember  ".text:SPI_IntStatusGet"
    4638        .endgroup
    4639        .group    "SPI_MasterModeEnable", 1
    4640        .gmember  ".text:SPI_MasterModeEnable"
    4641        .endgroup
    4642        .group    "SPI_MultiWordAccessConfig", 1
    4643        .gmember  ".text:SPI_MultiWordAccessConfig"
PRU Assembler Unix v2.1.2 Thu Jan 28 12:38:40 2016

Tools Copyright (c) 2012-2015 Texas Instruments Incorporated
spi.asm                                                              PAGE   86

    4644        .endgroup
    4645        .group    "SPI_ReceiveData", 1
    4646        .gmember  ".text:SPI_ReceiveData"
    4647        .endgroup
    4648        .group    "SPI_Reset", 1
    4649        .gmember  ".text:SPI_Reset"
    4650        .endgroup
    4651        .group    "SPI_RxFIFOConfig", 1
    4652        .gmember  ".text:SPI_RxFIFOConfig"
    4653        .endgroup
    4654        .group    "SPI_SlaveModeEnable", 1
    4655        .gmember  ".text:SPI_SlaveModeEnable"
    4656        .endgroup
    4657        .group    "SPI_SlaveSelect", 1
    4658        .gmember  ".text:SPI_SlaveSelect"
    4659        .endgroup
    4660        .group    "SPI_SmartIdleConfig", 1
    4661        .gmember  ".text:SPI_SmartIdleConfig"
    4662        .endgroup
    4663        .group    "SPI_StartBitDisable", 1
    4664        .gmember  ".text:SPI_StartBitDisable"
    4665        .endgroup
    4666        .group    "SPI_StartBitEnable", 1
    4667        .gmember  ".text:SPI_StartBitEnable"
    4668        .endgroup
    4669        .group    "SPI_StartBitPolarityConfig", 1
    4670        .gmember  ".text:SPI_StartBitPolarityConfig"
    4671        .endgroup
    4672        .group    "SPI_SysTestModeConfig", 1
    4673        .gmember  ".text:SPI_SysTestModeConfig"
    4674        .endgroup
    4675        .group    "SPI_TransmitData", 1
    4676        .gmember  ".text:SPI_TransmitData"
    4677        .endgroup
    4678        .group    "SPI_TurboModeSet", 1
    4679        .gmember  ".text:SPI_TurboModeSet"
    4680        .endgroup
    4681        .group    "SPI_TxFIFOConfig", 1
    4682        .gmember  ".text:SPI_TxFIFOConfig"
    4683        .endgroup
    4684        .group    "SPI_WordCountSet", 1
    4685        .gmember  ".text:SPI_WordCountSet"
    4686        .endgroup
    4687        .group    "SPI_WordLengthSet", 1
    4688        .gmember  ".text:SPI_WordLengthSet"
    4689        .endgroup
    4690
    4691
    4692;******************************************************************************
    4693;* TYPE INFORMATION                                                           *
    4694;******************************************************************************
    4695$C$DW$T$2       .dwtag  DW_TAG_unspecified_type
    4696        .dwattr $C$DW$T$2, DW_AT_name("void")
    4697$C$DW$T$4       .dwtag  DW_TAG_base_type
    4698        .dwattr $C$DW$T$4, DW_AT_encoding(DW_ATE_boolean)
PRU Assembler Unix v2.1.2 Thu Jan 28 12:38:40 2016

Tools Copyright (c) 2012-2015 Texas Instruments Incorporated
spi.asm                                                              PAGE   87

    4699        .dwattr $C$DW$T$4, DW_AT_name("bool")
    4700        .dwattr $C$DW$T$4, DW_AT_byte_size(0x01)
    4701$C$DW$T$5       .dwtag  DW_TAG_base_type
    4702        .dwattr $C$DW$T$5, DW_AT_encoding(DW_ATE_signed_char)
    4703        .dwattr $C$DW$T$5, DW_AT_name("signed char")
    4704        .dwattr $C$DW$T$5, DW_AT_byte_size(0x01)
    4705$C$DW$T$6       .dwtag  DW_TAG_base_type
    4706        .dwattr $C$DW$T$6, DW_AT_encoding(DW_ATE_unsigned_char)
    4707        .dwattr $C$DW$T$6, DW_AT_name("unsigned char")
    4708        .dwattr $C$DW$T$6, DW_AT_byte_size(0x01)
    4709$C$DW$T$7       .dwtag  DW_TAG_base_type
    4710        .dwattr $C$DW$T$7, DW_AT_encoding(DW_ATE_signed_char)
    4711        .dwattr $C$DW$T$7, DW_AT_name("wchar_t")
    4712        .dwattr $C$DW$T$7, DW_AT_byte_size(0x04)
    4713$C$DW$T$8       .dwtag  DW_TAG_base_type
    4714        .dwattr $C$DW$T$8, DW_AT_encoding(DW_ATE_signed)
    4715        .dwattr $C$DW$T$8, DW_AT_name("short")
    4716        .dwattr $C$DW$T$8, DW_AT_byte_size(0x02)
    4717$C$DW$T$9       .dwtag  DW_TAG_base_type
    4718        .dwattr $C$DW$T$9, DW_AT_encoding(DW_ATE_unsigned)
    4719        .dwattr $C$DW$T$9, DW_AT_name("unsigned short")
    4720        .dwattr $C$DW$T$9, DW_AT_byte_size(0x02)
    4721$C$DW$T$10      .dwtag  DW_TAG_base_type
    4722        .dwattr $C$DW$T$10, DW_AT_encoding(DW_ATE_signed)
    4723        .dwattr $C$DW$T$10, DW_AT_name("int")
    4724        .dwattr $C$DW$T$10, DW_AT_byte_size(0x04)
    4725$C$DW$T$11      .dwtag  DW_TAG_base_type
    4726        .dwattr $C$DW$T$11, DW_AT_encoding(DW_ATE_unsigned)
    4727        .dwattr $C$DW$T$11, DW_AT_name("unsigned int")
    4728        .dwattr $C$DW$T$11, DW_AT_byte_size(0x04)
    4729$C$DW$T$19      .dwtag  DW_TAG_typedef, DW_AT_name("uint32_t")
    4730        .dwattr $C$DW$T$19, DW_AT_type(*$C$DW$T$11)
    4731        .dwattr $C$DW$T$19, DW_AT_language(DW_LANG_C)
    4732        .dwattr $C$DW$T$19, DW_AT_decl_file("/opt/ti/ccsv6/tools/compiler/ti-cgt-pru_2.1.2/include/std
    4733        .dwattr $C$DW$T$19, DW_AT_decl_line(0x2f)
    4734        .dwattr $C$DW$T$19, DW_AT_decl_column(0x1c)
    4735$C$DW$T$31      .dwtag  DW_TAG_pointer_type
    4736        .dwattr $C$DW$T$31, DW_AT_type(*$C$DW$T$19)
    4737        .dwattr $C$DW$T$31, DW_AT_address_class(0x20)
    4738$C$DW$T$12      .dwtag  DW_TAG_base_type
    4739        .dwattr $C$DW$T$12, DW_AT_encoding(DW_ATE_signed)
    4740        .dwattr $C$DW$T$12, DW_AT_name("long")
    4741        .dwattr $C$DW$T$12, DW_AT_byte_size(0x04)
    4742$C$DW$T$13      .dwtag  DW_TAG_base_type
    4743        .dwattr $C$DW$T$13, DW_AT_encoding(DW_ATE_unsigned)
    4744        .dwattr $C$DW$T$13, DW_AT_name("unsigned long")
    4745        .dwattr $C$DW$T$13, DW_AT_byte_size(0x04)
    4746$C$DW$T$14      .dwtag  DW_TAG_base_type
    4747        .dwattr $C$DW$T$14, DW_AT_encoding(DW_ATE_signed)
    4748        .dwattr $C$DW$T$14, DW_AT_name("long long")
    4749        .dwattr $C$DW$T$14, DW_AT_byte_size(0x08)
    4750$C$DW$T$15      .dwtag  DW_TAG_base_type
    4751        .dwattr $C$DW$T$15, DW_AT_encoding(DW_ATE_unsigned)
    4752        .dwattr $C$DW$T$15, DW_AT_name("unsigned long long")
    4753        .dwattr $C$DW$T$15, DW_AT_byte_size(0x08)
PRU Assembler Unix v2.1.2 Thu Jan 28 12:38:40 2016

Tools Copyright (c) 2012-2015 Texas Instruments Incorporated
spi.asm                                                              PAGE   88

    4754$C$DW$T$16      .dwtag  DW_TAG_base_type
    4755        .dwattr $C$DW$T$16, DW_AT_encoding(DW_ATE_float)
    4756        .dwattr $C$DW$T$16, DW_AT_name("float")
    4757        .dwattr $C$DW$T$16, DW_AT_byte_size(0x04)
    4758$C$DW$T$17      .dwtag  DW_TAG_base_type
    4759        .dwattr $C$DW$T$17, DW_AT_encoding(DW_ATE_float)
    4760        .dwattr $C$DW$T$17, DW_AT_name("double")
    4761        .dwattr $C$DW$T$17, DW_AT_byte_size(0x08)
    4762$C$DW$T$18      .dwtag  DW_TAG_base_type
    4763        .dwattr $C$DW$T$18, DW_AT_encoding(DW_ATE_float)
    4764        .dwattr $C$DW$T$18, DW_AT_name("long double")
    4765        .dwattr $C$DW$T$18, DW_AT_byte_size(0x08)
    4766        .dwattr $C$DW$CU, DW_AT_language(DW_LANG_C)
    4767
    4768;***************************************************************
    4769;* DWARF CIE ENTRIES                                           *
    4770;***************************************************************
    4771
    4772$C$DW$CIE       .dwcie 14
    4773        .dwcfi  cfa_register, 8
    4774        .dwcfi  cfa_offset, 0
    4775        .dwcfi  undefined, 0
    4776        .dwcfi  undefined, 1
    4777        .dwcfi  undefined, 2
    4778        .dwcfi  undefined, 3
    4779        .dwcfi  undefined, 4
    4780        .dwcfi  undefined, 5
    4781        .dwcfi  undefined, 6
    4782        .dwcfi  undefined, 7
    4783        .dwcfi  same_value, 8
    4784        .dwcfi  same_value, 9
    4785        .dwcfi  same_value, 10
    4786        .dwcfi  same_value, 11
    4787        .dwcfi  undefined, 12
    4788        .dwcfi  undefined, 13
    4789        .dwcfi  undefined, 14
    4790        .dwcfi  undefined, 15
    4791        .dwcfi  same_value, 16
    4792        .dwcfi  same_value, 17
    4793        .dwcfi  same_value, 18
    4794        .dwcfi  same_value, 19
    4795        .dwcfi  same_value, 20
    4796        .dwcfi  same_value, 21
    4797        .dwcfi  same_value, 22
    4798        .dwcfi  same_value, 23
    4799        .dwcfi  same_value, 24
    4800        .dwcfi  same_value, 25
    4801        .dwcfi  same_value, 26
    4802        .dwcfi  same_value, 27
    4803        .dwcfi  same_value, 28
    4804        .dwcfi  same_value, 29
    4805        .dwcfi  same_value, 30
    4806        .dwcfi  same_value, 31
    4807        .dwcfi  same_value, 32
    4808        .dwcfi  same_value, 33
PRU Assembler Unix v2.1.2 Thu Jan 28 12:38:40 2016

Tools Copyright (c) 2012-2015 Texas Instruments Incorporated
spi.asm                                                              PAGE   89

    4809        .dwcfi  same_value, 34
    4810        .dwcfi  same_value, 35
    4811        .dwcfi  same_value, 36
    4812        .dwcfi  same_value, 37
    4813        .dwcfi  same_value, 38
    4814        .dwcfi  same_value, 39
    4815        .dwcfi  same_value, 40
    4816        .dwcfi  same_value, 41
    4817        .dwcfi  same_value, 42
    4818        .dwcfi  same_value, 43
    4819        .dwcfi  same_value, 44
    4820        .dwcfi  same_value, 45
    4821        .dwcfi  same_value, 46
    4822        .dwcfi  same_value, 47
    4823        .dwcfi  same_value, 48
    4824        .dwcfi  same_value, 49
    4825        .dwcfi  same_value, 50
    4826        .dwcfi  same_value, 51
    4827        .dwcfi  same_value, 52
    4828        .dwcfi  same_value, 53
    4829        .dwcfi  same_value, 54
    4830        .dwcfi  same_value, 55
    4831        .dwcfi  undefined, 56
    4832        .dwcfi  undefined, 57
    4833        .dwcfi  undefined, 58
    4834        .dwcfi  undefined, 59
    4835        .dwcfi  undefined, 60
    4836        .dwcfi  undefined, 61
    4837        .dwcfi  undefined, 62
    4838        .dwcfi  undefined, 63
    4839        .dwcfi  undefined, 64
    4840        .dwcfi  undefined, 65
    4841        .dwcfi  undefined, 66
    4842        .dwcfi  undefined, 67
    4843        .dwcfi  undefined, 68
    4844        .dwcfi  undefined, 69
    4845        .dwcfi  undefined, 70
    4846        .dwcfi  undefined, 71
    4847        .dwcfi  undefined, 72
    4848        .dwcfi  undefined, 73
    4849        .dwcfi  undefined, 74
    4850        .dwcfi  undefined, 75
    4851        .dwcfi  undefined, 76
    4852        .dwcfi  undefined, 77
    4853        .dwcfi  undefined, 78
    4854        .dwcfi  undefined, 79
    4855        .dwcfi  undefined, 80
    4856        .dwcfi  undefined, 81
    4857        .dwcfi  undefined, 82
    4858        .dwcfi  undefined, 83
    4859        .dwcfi  undefined, 84
    4860        .dwcfi  undefined, 85
    4861        .dwcfi  undefined, 86
    4862        .dwcfi  undefined, 87
    4863        .dwcfi  undefined, 88
PRU Assembler Unix v2.1.2 Thu Jan 28 12:38:40 2016

Tools Copyright (c) 2012-2015 Texas Instruments Incorporated
spi.asm                                                              PAGE   90

    4864        .dwcfi  undefined, 89
    4865        .dwcfi  undefined, 90
    4866        .dwcfi  undefined, 91
    4867        .dwcfi  undefined, 92
    4868        .dwcfi  undefined, 93
    4869        .dwcfi  undefined, 94
    4870        .dwcfi  undefined, 95
    4871        .dwcfi  undefined, 96
    4872        .dwcfi  undefined, 97
    4873        .dwcfi  undefined, 98
    4874        .dwcfi  undefined, 99
    4875        .dwcfi  undefined, 100
    4876        .dwcfi  undefined, 101
    4877        .dwcfi  undefined, 102
    4878        .dwcfi  undefined, 103
    4879        .dwcfi  undefined, 104
    4880        .dwcfi  undefined, 105
    4881        .dwcfi  undefined, 106
    4882        .dwcfi  undefined, 107
    4883        .dwcfi  undefined, 108
    4884        .dwcfi  undefined, 109
    4885        .dwcfi  undefined, 110
    4886        .dwcfi  undefined, 111
    4887        .dwcfi  undefined, 112
    4888        .dwcfi  undefined, 113
    4889        .dwcfi  undefined, 114
    4890        .dwcfi  undefined, 115
    4891        .dwcfi  undefined, 116
    4892        .dwcfi  undefined, 117
    4893        .dwcfi  undefined, 118
    4894        .dwcfi  undefined, 119
    4895        .dwcfi  undefined, 120
    4896        .dwcfi  undefined, 121
    4897        .dwcfi  undefined, 122
    4898        .dwcfi  undefined, 123
    4899        .dwcfi  undefined, 124
    4900        .dwcfi  undefined, 125
    4901        .dwcfi  undefined, 126
    4902        .dwcfi  undefined, 127
    4903        .dwcfi  undefined, 128
    4904        .dwcfi  undefined, 129
    4905        .dwcfi  undefined, 130
    4906        .dwcfi  undefined, 131
    4907        .dwcfi  undefined, 132
    4908        .dwcfi  undefined, 133
    4909        .dwcfi  undefined, 134
    4910        .dwendentry
    4911
    4912;***************************************************************
    4913;* DWARF REGISTER MAP                                          *
    4914;***************************************************************
    4915
    4916$C$DW$313       .dwtag  DW_TAG_TI_assign_register, DW_AT_name("R0_b0")
    4917        .dwattr $C$DW$313, DW_AT_location[DW_OP_reg0]
    4918$C$DW$314       .dwtag  DW_TAG_TI_assign_register, DW_AT_name("R0_b1")
PRU Assembler Unix v2.1.2 Thu Jan 28 12:38:40 2016

Tools Copyright (c) 2012-2015 Texas Instruments Incorporated
spi.asm                                                              PAGE   91

    4919        .dwattr $C$DW$314, DW_AT_location[DW_OP_reg1]
    4920$C$DW$315       .dwtag  DW_TAG_TI_assign_register, DW_AT_name("R0_b2")
    4921        .dwattr $C$DW$315, DW_AT_location[DW_OP_reg2]
    4922$C$DW$316       .dwtag  DW_TAG_TI_assign_register, DW_AT_name("R0_b3")
    4923        .dwattr $C$DW$316, DW_AT_location[DW_OP_reg3]
    4924$C$DW$317       .dwtag  DW_TAG_TI_assign_register, DW_AT_name("R1_b0")
    4925        .dwattr $C$DW$317, DW_AT_location[DW_OP_reg4]
    4926$C$DW$318       .dwtag  DW_TAG_TI_assign_register, DW_AT_name("R1_b1")
    4927        .dwattr $C$DW$318, DW_AT_location[DW_OP_reg5]
    4928$C$DW$319       .dwtag  DW_TAG_TI_assign_register, DW_AT_name("R1_b2")
    4929        .dwattr $C$DW$319, DW_AT_location[DW_OP_reg6]
    4930$C$DW$320       .dwtag  DW_TAG_TI_assign_register, DW_AT_name("R1_b3")
    4931        .dwattr $C$DW$320, DW_AT_location[DW_OP_reg7]
    4932$C$DW$321       .dwtag  DW_TAG_TI_assign_register, DW_AT_name("R2_b0")
    4933        .dwattr $C$DW$321, DW_AT_location[DW_OP_reg8]
    4934$C$DW$322       .dwtag  DW_TAG_TI_assign_register, DW_AT_name("R2_b1")
    4935        .dwattr $C$DW$322, DW_AT_location[DW_OP_reg9]
    4936$C$DW$323       .dwtag  DW_TAG_TI_assign_register, DW_AT_name("R2_b2")
    4937        .dwattr $C$DW$323, DW_AT_location[DW_OP_reg10]
    4938$C$DW$324       .dwtag  DW_TAG_TI_assign_register, DW_AT_name("R2_b3")
    4939        .dwattr $C$DW$324, DW_AT_location[DW_OP_reg11]
    4940$C$DW$325       .dwtag  DW_TAG_TI_assign_register, DW_AT_name("R3_b0")
    4941        .dwattr $C$DW$325, DW_AT_location[DW_OP_reg12]
    4942$C$DW$326       .dwtag  DW_TAG_TI_assign_register, DW_AT_name("R3_b1")
    4943        .dwattr $C$DW$326, DW_AT_location[DW_OP_reg13]
    4944$C$DW$327       .dwtag  DW_TAG_TI_assign_register, DW_AT_name("R3_b2")
    4945        .dwattr $C$DW$327, DW_AT_location[DW_OP_reg14]
    4946$C$DW$328       .dwtag  DW_TAG_TI_assign_register, DW_AT_name("R3_b3")
    4947        .dwattr $C$DW$328, DW_AT_location[DW_OP_reg15]
    4948$C$DW$329       .dwtag  DW_TAG_TI_assign_register, DW_AT_name("R4_b0")
    4949        .dwattr $C$DW$329, DW_AT_location[DW_OP_reg16]
    4950$C$DW$330       .dwtag  DW_TAG_TI_assign_register, DW_AT_name("R4_b1")
    4951        .dwattr $C$DW$330, DW_AT_location[DW_OP_reg17]
    4952$C$DW$331       .dwtag  DW_TAG_TI_assign_register, DW_AT_name("R4_b2")
    4953        .dwattr $C$DW$331, DW_AT_location[DW_OP_reg18]
    4954$C$DW$332       .dwtag  DW_TAG_TI_assign_register, DW_AT_name("R4_b3")
    4955        .dwattr $C$DW$332, DW_AT_location[DW_OP_reg19]
    4956$C$DW$333       .dwtag  DW_TAG_TI_assign_register, DW_AT_name("R5_b0")
    4957        .dwattr $C$DW$333, DW_AT_location[DW_OP_reg20]
    4958$C$DW$334       .dwtag  DW_TAG_TI_assign_register, DW_AT_name("R5_b1")
    4959        .dwattr $C$DW$334, DW_AT_location[DW_OP_reg21]
    4960$C$DW$335       .dwtag  DW_TAG_TI_assign_register, DW_AT_name("R5_b2")
    4961        .dwattr $C$DW$335, DW_AT_location[DW_OP_reg22]
    4962$C$DW$336       .dwtag  DW_TAG_TI_assign_register, DW_AT_name("R5_b3")
    4963        .dwattr $C$DW$336, DW_AT_location[DW_OP_reg23]
    4964$C$DW$337       .dwtag  DW_TAG_TI_assign_register, DW_AT_name("R6_b0")
    4965        .dwattr $C$DW$337, DW_AT_location[DW_OP_reg24]
    4966$C$DW$338       .dwtag  DW_TAG_TI_assign_register, DW_AT_name("R6_b1")
    4967        .dwattr $C$DW$338, DW_AT_location[DW_OP_reg25]
    4968$C$DW$339       .dwtag  DW_TAG_TI_assign_register, DW_AT_name("R6_b2")
    4969        .dwattr $C$DW$339, DW_AT_location[DW_OP_reg26]
    4970$C$DW$340       .dwtag  DW_TAG_TI_assign_register, DW_AT_name("R6_b3")
    4971        .dwattr $C$DW$340, DW_AT_location[DW_OP_reg27]
    4972$C$DW$341       .dwtag  DW_TAG_TI_assign_register, DW_AT_name("R7_b0")
    4973        .dwattr $C$DW$341, DW_AT_location[DW_OP_reg28]
PRU Assembler Unix v2.1.2 Thu Jan 28 12:38:40 2016

Tools Copyright (c) 2012-2015 Texas Instruments Incorporated
spi.asm                                                              PAGE   92

    4974$C$DW$342       .dwtag  DW_TAG_TI_assign_register, DW_AT_name("R7_b1")
    4975        .dwattr $C$DW$342, DW_AT_location[DW_OP_reg29]
    4976$C$DW$343       .dwtag  DW_TAG_TI_assign_register, DW_AT_name("R7_b2")
    4977        .dwattr $C$DW$343, DW_AT_location[DW_OP_reg30]
    4978$C$DW$344       .dwtag  DW_TAG_TI_assign_register, DW_AT_name("R7_b3")
    4979        .dwattr $C$DW$344, DW_AT_location[DW_OP_reg31]
    4980$C$DW$345       .dwtag  DW_TAG_TI_assign_register, DW_AT_name("R8_b0")
    4981        .dwattr $C$DW$345, DW_AT_location[DW_OP_regx 0x20]
    4982$C$DW$346       .dwtag  DW_TAG_TI_assign_register, DW_AT_name("R8_b1")
    4983        .dwattr $C$DW$346, DW_AT_location[DW_OP_regx 0x21]
    4984$C$DW$347       .dwtag  DW_TAG_TI_assign_register, DW_AT_name("R8_b2")
    4985        .dwattr $C$DW$347, DW_AT_location[DW_OP_regx 0x22]
    4986$C$DW$348       .dwtag  DW_TAG_TI_assign_register, DW_AT_name("R8_b3")
    4987        .dwattr $C$DW$348, DW_AT_location[DW_OP_regx 0x23]
    4988$C$DW$349       .dwtag  DW_TAG_TI_assign_register, DW_AT_name("R9_b0")
    4989        .dwattr $C$DW$349, DW_AT_location[DW_OP_regx 0x24]
    4990$C$DW$350       .dwtag  DW_TAG_TI_assign_register, DW_AT_name("R9_b1")
    4991        .dwattr $C$DW$350, DW_AT_location[DW_OP_regx 0x25]
    4992$C$DW$351       .dwtag  DW_TAG_TI_assign_register, DW_AT_name("R9_b2")
    4993        .dwattr $C$DW$351, DW_AT_location[DW_OP_regx 0x26]
    4994$C$DW$352       .dwtag  DW_TAG_TI_assign_register, DW_AT_name("R9_b3")
    4995        .dwattr $C$DW$352, DW_AT_location[DW_OP_regx 0x27]
    4996$C$DW$353       .dwtag  DW_TAG_TI_assign_register, DW_AT_name("R10_b0")
    4997        .dwattr $C$DW$353, DW_AT_location[DW_OP_regx 0x28]
    4998$C$DW$354       .dwtag  DW_TAG_TI_assign_register, DW_AT_name("R10_b1")
    4999        .dwattr $C$DW$354, DW_AT_location[DW_OP_regx 0x29]
    5000$C$DW$355       .dwtag  DW_TAG_TI_assign_register, DW_AT_name("R10_b2")
    5001        .dwattr $C$DW$355, DW_AT_location[DW_OP_regx 0x2a]
    5002$C$DW$356       .dwtag  DW_TAG_TI_assign_register, DW_AT_name("R10_b3")
    5003        .dwattr $C$DW$356, DW_AT_location[DW_OP_regx 0x2b]
    5004$C$DW$357       .dwtag  DW_TAG_TI_assign_register, DW_AT_name("R11_b0")
    5005        .dwattr $C$DW$357, DW_AT_location[DW_OP_regx 0x2c]
    5006$C$DW$358       .dwtag  DW_TAG_TI_assign_register, DW_AT_name("R11_b1")
    5007        .dwattr $C$DW$358, DW_AT_location[DW_OP_regx 0x2d]
    5008$C$DW$359       .dwtag  DW_TAG_TI_assign_register, DW_AT_name("R11_b2")
    5009        .dwattr $C$DW$359, DW_AT_location[DW_OP_regx 0x2e]
    5010$C$DW$360       .dwtag  DW_TAG_TI_assign_register, DW_AT_name("R11_b3")
    5011        .dwattr $C$DW$360, DW_AT_location[DW_OP_regx 0x2f]
    5012$C$DW$361       .dwtag  DW_TAG_TI_assign_register, DW_AT_name("R12_b0")
    5013        .dwattr $C$DW$361, DW_AT_location[DW_OP_regx 0x30]
    5014$C$DW$362       .dwtag  DW_TAG_TI_assign_register, DW_AT_name("R12_b1")
    5015        .dwattr $C$DW$362, DW_AT_location[DW_OP_regx 0x31]
    5016$C$DW$363       .dwtag  DW_TAG_TI_assign_register, DW_AT_name("R12_b2")
    5017        .dwattr $C$DW$363, DW_AT_location[DW_OP_regx 0x32]
    5018$C$DW$364       .dwtag  DW_TAG_TI_assign_register, DW_AT_name("R12_b3")
    5019        .dwattr $C$DW$364, DW_AT_location[DW_OP_regx 0x33]
    5020$C$DW$365       .dwtag  DW_TAG_TI_assign_register, DW_AT_name("R13_b0")
    5021        .dwattr $C$DW$365, DW_AT_location[DW_OP_regx 0x34]
    5022$C$DW$366       .dwtag  DW_TAG_TI_assign_register, DW_AT_name("R13_b1")
    5023        .dwattr $C$DW$366, DW_AT_location[DW_OP_regx 0x35]
    5024$C$DW$367       .dwtag  DW_TAG_TI_assign_register, DW_AT_name("R13_b2")
    5025        .dwattr $C$DW$367, DW_AT_location[DW_OP_regx 0x36]
    5026$C$DW$368       .dwtag  DW_TAG_TI_assign_register, DW_AT_name("R13_b3")
    5027        .dwattr $C$DW$368, DW_AT_location[DW_OP_regx 0x37]
    5028$C$DW$369       .dwtag  DW_TAG_TI_assign_register, DW_AT_name("R14_b0")
PRU Assembler Unix v2.1.2 Thu Jan 28 12:38:40 2016

Tools Copyright (c) 2012-2015 Texas Instruments Incorporated
spi.asm                                                              PAGE   93

    5029        .dwattr $C$DW$369, DW_AT_location[DW_OP_regx 0x38]
    5030$C$DW$370       .dwtag  DW_TAG_TI_assign_register, DW_AT_name("R14_b1")
    5031        .dwattr $C$DW$370, DW_AT_location[DW_OP_regx 0x39]
    5032$C$DW$371       .dwtag  DW_TAG_TI_assign_register, DW_AT_name("R14_b2")
    5033        .dwattr $C$DW$371, DW_AT_location[DW_OP_regx 0x3a]
    5034$C$DW$372       .dwtag  DW_TAG_TI_assign_register, DW_AT_name("R14_b3")
    5035        .dwattr $C$DW$372, DW_AT_location[DW_OP_regx 0x3b]
    5036$C$DW$373       .dwtag  DW_TAG_TI_assign_register, DW_AT_name("R15_b0")
    5037        .dwattr $C$DW$373, DW_AT_location[DW_OP_regx 0x3c]
    5038$C$DW$374       .dwtag  DW_TAG_TI_assign_register, DW_AT_name("R15_b1")
    5039        .dwattr $C$DW$374, DW_AT_location[DW_OP_regx 0x3d]
    5040$C$DW$375       .dwtag  DW_TAG_TI_assign_register, DW_AT_name("R15_b2")
    5041        .dwattr $C$DW$375, DW_AT_location[DW_OP_regx 0x3e]
    5042$C$DW$376       .dwtag  DW_TAG_TI_assign_register, DW_AT_name("R15_b3")
    5043        .dwattr $C$DW$376, DW_AT_location[DW_OP_regx 0x3f]
    5044$C$DW$377       .dwtag  DW_TAG_TI_assign_register, DW_AT_name("R16_b0")
    5045        .dwattr $C$DW$377, DW_AT_location[DW_OP_regx 0x40]
    5046$C$DW$378       .dwtag  DW_TAG_TI_assign_register, DW_AT_name("R16_b1")
    5047        .dwattr $C$DW$378, DW_AT_location[DW_OP_regx 0x41]
    5048$C$DW$379       .dwtag  DW_TAG_TI_assign_register, DW_AT_name("R16_b2")
    5049        .dwattr $C$DW$379, DW_AT_location[DW_OP_regx 0x42]
    5050$C$DW$380       .dwtag  DW_TAG_TI_assign_register, DW_AT_name("R16_b3")
    5051        .dwattr $C$DW$380, DW_AT_location[DW_OP_regx 0x43]
    5052$C$DW$381       .dwtag  DW_TAG_TI_assign_register, DW_AT_name("R17_b0")
    5053        .dwattr $C$DW$381, DW_AT_location[DW_OP_regx 0x44]
    5054$C$DW$382       .dwtag  DW_TAG_TI_assign_register, DW_AT_name("R17_b1")
    5055        .dwattr $C$DW$382, DW_AT_location[DW_OP_regx 0x45]
    5056$C$DW$383       .dwtag  DW_TAG_TI_assign_register, DW_AT_name("R17_b2")
    5057        .dwattr $C$DW$383, DW_AT_location[DW_OP_regx 0x46]
    5058$C$DW$384       .dwtag  DW_TAG_TI_assign_register, DW_AT_name("R17_b3")
    5059        .dwattr $C$DW$384, DW_AT_location[DW_OP_regx 0x47]
    5060$C$DW$385       .dwtag  DW_TAG_TI_assign_register, DW_AT_name("R18_b0")
    5061        .dwattr $C$DW$385, DW_AT_location[DW_OP_regx 0x48]
    5062$C$DW$386       .dwtag  DW_TAG_TI_assign_register, DW_AT_name("R18_b1")
    5063        .dwattr $C$DW$386, DW_AT_location[DW_OP_regx 0x49]
    5064$C$DW$387       .dwtag  DW_TAG_TI_assign_register, DW_AT_name("R18_b2")
    5065        .dwattr $C$DW$387, DW_AT_location[DW_OP_regx 0x4a]
    5066$C$DW$388       .dwtag  DW_TAG_TI_assign_register, DW_AT_name("R18_b3")
    5067        .dwattr $C$DW$388, DW_AT_location[DW_OP_regx 0x4b]
    5068$C$DW$389       .dwtag  DW_TAG_TI_assign_register, DW_AT_name("R19_b0")
    5069        .dwattr $C$DW$389, DW_AT_location[DW_OP_regx 0x4c]
    5070$C$DW$390       .dwtag  DW_TAG_TI_assign_register, DW_AT_name("R19_b1")
    5071        .dwattr $C$DW$390, DW_AT_location[DW_OP_regx 0x4d]
    5072$C$DW$391       .dwtag  DW_TAG_TI_assign_register, DW_AT_name("R19_b2")
    5073        .dwattr $C$DW$391, DW_AT_location[DW_OP_regx 0x4e]
    5074$C$DW$392       .dwtag  DW_TAG_TI_assign_register, DW_AT_name("R19_b3")
    5075        .dwattr $C$DW$392, DW_AT_location[DW_OP_regx 0x4f]
    5076$C$DW$393       .dwtag  DW_TAG_TI_assign_register, DW_AT_name("R20_b0")
    5077        .dwattr $C$DW$393, DW_AT_location[DW_OP_regx 0x50]
    5078$C$DW$394       .dwtag  DW_TAG_TI_assign_register, DW_AT_name("R20_b1")
    5079        .dwattr $C$DW$394, DW_AT_location[DW_OP_regx 0x51]
    5080$C$DW$395       .dwtag  DW_TAG_TI_assign_register, DW_AT_name("R20_b2")
    5081        .dwattr $C$DW$395, DW_AT_location[DW_OP_regx 0x52]
    5082$C$DW$396       .dwtag  DW_TAG_TI_assign_register, DW_AT_name("R20_b3")
    5083        .dwattr $C$DW$396, DW_AT_location[DW_OP_regx 0x53]
PRU Assembler Unix v2.1.2 Thu Jan 28 12:38:40 2016

Tools Copyright (c) 2012-2015 Texas Instruments Incorporated
spi.asm                                                              PAGE   94

    5084$C$DW$397       .dwtag  DW_TAG_TI_assign_register, DW_AT_name("R21_b0")
    5085        .dwattr $C$DW$397, DW_AT_location[DW_OP_regx 0x54]
    5086$C$DW$398       .dwtag  DW_TAG_TI_assign_register, DW_AT_name("R21_b1")
    5087        .dwattr $C$DW$398, DW_AT_location[DW_OP_regx 0x55]
    5088$C$DW$399       .dwtag  DW_TAG_TI_assign_register, DW_AT_name("R21_b2")
    5089        .dwattr $C$DW$399, DW_AT_location[DW_OP_regx 0x56]
    5090$C$DW$400       .dwtag  DW_TAG_TI_assign_register, DW_AT_name("R21_b3")
    5091        .dwattr $C$DW$400, DW_AT_location[DW_OP_regx 0x57]
    5092$C$DW$401       .dwtag  DW_TAG_TI_assign_register, DW_AT_name("R22_b0")
    5093        .dwattr $C$DW$401, DW_AT_location[DW_OP_regx 0x58]
    5094$C$DW$402       .dwtag  DW_TAG_TI_assign_register, DW_AT_name("R22_b1")
    5095        .dwattr $C$DW$402, DW_AT_location[DW_OP_regx 0x59]
    5096$C$DW$403       .dwtag  DW_TAG_TI_assign_register, DW_AT_name("R22_b2")
    5097        .dwattr $C$DW$403, DW_AT_location[DW_OP_regx 0x5a]
    5098$C$DW$404       .dwtag  DW_TAG_TI_assign_register, DW_AT_name("R22_b3")
    5099        .dwattr $C$DW$404, DW_AT_location[DW_OP_regx 0x5b]
    5100$C$DW$405       .dwtag  DW_TAG_TI_assign_register, DW_AT_name("R23_b0")
    5101        .dwattr $C$DW$405, DW_AT_location[DW_OP_regx 0x5c]
    5102$C$DW$406       .dwtag  DW_TAG_TI_assign_register, DW_AT_name("R23_b1")
    5103        .dwattr $C$DW$406, DW_AT_location[DW_OP_regx 0x5d]
    5104$C$DW$407       .dwtag  DW_TAG_TI_assign_register, DW_AT_name("R23_b2")
    5105        .dwattr $C$DW$407, DW_AT_location[DW_OP_regx 0x5e]
    5106$C$DW$408       .dwtag  DW_TAG_TI_assign_register, DW_AT_name("R23_b3")
    5107        .dwattr $C$DW$408, DW_AT_location[DW_OP_regx 0x5f]
    5108$C$DW$409       .dwtag  DW_TAG_TI_assign_register, DW_AT_name("R24_b0")
    5109        .dwattr $C$DW$409, DW_AT_location[DW_OP_regx 0x60]
    5110$C$DW$410       .dwtag  DW_TAG_TI_assign_register, DW_AT_name("R24_b1")
    5111        .dwattr $C$DW$410, DW_AT_location[DW_OP_regx 0x61]
    5112$C$DW$411       .dwtag  DW_TAG_TI_assign_register, DW_AT_name("R24_b2")
    5113        .dwattr $C$DW$411, DW_AT_location[DW_OP_regx 0x62]
    5114$C$DW$412       .dwtag  DW_TAG_TI_assign_register, DW_AT_name("R24_b3")
    5115        .dwattr $C$DW$412, DW_AT_location[DW_OP_regx 0x63]
    5116$C$DW$413       .dwtag  DW_TAG_TI_assign_register, DW_AT_name("R25_b0")
    5117        .dwattr $C$DW$413, DW_AT_location[DW_OP_regx 0x64]
    5118$C$DW$414       .dwtag  DW_TAG_TI_assign_register, DW_AT_name("R25_b1")
    5119        .dwattr $C$DW$414, DW_AT_location[DW_OP_regx 0x65]
    5120$C$DW$415       .dwtag  DW_TAG_TI_assign_register, DW_AT_name("R25_b2")
    5121        .dwattr $C$DW$415, DW_AT_location[DW_OP_regx 0x66]
    5122$C$DW$416       .dwtag  DW_TAG_TI_assign_register, DW_AT_name("R25_b3")
    5123        .dwattr $C$DW$416, DW_AT_location[DW_OP_regx 0x67]
    5124$C$DW$417       .dwtag  DW_TAG_TI_assign_register, DW_AT_name("R26_b0")
    5125        .dwattr $C$DW$417, DW_AT_location[DW_OP_regx 0x68]
    5126$C$DW$418       .dwtag  DW_TAG_TI_assign_register, DW_AT_name("R26_b1")
    5127        .dwattr $C$DW$418, DW_AT_location[DW_OP_regx 0x69]
    5128$C$DW$419       .dwtag  DW_TAG_TI_assign_register, DW_AT_name("R26_b2")
    5129        .dwattr $C$DW$419, DW_AT_location[DW_OP_regx 0x6a]
    5130$C$DW$420       .dwtag  DW_TAG_TI_assign_register, DW_AT_name("R26_b3")
    5131        .dwattr $C$DW$420, DW_AT_location[DW_OP_regx 0x6b]
    5132$C$DW$421       .dwtag  DW_TAG_TI_assign_register, DW_AT_name("R27_b0")
    5133        .dwattr $C$DW$421, DW_AT_location[DW_OP_regx 0x6c]
    5134$C$DW$422       .dwtag  DW_TAG_TI_assign_register, DW_AT_name("R27_b1")
    5135        .dwattr $C$DW$422, DW_AT_location[DW_OP_regx 0x6d]
    5136$C$DW$423       .dwtag  DW_TAG_TI_assign_register, DW_AT_name("R27_b2")
    5137        .dwattr $C$DW$423, DW_AT_location[DW_OP_regx 0x6e]
    5138$C$DW$424       .dwtag  DW_TAG_TI_assign_register, DW_AT_name("R27_b3")
PRU Assembler Unix v2.1.2 Thu Jan 28 12:38:40 2016

Tools Copyright (c) 2012-2015 Texas Instruments Incorporated
spi.asm                                                              PAGE   95

    5139        .dwattr $C$DW$424, DW_AT_location[DW_OP_regx 0x6f]
    5140$C$DW$425       .dwtag  DW_TAG_TI_assign_register, DW_AT_name("R28_b0")
    5141        .dwattr $C$DW$425, DW_AT_location[DW_OP_regx 0x70]
    5142$C$DW$426       .dwtag  DW_TAG_TI_assign_register, DW_AT_name("R28_b1")
    5143        .dwattr $C$DW$426, DW_AT_location[DW_OP_regx 0x71]
    5144$C$DW$427       .dwtag  DW_TAG_TI_assign_register, DW_AT_name("R28_b2")
    5145        .dwattr $C$DW$427, DW_AT_location[DW_OP_regx 0x72]
    5146$C$DW$428       .dwtag  DW_TAG_TI_assign_register, DW_AT_name("R28_b3")
    5147        .dwattr $C$DW$428, DW_AT_location[DW_OP_regx 0x73]
    5148$C$DW$429       .dwtag  DW_TAG_TI_assign_register, DW_AT_name("R29_b0")
    5149        .dwattr $C$DW$429, DW_AT_location[DW_OP_regx 0x74]
    5150$C$DW$430       .dwtag  DW_TAG_TI_assign_register, DW_AT_name("R29_b1")
    5151        .dwattr $C$DW$430, DW_AT_location[DW_OP_regx 0x75]
    5152$C$DW$431       .dwtag  DW_TAG_TI_assign_register, DW_AT_name("R29_b2")
    5153        .dwattr $C$DW$431, DW_AT_location[DW_OP_regx 0x76]
    5154$C$DW$432       .dwtag  DW_TAG_TI_assign_register, DW_AT_name("R29_b3")
    5155        .dwattr $C$DW$432, DW_AT_location[DW_OP_regx 0x77]
    5156$C$DW$433       .dwtag  DW_TAG_TI_assign_register, DW_AT_name("R30_b0")
    5157        .dwattr $C$DW$433, DW_AT_location[DW_OP_regx 0x78]
    5158$C$DW$434       .dwtag  DW_TAG_TI_assign_register, DW_AT_name("R30_b1")
    5159        .dwattr $C$DW$434, DW_AT_location[DW_OP_regx 0x79]
    5160$C$DW$435       .dwtag  DW_TAG_TI_assign_register, DW_AT_name("R30_b2")
    5161        .dwattr $C$DW$435, DW_AT_location[DW_OP_regx 0x7a]
    5162$C$DW$436       .dwtag  DW_TAG_TI_assign_register, DW_AT_name("R30_b3")
    5163        .dwattr $C$DW$436, DW_AT_location[DW_OP_regx 0x7b]
    5164$C$DW$437       .dwtag  DW_TAG_TI_assign_register, DW_AT_name("R31_b0")
    5165        .dwattr $C$DW$437, DW_AT_location[DW_OP_regx 0x7c]
    5166$C$DW$438       .dwtag  DW_TAG_TI_assign_register, DW_AT_name("R31_b1")
    5167        .dwattr $C$DW$438, DW_AT_location[DW_OP_regx 0x7d]
    5168$C$DW$439       .dwtag  DW_TAG_TI_assign_register, DW_AT_name("R31_b2")
    5169        .dwattr $C$DW$439, DW_AT_location[DW_OP_regx 0x7e]
    5170$C$DW$440       .dwtag  DW_TAG_TI_assign_register, DW_AT_name("R31_b3")
    5171        .dwattr $C$DW$440, DW_AT_location[DW_OP_regx 0x7f]
    5172        .dwendtag $C$DW$CU
    5173

No Assembly Errors, No Assembly Warnings
